 torqDebug

 Timestamp is 43ec4163 (Fri Feb 10 16:31:47 2006)

 Preferred load address is 00400000

 Start         Length     Name                   Class
 0001:00000000 0009a19fH .text                   CODE
 0001:0009a1a0 000053beH .text$x                 CODE
 0001:0009f560 00004f92H .text$yc                CODE
 0001:000a4500 0000038fH .text$yd                CODE
 0002:00000000 00006664H .rdata                  DATA
 0002:00006664 0000003fH .rdata$debug            DATA
 0002:000066a4 000006a4H .rdata$r                DATA
 0002:00006d48 00000004H .rtc$IAA                DATA
 0002:00006d4c 00000018H .rtc$IMZ                DATA
 0002:00006d64 00000004H .rtc$IZZ                DATA
 0002:00006d68 00000004H .rtc$TAA                DATA
 0002:00006d6c 00000018H .rtc$TMZ                DATA
 0002:00006d84 00000004H .rtc$TZZ                DATA
 0002:00006d88 00007910H .xdata$x                DATA
 0002:0000e698 00000000H .edata                  DATA
 0003:00000000 00000004H .CRT$XCA                DATA
 0003:00000004 00000004H .CRT$XCAA               DATA
 0003:00000008 00000048H .CRT$XCC                DATA
 0003:00000050 0000009cH .CRT$XCU                DATA
 0003:000000ec 00000004H .CRT$XCZ                DATA
 0003:000000f0 00000004H .CRT$XIA                DATA
 0003:000000f4 0000000cH .CRT$XIC                DATA
 0003:00000100 00000004H .CRT$XIY                DATA
 0003:00000104 00000004H .CRT$XIZ                DATA
 0003:00000108 00000004H .CRT$XPA                DATA
 0003:0000010c 00000004H .CRT$XPX                DATA
 0003:00000110 00000004H .CRT$XPZ                DATA
 0003:00000114 00000004H .CRT$XTA                DATA
 0003:00000118 00000004H .CRT$XTB                DATA
 0003:0000011c 00000004H .CRT$XTZ                DATA
 0003:00000120 00001370H .data                   DATA
 0003:000014a0 00003efcH .bss                    DATA
 0004:00000000 0000003cH .idata$2                DATA
 0004:0000003c 00000014H .idata$3                DATA
 0004:00000050 000001b0H .idata$4                DATA
 0004:00000200 000001b0H .idata$5                DATA
 0004:000003b0 000008aeH .idata$6                DATA

  Address         Publics by Value              Rva+Base     Lib:Object

 0000:00000000       __except_list              00000000     <absolute>
 0000:00000000       ___safe_se_handler_count   00000000     <absolute>
 0000:00000000       ___safe_se_handler_table   00000000     <absolute>
 0001:00000000       ??0id@locale@std@@QAE@I@Z  00401000 f i interpreter.obj
 0001:00000040       ?make_special_tokens@?A0x8226b269@@YA?AV?$vector@U?$pair@V?$vector@HV?$allocator@H@std@@@std@@UGeneratedToken@text@@@std@@V?$allocator@U?$pair@V?$vector@HV?$allocator@H@std@@@std@@UGeneratedToken@text@@@std@@@2@@std@@XZ 00401040 f   texttoken.obj
 0001:00000280       ?decode@EscapeSequenceHelper@common@@SAXPAV?$vector@HV?$allocator@H@std@@@std@@ABV?$basic_string@DU?$char_traits@D@std@@V?$allocator@D@2@@4@@Z 00401280 f i texttoken.obj
 0001:000002d0       ?decode@EscapeSequenceHelper@common@@SAXPAV?$vector@HV?$allocator@H@std@@@std@@ABV?$basic_string@DU?$char_traits@D@std@@V?$allocator@D@2@@4@JJ@Z 004012d0 f i texttoken.obj
 0001:00000830       ??1TokenSequence@text@@QAE@XZ 00401830 f i texttoken.obj
 0001:000008f0       ?dispose@Token@text@@SAXPAU12@@Z 004018f0 f i texttoken.obj
 0001:00000940       ??0TokenSequence@text@@QAE@XZ 00401940 f i texttoken.obj
 0001:00000990       ??0GeneratedToken@text@@QAE@JABVTokenSequence@1@@Z 00401990 f i texttoken.obj
 0001:00000a30       ??1Token@text@@MAE@XZ      00401a30 f i texttoken.obj
 0001:00000a70       ??_GToken@text@@MAEPAXI@Z  00401a70 f i texttoken.obj
 0001:00000a70       ??_EToken@text@@MAEPAXI@Z  00401a70 f i texttoken.obj
 0001:00000ad0       ??0Token@text@@QAE@XZ      00401ad0 f i texttoken.obj
 0001:00000b10       ??0TokenSequence@text@@QAE@ABV01@@Z 00401b10 f i texttoken.obj
 0001:00000bf0       ?dispose@GeneratedToken@text@@UAEXXZ 00401bf0 f i texttoken.obj
 0001:00000c80       ?castRawChar@GeneratedToken@text@@UAEPAURawCharToken@2@XZ 00401c80 f i texttoken.obj
 0001:00000cb0       ?castRawChar@GeneratedToken@text@@UBEPBURawCharToken@2@XZ 00401cb0 f i texttoken.obj
 0001:00000ce0       ?castGenerated@GeneratedToken@text@@UAEPAU12@XZ 00401ce0 f i texttoken.obj
 0001:00000d10       ?castGenerated@GeneratedToken@text@@UBEPBU12@XZ 00401d10 f i texttoken.obj
 0001:00000d40       ?dup@GeneratedToken@text@@UBEPAUToken@2@XZ 00401d40 f i texttoken.obj
 0001:00000e00       ??0GeneratedToken@text@@QAE@ABU01@@Z 00401e00 f i texttoken.obj
 0001:00000ea0       ??8GeneratedToken@text@@UBE_NABUToken@1@@Z 00401ea0 f i texttoken.obj
 0001:00000f30       ??8TokenSequence@text@@QBE_NABV01@@Z 00401f30 f i texttoken.obj
 0001:00001010       ?equalsToRawChar@GeneratedToken@text@@UBE_NH@Z 00402010 f i texttoken.obj
 0001:00001040       ?equalsToGenerated@GeneratedToken@text@@UBE_NJ@Z 00402040 f i texttoken.obj
 0001:00001080       ?isRawChar@GeneratedToken@text@@UBE_NXZ 00402080 f i texttoken.obj
 0001:000010b0       ?isGenerated@GeneratedToken@text@@UBE_NXZ 004020b0 f i texttoken.obj
 0001:000010e0       ??_GGeneratedToken@text@@UAEPAXI@Z 004020e0 f i texttoken.obj
 0001:000010e0       ??_EGeneratedToken@text@@UAEPAXI@Z 004020e0 f i texttoken.obj
 0001:00001140       ??1GeneratedToken@text@@UAE@XZ 00402140 f i texttoken.obj
 0001:000011c0       ??1?$pair@V?$vector@HV?$allocator@H@std@@@std@@UGeneratedToken@text@@@std@@QAE@XZ 004021c0 f i texttoken.obj
 0001:00001240       ??_EPooledRawCharToken@text@@UAEPAXI@Z 00402240 f i texttoken.obj
 0001:000012e0       ??1PooledRawCharToken@text@@UAE@XZ 004022e0 f i texttoken.obj
 0001:00001320       ??1RawCharToken@text@@UAE@XZ 00402320 f i texttoken.obj
 0001:00001360       ?newRawCharToken@RawCharToken@text@@SAPAU12@HJ@Z 00402360 f   texttoken.obj
 0001:00001430       ??0RawCharToken@text@@IAE@HJ@Z 00402430 f i texttoken.obj
 0001:00001490       ?dup@RawCharToken@text@@UBEPAUToken@2@XZ 00402490 f i texttoken.obj
 0001:00001550       ?dispose@RawCharToken@text@@UAEXXZ 00402550 f i texttoken.obj
 0001:000015e0       ?castRawChar@RawCharToken@text@@UAEPAU12@XZ 004025e0 f i texttoken.obj
 0001:00001610       ?castRawChar@RawCharToken@text@@UBEPBU12@XZ 00402610 f i texttoken.obj
 0001:00001640       ?castGenerated@RawCharToken@text@@UAEPAUGeneratedToken@2@XZ 00402640 f i texttoken.obj
 0001:00001670       ?castGenerated@RawCharToken@text@@UBEPBUGeneratedToken@2@XZ 00402670 f i texttoken.obj
 0001:000016a0       ??8RawCharToken@text@@UBE_NABUToken@1@@Z 004026a0 f i texttoken.obj
 0001:00001710       ?getCode@RawCharToken@text@@QBEHXZ 00402710 f i texttoken.obj
 0001:00001740       ?equalsToRawChar@RawCharToken@text@@UBE_NH@Z 00402740 f i texttoken.obj
 0001:00001780       ?equalsToGenerated@RawCharToken@text@@UBE_NJ@Z 00402780 f i texttoken.obj
 0001:000017b0       ?isRawChar@RawCharToken@text@@UBE_NXZ 004027b0 f i texttoken.obj
 0001:000017e0       ?isGenerated@RawCharToken@text@@UBE_NXZ 004027e0 f i texttoken.obj
 0001:00001810       ??_GRawCharToken@text@@UAEPAXI@Z 00402810 f i texttoken.obj
 0001:00001810       ??_ERawCharToken@text@@UAEPAXI@Z 00402810 f i texttoken.obj
 0001:00001870       ??0?$basic_string@DU?$char_traits@D@std@@V?$allocator@D@2@@std@@QAE@PBD@Z 00402870 f i texttoken.obj
 0001:000018e0       ??1?$basic_string@DU?$char_traits@D@std@@V?$allocator@D@2@@std@@QAE@XZ 004028e0 f i texttoken.obj
 0001:00001930       ??A?$basic_string@DU?$char_traits@D@std@@V?$allocator@D@2@@std@@QBEABDI@Z 00402930 f i texttoken.obj
 0001:00001980       ?c_str@?$basic_string@DU?$char_traits@D@std@@V?$allocator@D@2@@std@@QBEPBDXZ 00402980 f i texttoken.obj
 0001:000019c0       ?length@?$basic_string@DU?$char_traits@D@std@@V?$allocator@D@2@@std@@QBEIXZ 004029c0 f i texttoken.obj
 0001:000019f0       ?size@?$basic_string@DU?$char_traits@D@std@@V?$allocator@D@2@@std@@QBEIXZ 004029f0 f i texttoken.obj
 0001:00001a20       ?substr@?$basic_string@DU?$char_traits@D@std@@V?$allocator@D@2@@std@@QBE?AV12@II@Z 00402a20 f i texttoken.obj
 0001:00001a90       ??0?$vector@HV?$allocator@H@std@@@std@@QAE@XZ 00402a90 f i texttoken.obj
 0001:00001af0       ??1?$vector@HV?$allocator@H@std@@@std@@QAE@XZ 00402af0 f i texttoken.obj
 0001:00001b30       ?push_back@?$vector@HV?$allocator@H@std@@@std@@QAEXABH@Z 00402b30 f i texttoken.obj
 0001:00001bd0       ?size@?$vector@HV?$allocator@H@std@@@std@@QBEIXZ 00402bd0 f i texttoken.obj
 0001:00001c30       ?clear@?$vector@HV?$allocator@H@std@@@std@@QAEXXZ 00402c30 f i texttoken.obj
 0001:00001c70       ?end@?$_Tree@V?$_Tmap_traits@V?$basic_string@DU?$char_traits@D@std@@V?$allocator@D@2@@std@@HU?$less@V?$basic_string@DU?$char_traits@D@std@@V?$allocator@D@2@@std@@@2@V?$allocator@U?$pair@$$CBV?$basic_string@DU?$char_traits@D@std@@V?$allocator@D@2@@std@@H@std@@@2@$0A@@std@@@std@@QBE?AVconst_iterator@12@XZ 00402c70 f i texttoken.obj
 0001:00001cc0       ?find@?$_Tree@V?$_Tmap_traits@V?$basic_string@DU?$char_traits@D@std@@V?$allocator@D@2@@std@@HU?$less@V?$basic_string@DU?$char_traits@D@std@@V?$allocator@D@2@@std@@@2@V?$allocator@U?$pair@$$CBV?$basic_string@DU?$char_traits@D@std@@V?$allocator@D@2@@std@@H@std@@@2@$0A@@std@@@std@@QBE?AVconst_iterator@12@ABV?$basic_string@DU?$char_traits@D@std@@V?$allocator@D@2@@2@@Z 00402cc0 f i texttoken.obj
 0001:00001dc0       ??Cconst_iterator@?$_Tree@V?$_Tmap_traits@V?$basic_string@DU?$char_traits@D@std@@V?$allocator@D@2@@std@@HU?$less@V?$basic_string@DU?$char_traits@D@std@@V?$allocator@D@2@@std@@@2@V?$allocator@U?$pair@$$CBV?$basic_string@DU?$char_traits@D@std@@V?$allocator@D@2@@std@@H@std@@@2@$0A@@std@@@std@@QBEPBU?$pair@$$CBV?$basic_string@DU?$char_traits@D@std@@V?$allocator@D@2@@std@@H@2@XZ 00402dc0 f i texttoken.obj
 0001:00001e00       ??9const_iterator@?$_Tree@V?$_Tmap_traits@V?$basic_string@DU?$char_traits@D@std@@V?$allocator@D@2@@std@@HU?$less@V?$basic_string@DU?$char_traits@D@std@@V?$allocator@D@2@@std@@@2@V?$allocator@U?$pair@$$CBV?$basic_string@DU?$char_traits@D@std@@V?$allocator@D@2@@std@@H@std@@@2@$0A@@std@@@std@@QBE_NABV012@@Z 00402e00 f i texttoken.obj
 0001:00001e50       ??0?$vector@PAUToken@text@@V?$allocator@PAUToken@text@@@std@@@std@@QAE@XZ 00402e50 f i texttoken.obj
 0001:00001eb0       ??1?$vector@PAUToken@text@@V?$allocator@PAUToken@text@@@std@@@std@@QAE@XZ 00402eb0 f i texttoken.obj
 0001:00001ef0       ?resize@?$vector@PAUToken@text@@V?$allocator@PAUToken@text@@@std@@@std@@QAEXI@Z 00402ef0 f i texttoken.obj
 0001:00001f40       ?resize@?$vector@PAUToken@text@@V?$allocator@PAUToken@text@@@std@@@std@@QAEXIPAUToken@text@@@Z 00402f40 f i texttoken.obj
 0001:00002010       ?size@?$vector@PAUToken@text@@V?$allocator@PAUToken@text@@@std@@@std@@QBEIXZ 00403010 f i texttoken.obj
 0001:00002070       ??A?$vector@PAUToken@text@@V?$allocator@PAUToken@text@@@std@@@std@@QBEABQAUToken@text@@I@Z 00403070 f i texttoken.obj
 0001:000020e0       ??A?$vector@PAUToken@text@@V?$allocator@PAUToken@text@@@std@@@std@@QAEAAPAUToken@text@@I@Z 004030e0 f i texttoken.obj
 0001:00002150       ??0?$vector@U?$pair@V?$vector@HV?$allocator@H@std@@@std@@UGeneratedToken@text@@@std@@V?$allocator@U?$pair@V?$vector@HV?$allocator@H@std@@@std@@UGeneratedToken@text@@@std@@@2@@std@@QAE@XZ 00403150 f i texttoken.obj
 0001:000021b0       ??0?$vector@U?$pair@V?$vector@HV?$allocator@H@std@@@std@@UGeneratedToken@text@@@std@@V?$allocator@U?$pair@V?$vector@HV?$allocator@H@std@@@std@@UGeneratedToken@text@@@std@@@2@@std@@QAE@ABV01@@Z 004031b0 f i texttoken.obj
 0001:000022c0       ??1?$vector@U?$pair@V?$vector@HV?$allocator@H@std@@@std@@UGeneratedToken@text@@@std@@V?$allocator@U?$pair@V?$vector@HV?$allocator@H@std@@@std@@UGeneratedToken@text@@@std@@@2@@std@@QAE@XZ 004032c0 f i texttoken.obj
 0001:00002300       ?push_back@?$vector@U?$pair@V?$vector@HV?$allocator@H@std@@@std@@UGeneratedToken@text@@@std@@V?$allocator@U?$pair@V?$vector@HV?$allocator@H@std@@@std@@UGeneratedToken@text@@@std@@@2@@std@@QAEXABU?$pair@V?$vector@HV?$allocator@H@std@@@std@@UGeneratedToken@text@@@2@@Z 00403300 f i texttoken.obj
 0001:000023a0       ??0?$pair@V?$vector@HV?$allocator@H@std@@@std@@UGeneratedToken@text@@@std@@QAE@ABV?$vector@HV?$allocator@H@std@@@1@ABUGeneratedToken@text@@@Z 004033a0 f i texttoken.obj
 0001:00002430       ??0?$vector@HV?$allocator@H@std@@@std@@QAE@ABV01@@Z 00403430 f i texttoken.obj
 0001:00002540       ??0?$basic_string@DU?$char_traits@D@std@@V?$allocator@D@2@@std@@QAE@ABV01@II@Z 00403540 f i texttoken.obj
 0001:000025b0       ?assign@?$basic_string@DU?$char_traits@D@std@@V?$allocator@D@2@@std@@QAEAAV12@ABV12@II@Z 004035b0 f i texttoken.obj
 0001:00002690       ?copy@?$char_traits@D@std@@SAPADPADPBDI@Z 00403690 f i texttoken.obj
 0001:000026e0       ?assign@?$basic_string@DU?$char_traits@D@std@@V?$allocator@D@2@@std@@QAEAAV12@PBD@Z 004036e0 f i texttoken.obj
 0001:00002740       ?length@?$char_traits@D@std@@SAIPBD@Z 00403740 f i texttoken.obj
 0001:00002780       ?assign@?$basic_string@DU?$char_traits@D@std@@V?$allocator@D@2@@std@@QAEAAV12@PBDI@Z 00403780 f i texttoken.obj
 0001:00002830       ?_Eos@?$basic_string@DU?$char_traits@D@std@@V?$allocator@D@2@@std@@IAEXI@Z 00403830 f i texttoken.obj
 0001:000028a0       ?assign@?$char_traits@D@std@@SAXAADABD@Z 004038a0 f i texttoken.obj
 0001:000028d0       ?_Grow@?$basic_string@DU?$char_traits@D@std@@V?$allocator@D@2@@std@@IAE_NI_N@Z 004038d0 f i texttoken.obj
 0001:000029a0       ?_Tidy@?$basic_string@DU?$char_traits@D@std@@V?$allocator@D@2@@std@@IAEX_NI@Z 004039a0 f i texttoken.obj
 0001:00002a40       ?_Myptr@?$basic_string@DU?$char_traits@D@std@@V?$allocator@D@2@@std@@QBEPBDXZ 00403a40 f i texttoken.obj
 0001:00002aa0       ??0?$_String_val@DV?$allocator@D@std@@@std@@IAE@V?$allocator@D@1@@Z 00403aa0 f i texttoken.obj
 0001:00002af0       ??0?$allocator@D@std@@QAE@XZ 00403af0 f i texttoken.obj
 0001:00002b20       ??0?$allocator@D@std@@QAE@ABV01@@Z 00403b20 f i texttoken.obj
 0001:00002b50       ?capacity@?$vector@HV?$allocator@H@std@@@std@@QBEIXZ 00403b50 f i texttoken.obj
 0001:00002bb0       ?begin@?$vector@HV?$allocator@H@std@@@std@@QBE?AVconst_iterator@12@XZ 00403bb0 f i texttoken.obj
 0001:00002c00       ?end@?$vector@HV?$allocator@H@std@@@std@@QAE?AViterator@12@XZ 00403c00 f i texttoken.obj
 0001:00002c50       ?end@?$vector@HV?$allocator@H@std@@@std@@QBE?AVconst_iterator@12@XZ 00403c50 f i texttoken.obj
 0001:00002ca0       ?insert@?$vector@HV?$allocator@H@std@@@std@@QAE?AViterator@12@V312@ABH@Z 00403ca0 f i texttoken.obj
 0001:00002d50       ?begin@?$vector@HV?$allocator@H@std@@@std@@QAE?AViterator@12@XZ 00403d50 f i texttoken.obj
 0001:00002da0       ?_Buy@?$vector@HV?$allocator@H@std@@@std@@IAE_NI@Z 00403da0 f i texttoken.obj
 0001:00002e50       ?max_size@?$vector@HV?$allocator@H@std@@@std@@QBEIXZ 00403e50 f i texttoken.obj
 0001:00002e90       ?_Tidy@?$vector@HV?$allocator@H@std@@@std@@IAEXXZ 00403e90 f i texttoken.obj
 0001:00002f30       ?_Destroy@?$vector@HV?$allocator@H@std@@@std@@IAEXPAH0@Z 00403f30 f i texttoken.obj
 0001:00002f80       ?_Ufill@?$vector@HV?$allocator@H@std@@@std@@IAEPAHPAHIABH@Z 00403f80 f i texttoken.obj
 0001:00002fe0       ?_Xlen@?$vector@HV?$allocator@H@std@@@std@@IBEXXZ 00403fe0 f i texttoken.obj
 0001:00003070       ??0length_error@std@@QAE@ABV?$basic_string@DU?$char_traits@D@std@@V?$allocator@D@2@@1@@Z 00404070 f i texttoken.obj
 0001:000030d0       ??0logic_error@std@@QAE@ABV?$basic_string@DU?$char_traits@D@std@@V?$allocator@D@2@@1@@Z 004040d0 f i texttoken.obj
 0001:00003160       ?what@logic_error@std@@UBEPBDXZ 00404160 f i texttoken.obj
 0001:000031b0       ??_Glogic_error@std@@UAEPAXI@Z 004041b0 f i texttoken.obj
 0001:000031b0       ??_Elogic_error@std@@UAEPAXI@Z 004041b0 f i texttoken.obj
 0001:00003210       ??1logic_error@std@@UAE@XZ 00404210 f i texttoken.obj
 0001:00003290       ??1length_error@std@@UAE@XZ 00404290 f i texttoken.obj
 0001:000032e0       ??_Glength_error@std@@UAEPAXI@Z 004042e0 f i texttoken.obj
 0001:000032e0       ??_Elength_error@std@@UAEPAXI@Z 004042e0 f i texttoken.obj
 0001:00003340       ??0?$basic_string@DU?$char_traits@D@std@@V?$allocator@D@2@@std@@QAE@ABV01@@Z 00404340 f i texttoken.obj
 0001:000033b0       ??0?$_Vector_val@HV?$allocator@H@std@@@std@@IAE@V?$allocator@H@1@@Z 004043b0 f i texttoken.obj
 0001:00003400       ??0?$allocator@H@std@@QAE@XZ 00404400 f i texttoken.obj
 0001:00003430       ??0?$allocator@H@std@@QAE@ABV01@@Z 00404430 f i texttoken.obj
 0001:00003460       ?deallocate@?$allocator@H@std@@QAEXPAHI@Z 00404460 f i texttoken.obj
 0001:000034b0       ?allocate@?$allocator@H@std@@QAEPAHI@Z 004044b0 f i texttoken.obj
 0001:00003500       ?_Key@?$_Tree@V?$_Tmap_traits@V?$basic_string@DU?$char_traits@D@std@@V?$allocator@D@2@@std@@HU?$less@V?$basic_string@DU?$char_traits@D@std@@V?$allocator@D@2@@std@@@2@V?$allocator@U?$pair@$$CBV?$basic_string@DU?$char_traits@D@std@@V?$allocator@D@2@@std@@H@std@@@2@$0A@@std@@@std@@KAABV?$basic_string@DU?$char_traits@D@std@@V?$allocator@D@2@@2@PAU_Node@?$_Tree_nod@V?$_Tmap_traits@V?$basic_string@DU?$char_traits@D@std@@V?$allocator@D@2@@std@@HU?$less@V?$basic_string@DU?$char_traits@D@std@@V?$allocator@D@2@@std@@@2@V?$allocator@U?$pair@$$CBV?$basic_string@DU?$char_traits@D@std@@V?$allocator@D@2@@std@@H@std@@@2@$0A@@std@@@2@@Z 00404500 f i texttoken.obj
 0001:00003550       ?lower_bound@?$_Tree@V?$_Tmap_traits@V?$basic_string@DU?$char_traits@D@std@@V?$allocator@D@2@@std@@HU?$less@V?$basic_string@DU?$char_traits@D@std@@V?$allocator@D@2@@std@@@2@V?$allocator@U?$pair@$$CBV?$basic_string@DU?$char_traits@D@std@@V?$allocator@D@2@@std@@H@std@@@2@$0A@@std@@@std@@QBE?AVconst_iterator@12@ABV?$basic_string@DU?$char_traits@D@std@@V?$allocator@D@2@@2@@Z 00404550 f i texttoken.obj
 0001:000035b0       ??R?$less@V?$basic_string@DU?$char_traits@D@std@@V?$allocator@D@2@@std@@@std@@QBE_NABV?$basic_string@DU?$char_traits@D@std@@V?$allocator@D@2@@1@0@Z 004045b0 f i texttoken.obj
 0001:00003600       ??0const_iterator@?$_Tree@V?$_Tmap_traits@V?$basic_string@DU?$char_traits@D@std@@V?$allocator@D@2@@std@@HU?$less@V?$basic_string@DU?$char_traits@D@std@@V?$allocator@D@2@@std@@@2@V?$allocator@U?$pair@$$CBV?$basic_string@DU?$char_traits@D@std@@V?$allocator@D@2@@std@@H@std@@@2@$0A@@std@@@std@@QAE@PAU_Node@?$_Tree_nod@V?$_Tmap_traits@V?$basic_string@DU?$char_traits@D@std@@V?$allocator@D@2@@std@@HU?$less@V?$basic_string@DU?$char_traits@D@std@@V?$allocator@D@2@@std@@@2@V?$allocator@U?$pair@$$CBV?$basic_string@DU?$char_traits@D@std@@V?$allocator@D@2@@std@@H@std@@@2@$0A@@std@@@2@@Z 00404600 f i texttoken.obj
 0001:00003640       ??Dconst_iterator@?$_Tree@V?$_Tmap_traits@V?$basic_string@DU?$char_traits@D@std@@V?$allocator@D@2@@std@@HU?$less@V?$basic_string@DU?$char_traits@D@std@@V?$allocator@D@2@@std@@@2@V?$allocator@U?$pair@$$CBV?$basic_string@DU?$char_traits@D@std@@V?$allocator@D@2@@std@@H@std@@@2@$0A@@std@@@std@@QBEABU?$pair@$$CBV?$basic_string@DU?$char_traits@D@std@@V?$allocator@D@2@@std@@H@2@XZ 00404640 f i texttoken.obj
 0001:00003690       ??8const_iterator@?$_Tree@V?$_Tmap_traits@V?$basic_string@DU?$char_traits@D@std@@V?$allocator@D@2@@std@@HU?$less@V?$basic_string@DU?$char_traits@D@std@@V?$allocator@D@2@@std@@@2@V?$allocator@U?$pair@$$CBV?$basic_string@DU?$char_traits@D@std@@V?$allocator@D@2@@std@@H@std@@@2@$0A@@std@@@std@@QBE_NABV012@@Z 00404690 f i texttoken.obj
 0001:000036d0       ?_Mynode@const_iterator@?$_Tree@V?$_Tmap_traits@V?$basic_string@DU?$char_traits@D@std@@V?$allocator@D@2@@std@@HU?$less@V?$basic_string@DU?$char_traits@D@std@@V?$allocator@D@2@@std@@@2@V?$allocator@U?$pair@$$CBV?$basic_string@DU?$char_traits@D@std@@V?$allocator@D@2@@std@@H@std@@@2@$0A@@std@@@std@@QBEPAU_Node@?$_Tree_nod@V?$_Tmap_traits@V?$basic_string@DU?$char_traits@D@std@@V?$allocator@D@2@@std@@HU?$less@V?$basic_string@DU?$char_traits@D@std@@V?$allocator@D@2@@std@@@2@V?$allocator@U?$pair@$$CBV?$basic_string@DU?$char_traits@D@std@@V?$allocator@D@2@@std@@H@std@@@2@$0A@@std@@@3@XZ 004046d0 f i texttoken.obj
 0001:00003700       ?begin@?$vector@PAUToken@text@@V?$allocator@PAUToken@text@@@std@@@std@@QAE?AViterator@12@XZ 00404700 f i texttoken.obj
 0001:00003750       ?begin@?$vector@PAUToken@text@@V?$allocator@PAUToken@text@@@std@@@std@@QBE?AVconst_iterator@12@XZ 00404750 f i texttoken.obj
 0001:000037a0       ?end@?$vector@PAUToken@text@@V?$allocator@PAUToken@text@@@std@@@std@@QAE?AViterator@12@XZ 004047a0 f i texttoken.obj
 0001:000037f0       ?erase@?$vector@PAUToken@text@@V?$allocator@PAUToken@text@@@std@@@std@@QAE?AViterator@12@V312@0@Z 004047f0 f i texttoken.obj
 0001:00003880       ?_Buy@?$vector@PAUToken@text@@V?$allocator@PAUToken@text@@@std@@@std@@IAE_NI@Z 00404880 f i texttoken.obj
 0001:00003930       ?max_size@?$vector@PAUToken@text@@V?$allocator@PAUToken@text@@@std@@@std@@QBEIXZ 00404930 f i texttoken.obj
 0001:00003970       ?_Destroy@?$vector@PAUToken@text@@V?$allocator@PAUToken@text@@@std@@@std@@IAEXPAPAUToken@text@@0@Z 00404970 f i texttoken.obj
 0001:000039c0       ?_Tidy@?$vector@PAUToken@text@@V?$allocator@PAUToken@text@@@std@@@std@@IAEXXZ 004049c0 f i texttoken.obj
 0001:00003a60       ?_Insert_n@?$vector@PAUToken@text@@V?$allocator@PAUToken@text@@@std@@@std@@IAEXViterator@12@IABQAUToken@text@@@Z 00404a60 f i texttoken.obj
 0001:00003de0       ?capacity@?$vector@PAUToken@text@@V?$allocator@PAUToken@text@@@std@@@std@@QBEIXZ 00404de0 f i texttoken.obj
 0001:00003e40       ?_Ufill@?$vector@PAUToken@text@@V?$allocator@PAUToken@text@@@std@@@std@@IAEPAPAUToken@text@@PAPAU34@IABQAU34@@Z 00404e40 f i texttoken.obj
 0001:00003ea0       ?_Xlen@?$vector@PAUToken@text@@V?$allocator@PAUToken@text@@@std@@@std@@IBEXXZ 00404ea0 f i texttoken.obj
 0001:00003f30       ??0?$_Vector_val@PAUToken@text@@V?$allocator@PAUToken@text@@@std@@@std@@IAE@V?$allocator@PAUToken@text@@@1@@Z 00404f30 f i texttoken.obj
 0001:00003f80       ??0?$allocator@PAUToken@text@@@std@@QAE@XZ 00404f80 f i texttoken.obj
 0001:00003fb0       ?deallocate@?$allocator@PAUToken@text@@@std@@QAEXPAPAUToken@text@@I@Z 00404fb0 f i texttoken.obj
 0001:00004000       ?allocate@?$allocator@PAUToken@text@@@std@@QAEPAPAUToken@text@@I@Z 00405000 f i texttoken.obj
 0001:00004050       ?capacity@?$vector@U?$pair@V?$vector@HV?$allocator@H@std@@@std@@UGeneratedToken@text@@@std@@V?$allocator@U?$pair@V?$vector@HV?$allocator@H@std@@@std@@UGeneratedToken@text@@@std@@@2@@std@@QBEIXZ 00405050 f i texttoken.obj
 0001:000040b0       ?begin@?$vector@U?$pair@V?$vector@HV?$allocator@H@std@@@std@@UGeneratedToken@text@@@std@@V?$allocator@U?$pair@V?$vector@HV?$allocator@H@std@@@std@@UGeneratedToken@text@@@std@@@2@@std@@QBE?AVconst_iterator@12@XZ 004050b0 f i texttoken.obj
 0001:00004100       ?end@?$vector@U?$pair@V?$vector@HV?$allocator@H@std@@@std@@UGeneratedToken@text@@@std@@V?$allocator@U?$pair@V?$vector@HV?$allocator@H@std@@@std@@UGeneratedToken@text@@@std@@@2@@std@@QAE?AViterator@12@XZ 00405100 f i texttoken.obj
 0001:00004150       ?end@?$vector@U?$pair@V?$vector@HV?$allocator@H@std@@@std@@UGeneratedToken@text@@@std@@V?$allocator@U?$pair@V?$vector@HV?$allocator@H@std@@@std@@UGeneratedToken@text@@@std@@@2@@std@@QBE?AVconst_iterator@12@XZ 00405150 f i texttoken.obj
 0001:000041a0       ?size@?$vector@U?$pair@V?$vector@HV?$allocator@H@std@@@std@@UGeneratedToken@text@@@std@@V?$allocator@U?$pair@V?$vector@HV?$allocator@H@std@@@std@@UGeneratedToken@text@@@std@@@2@@std@@QBEIXZ 004051a0 f i texttoken.obj
 0001:00004200       ?insert@?$vector@U?$pair@V?$vector@HV?$allocator@H@std@@@std@@UGeneratedToken@text@@@std@@V?$allocator@U?$pair@V?$vector@HV?$allocator@H@std@@@std@@UGeneratedToken@text@@@std@@@2@@std@@QAE?AViterator@12@V312@ABU?$pair@V?$vector@HV?$allocator@H@std@@@std@@UGeneratedToken@text@@@2@@Z 00405200 f i texttoken.obj
 0001:000042b0       ?_Buy@?$vector@U?$pair@V?$vector@HV?$allocator@H@std@@@std@@UGeneratedToken@text@@@std@@V?$allocator@U?$pair@V?$vector@HV?$allocator@H@std@@@std@@UGeneratedToken@text@@@std@@@2@@std@@IAE_NI@Z 004052b0 f i texttoken.obj
 0001:00004360       ?_Tidy@?$vector@U?$pair@V?$vector@HV?$allocator@H@std@@@std@@UGeneratedToken@text@@@std@@V?$allocator@U?$pair@V?$vector@HV?$allocator@H@std@@@std@@UGeneratedToken@text@@@std@@@2@@std@@IAEXXZ 00405360 f i texttoken.obj
 0001:00004400       ?_Ufill@?$vector@U?$pair@V?$vector@HV?$allocator@H@std@@@std@@UGeneratedToken@text@@@std@@V?$allocator@U?$pair@V?$vector@HV?$allocator@H@std@@@std@@UGeneratedToken@text@@@std@@@2@@std@@IAEPAU?$pair@V?$vector@HV?$allocator@H@std@@@std@@UGeneratedToken@text@@@2@PAU32@IABU32@@Z 00405400 f i texttoken.obj
 0001:00004460       ??0?$_Vector_val@U?$pair@V?$vector@HV?$allocator@H@std@@@std@@UGeneratedToken@text@@@std@@V?$allocator@U?$pair@V?$vector@HV?$allocator@H@std@@@std@@UGeneratedToken@text@@@std@@@2@@std@@IAE@V?$allocator@U?$pair@V?$vector@HV?$allocator@H@std@@@std@@UGeneratedToken@text@@@std@@@1@@Z 00405460 f i texttoken.obj
 0001:000044b0       ??0?$allocator@U?$pair@V?$vector@HV?$allocator@H@std@@@std@@UGeneratedToken@text@@@std@@@std@@QAE@XZ 004054b0 f i texttoken.obj
 0001:000044e0       ??0?$allocator@U?$pair@V?$vector@HV?$allocator@H@std@@@std@@UGeneratedToken@text@@@std@@@std@@QAE@ABV01@@Z 004054e0 f i texttoken.obj
 0001:00004510       ??Hiterator@?$vector@HV?$allocator@H@std@@@std@@QBE?AV012@H@Z 00405510 f i texttoken.obj
 0001:000045a0       ??Diterator@?$vector@PAUToken@text@@V?$allocator@PAUToken@text@@@std@@@std@@QBEAAPAUToken@text@@XZ 004055a0 f i texttoken.obj
 0001:000045e0       ??Hiterator@?$vector@PAUToken@text@@V?$allocator@PAUToken@text@@@std@@@std@@QBE?AV012@H@Z 004055e0 f i texttoken.obj
 0001:00004670       ??Dconst_iterator@?$vector@PAUToken@text@@V?$allocator@PAUToken@text@@@std@@@std@@QBEABQAUToken@text@@XZ 00405670 f i texttoken.obj
 0001:000046a0       ??Hconst_iterator@?$vector@PAUToken@text@@V?$allocator@PAUToken@text@@@std@@@std@@QBE?AV012@H@Z 004056a0 f i texttoken.obj
 0001:00004730       ??0length_error@std@@QAE@ABV01@@Z 00405730 f i texttoken.obj
 0001:00004790       ??0logic_error@std@@QAE@ABV01@@Z 00405790 f i texttoken.obj
 0001:00004820       ?erase@?$basic_string@DU?$char_traits@D@std@@V?$allocator@D@2@@std@@QAEAAV12@II@Z 00405820 f i texttoken.obj
 0001:000048e0       ?move@?$char_traits@D@std@@SAPADPADPBDI@Z 004058e0 f i texttoken.obj
 0001:00004930       ?max_size@?$basic_string@DU?$char_traits@D@std@@V?$allocator@D@2@@std@@QBEIXZ 00405930 f i texttoken.obj
 0001:000049a0       ?_Copy@?$basic_string@DU?$char_traits@D@std@@V?$allocator@D@2@@std@@IAEXII@Z 004059a0 f i texttoken.obj
 0001:00004b30       ?_Inside@?$basic_string@DU?$char_traits@D@std@@V?$allocator@D@2@@std@@IAE_NPBD@Z 00405b30 f i texttoken.obj
 0001:00004b90       ?_Myptr@?$basic_string@DU?$char_traits@D@std@@V?$allocator@D@2@@std@@QAEPADXZ 00405b90 f i texttoken.obj
 0001:00004bf0       ?deallocate@?$allocator@D@std@@QAEXPADI@Z 00405bf0 f i texttoken.obj
 0001:00004c40       ?_Insert_n@?$vector@HV?$allocator@H@std@@@std@@IAEXViterator@12@IABH@Z 00405c40 f i texttoken.obj
 0001:00004fc0       ?max_size@?$allocator@H@std@@QBEIXZ 00405fc0 f i texttoken.obj
 0001:00005020       ?_Myval@?$_Tree@V?$_Tmap_traits@V?$basic_string@DU?$char_traits@D@std@@V?$allocator@D@2@@std@@HU?$less@V?$basic_string@DU?$char_traits@D@std@@V?$allocator@D@2@@std@@@2@V?$allocator@U?$pair@$$CBV?$basic_string@DU?$char_traits@D@std@@V?$allocator@D@2@@std@@H@std@@@2@$0A@@std@@@std@@KAAAU?$pair@$$CBV?$basic_string@DU?$char_traits@D@std@@V?$allocator@D@2@@std@@H@2@PAU_Node@?$_Tree_nod@V?$_Tmap_traits@V?$basic_string@DU?$char_traits@D@std@@V?$allocator@D@2@@std@@HU?$less@V?$basic_string@DU?$char_traits@D@std@@V?$allocator@D@2@@std@@@2@V?$allocator@U?$pair@$$CBV?$basic_string@DU?$char_traits@D@std@@V?$allocator@D@2@@std@@H@std@@@2@$0A@@std@@@2@@Z 00406020 f i texttoken.obj
 0001:00005050       ?_Lbound@?$_Tree@V?$_Tmap_traits@V?$basic_string@DU?$char_traits@D@std@@V?$allocator@D@2@@std@@HU?$less@V?$basic_string@DU?$char_traits@D@std@@V?$allocator@D@2@@std@@@2@V?$allocator@U?$pair@$$CBV?$basic_string@DU?$char_traits@D@std@@V?$allocator@D@2@@std@@H@std@@@2@$0A@@std@@@std@@IBEPAU_Node@?$_Tree_nod@V?$_Tmap_traits@V?$basic_string@DU?$char_traits@D@std@@V?$allocator@D@2@@std@@HU?$less@V?$basic_string@DU?$char_traits@D@std@@V?$allocator@D@2@@std@@@2@V?$allocator@U?$pair@$$CBV?$basic_string@DU?$char_traits@D@std@@V?$allocator@D@2@@std@@H@std@@@2@$0A@@std@@@2@ABV?$basic_string@DU?$char_traits@D@std@@V?$allocator@D@2@@2@@Z 00406050 f i texttoken.obj
 0001:00005110       ?_Kfn@?$_Tmap_traits@V?$basic_string@DU?$char_traits@D@std@@V?$allocator@D@2@@std@@HU?$less@V?$basic_string@DU?$char_traits@D@std@@V?$allocator@D@2@@std@@@2@V?$allocator@U?$pair@$$CBV?$basic_string@DU?$char_traits@D@std@@V?$allocator@D@2@@std@@H@std@@@2@$0A@@std@@SAABV?$basic_string@DU?$char_traits@D@std@@V?$allocator@D@2@@2@ABU?$pair@$$CBV?$basic_string@DU?$char_traits@D@std@@V?$allocator@D@2@@std@@H@2@@Z 00406110 f i texttoken.obj
 0001:00005140       ??0?$allocator@PAUToken@text@@@std@@QAE@ABV01@@Z 00406140 f i texttoken.obj
 0001:00005170       ?max_size@?$allocator@PAUToken@text@@@std@@QBEIXZ 00406170 f i texttoken.obj
 0001:000051d0       ?begin@?$vector@U?$pair@V?$vector@HV?$allocator@H@std@@@std@@UGeneratedToken@text@@@std@@V?$allocator@U?$pair@V?$vector@HV?$allocator@H@std@@@std@@UGeneratedToken@text@@@std@@@2@@std@@QAE?AViterator@12@XZ 004061d0 f i texttoken.obj
 0001:00005220       ?max_size@?$vector@U?$pair@V?$vector@HV?$allocator@H@std@@@std@@UGeneratedToken@text@@@std@@V?$allocator@U?$pair@V?$vector@HV?$allocator@H@std@@@std@@UGeneratedToken@text@@@std@@@2@@std@@QBEIXZ 00406220 f i texttoken.obj
 0001:00005260       ?_Destroy@?$vector@U?$pair@V?$vector@HV?$allocator@H@std@@@std@@UGeneratedToken@text@@@std@@V?$allocator@U?$pair@V?$vector@HV?$allocator@H@std@@@std@@UGeneratedToken@text@@@std@@@2@@std@@IAEXPAU?$pair@V?$vector@HV?$allocator@H@std@@@std@@UGeneratedToken@text@@@2@0@Z 00406260 f i texttoken.obj
 0001:000052b0       ?_Insert_n@?$vector@U?$pair@V?$vector@HV?$allocator@H@std@@@std@@UGeneratedToken@text@@@std@@V?$allocator@U?$pair@V?$vector@HV?$allocator@H@std@@@std@@UGeneratedToken@text@@@std@@@2@@std@@IAEXViterator@12@IABU?$pair@V?$vector@HV?$allocator@H@std@@@std@@UGeneratedToken@text@@@2@@Z 004062b0 f i texttoken.obj
 0001:00005660       ?_Xlen@?$vector@U?$pair@V?$vector@HV?$allocator@H@std@@@std@@UGeneratedToken@text@@@std@@V?$allocator@U?$pair@V?$vector@HV?$allocator@H@std@@@std@@UGeneratedToken@text@@@std@@@2@@std@@IBEXXZ 00406660 f i texttoken.obj
 0001:000056f0       ?deallocate@?$allocator@U?$pair@V?$vector@HV?$allocator@H@std@@@std@@UGeneratedToken@text@@@std@@@std@@QAEXPAU?$pair@V?$vector@HV?$allocator@H@std@@@std@@UGeneratedToken@text@@@2@I@Z 004066f0 f i texttoken.obj
 0001:00005740       ?allocate@?$allocator@U?$pair@V?$vector@HV?$allocator@H@std@@@std@@UGeneratedToken@text@@@std@@@std@@QAEPAU?$pair@V?$vector@HV?$allocator@H@std@@@std@@UGeneratedToken@text@@@2@I@Z 00406740 f i texttoken.obj
 0001:00005790       ??0const_iterator@?$vector@HV?$allocator@H@std@@@std@@QAE@PAH@Z 00406790 f i texttoken.obj
 0001:000057d0       ??0iterator@?$vector@HV?$allocator@H@std@@@std@@QAE@PAH@Z 004067d0 f i texttoken.obj
 0001:00005820       ??Yiterator@?$vector@HV?$allocator@H@std@@@std@@QAEAAV012@H@Z 00406820 f i texttoken.obj
 0001:00005860       ??Giterator@?$vector@HV?$allocator@H@std@@@std@@QBEHABVconst_iterator@12@@Z 00406860 f i texttoken.obj
 0001:000058c0       ??0iterator@?$vector@PAUToken@text@@V?$allocator@PAUToken@text@@@std@@@std@@QAE@PAPAUToken@text@@@Z 004068c0 f i texttoken.obj
 0001:00005910       ??Yiterator@?$vector@PAUToken@text@@V?$allocator@PAUToken@text@@@std@@@std@@QAEAAV012@H@Z 00406910 f i texttoken.obj
 0001:00005950       ??0const_iterator@?$vector@PAUToken@text@@V?$allocator@PAUToken@text@@@std@@@std@@QAE@PAPAUToken@text@@@Z 00406950 f i texttoken.obj
 0001:00005990       ??Yconst_iterator@?$vector@PAUToken@text@@V?$allocator@PAUToken@text@@@std@@@std@@QAEAAV012@H@Z 00406990 f i texttoken.obj
 0001:000059d0       ??9const_iterator@?$vector@PAUToken@text@@V?$allocator@PAUToken@text@@@std@@@std@@QBE_NABV012@@Z 004069d0 f i texttoken.obj
 0001:00005a20       ??0const_iterator@?$vector@U?$pair@V?$vector@HV?$allocator@H@std@@@std@@UGeneratedToken@text@@@std@@V?$allocator@U?$pair@V?$vector@HV?$allocator@H@std@@@std@@UGeneratedToken@text@@@std@@@2@@std@@QAE@PAU?$pair@V?$vector@HV?$allocator@H@std@@@std@@UGeneratedToken@text@@@2@@Z 00406a20 f i texttoken.obj
 0001:00005a60       ??0iterator@?$vector@U?$pair@V?$vector@HV?$allocator@H@std@@@std@@UGeneratedToken@text@@@std@@V?$allocator@U?$pair@V?$vector@HV?$allocator@H@std@@@std@@UGeneratedToken@text@@@std@@@2@@std@@QAE@PAU?$pair@V?$vector@HV?$allocator@H@std@@@std@@UGeneratedToken@text@@@2@@Z 00406a60 f i texttoken.obj
 0001:00005ab0       ??Hiterator@?$vector@U?$pair@V?$vector@HV?$allocator@H@std@@@std@@UGeneratedToken@text@@@std@@V?$allocator@U?$pair@V?$vector@HV?$allocator@H@std@@@std@@UGeneratedToken@text@@@std@@@2@@std@@QBE?AV012@H@Z 00406ab0 f i texttoken.obj
 0001:00005b40       ??Giterator@?$vector@U?$pair@V?$vector@HV?$allocator@H@std@@@std@@UGeneratedToken@text@@@std@@V?$allocator@U?$pair@V?$vector@HV?$allocator@H@std@@@std@@UGeneratedToken@text@@@std@@@2@@std@@QBEHABVconst_iterator@12@@Z 00406b40 f i texttoken.obj
 0001:00005ba0       ??0?$pair@V?$vector@HV?$allocator@H@std@@@std@@UGeneratedToken@text@@@std@@QAE@ABU01@@Z 00406ba0 f i texttoken.obj
 0001:00005c30       ?allocate@?$allocator@D@std@@QAEPADI@Z 00406c30 f i texttoken.obj
 0001:00005c80       ?max_size@?$allocator@D@std@@QBEIXZ 00406c80 f i texttoken.obj
 0001:00005ce0       ?_Isnil@?$_Tree@V?$_Tmap_traits@V?$basic_string@DU?$char_traits@D@std@@V?$allocator@D@2@@std@@HU?$less@V?$basic_string@DU?$char_traits@D@std@@V?$allocator@D@2@@std@@@2@V?$allocator@U?$pair@$$CBV?$basic_string@DU?$char_traits@D@std@@V?$allocator@D@2@@std@@H@std@@@2@$0A@@std@@@std@@KAAADPAU_Node@?$_Tree_nod@V?$_Tmap_traits@V?$basic_string@DU?$char_traits@D@std@@V?$allocator@D@2@@std@@HU?$less@V?$basic_string@DU?$char_traits@D@std@@V?$allocator@D@2@@std@@@2@V?$allocator@U?$pair@$$CBV?$basic_string@DU?$char_traits@D@std@@V?$allocator@D@2@@std@@H@std@@@2@$0A@@std@@@2@@Z 00406ce0 f i texttoken.obj
 0001:00005d10       ?_Left@?$_Tree@V?$_Tmap_traits@V?$basic_string@DU?$char_traits@D@std@@V?$allocator@D@2@@std@@HU?$less@V?$basic_string@DU?$char_traits@D@std@@V?$allocator@D@2@@std@@@2@V?$allocator@U?$pair@$$CBV?$basic_string@DU?$char_traits@D@std@@V?$allocator@D@2@@std@@H@std@@@2@$0A@@std@@@std@@KAAAPAU_Node@?$_Tree_nod@V?$_Tmap_traits@V?$basic_string@DU?$char_traits@D@std@@V?$allocator@D@2@@std@@HU?$less@V?$basic_string@DU?$char_traits@D@std@@V?$allocator@D@2@@std@@@2@V?$allocator@U?$pair@$$CBV?$basic_string@DU?$char_traits@D@std@@V?$allocator@D@2@@std@@H@std@@@2@$0A@@std@@@2@PAU342@@Z 00406d10 f i texttoken.obj
 0001:00005d40       ?_Right@?$_Tree@V?$_Tmap_traits@V?$basic_string@DU?$char_traits@D@std@@V?$allocator@D@2@@std@@HU?$less@V?$basic_string@DU?$char_traits@D@std@@V?$allocator@D@2@@std@@@2@V?$allocator@U?$pair@$$CBV?$basic_string@DU?$char_traits@D@std@@V?$allocator@D@2@@std@@H@std@@@2@$0A@@std@@@std@@KAAAPAU_Node@?$_Tree_nod@V?$_Tmap_traits@V?$basic_string@DU?$char_traits@D@std@@V?$allocator@D@2@@std@@HU?$less@V?$basic_string@DU?$char_traits@D@std@@V?$allocator@D@2@@std@@@2@V?$allocator@U?$pair@$$CBV?$basic_string@DU?$char_traits@D@std@@V?$allocator@D@2@@std@@H@std@@@2@$0A@@std@@@2@PAU342@@Z 00406d40 f i texttoken.obj
 0001:00005d70       ?_Root@?$_Tree@V?$_Tmap_traits@V?$basic_string@DU?$char_traits@D@std@@V?$allocator@D@2@@std@@HU?$less@V?$basic_string@DU?$char_traits@D@std@@V?$allocator@D@2@@std@@@2@V?$allocator@U?$pair@$$CBV?$basic_string@DU?$char_traits@D@std@@V?$allocator@D@2@@std@@H@std@@@2@$0A@@std@@@std@@IBEAAPAU_Node@?$_Tree_nod@V?$_Tmap_traits@V?$basic_string@DU?$char_traits@D@std@@V?$allocator@D@2@@std@@HU?$less@V?$basic_string@DU?$char_traits@D@std@@V?$allocator@D@2@@std@@@2@V?$allocator@U?$pair@$$CBV?$basic_string@DU?$char_traits@D@std@@V?$allocator@D@2@@std@@H@std@@@2@$0A@@std@@@2@XZ 00406d70 f i texttoken.obj
 0001:00005dc0       ?max_size@?$allocator@U?$pair@V?$vector@HV?$allocator@H@std@@@std@@UGeneratedToken@text@@@std@@@std@@QBEIXZ 00406dc0 f i texttoken.obj
 0001:00005e20       ??Gconst_iterator@?$vector@HV?$allocator@H@std@@@std@@QBEHABV012@@Z 00406e20 f i texttoken.obj
 0001:00005e60       ??8const_iterator@?$vector@PAUToken@text@@V?$allocator@PAUToken@text@@@std@@@std@@QBE_NABV012@@Z 00406e60 f i texttoken.obj
 0001:00005ea0       ??Gconst_iterator@?$vector@U?$pair@V?$vector@HV?$allocator@H@std@@@std@@UGeneratedToken@text@@@std@@V?$allocator@U?$pair@V?$vector@HV?$allocator@H@std@@@std@@UGeneratedToken@text@@@std@@@2@@std@@QBEHABV012@@Z 00406ea0 f i texttoken.obj
 0001:00005ee0       ??Yiterator@?$vector@U?$pair@V?$vector@HV?$allocator@H@std@@@std@@UGeneratedToken@text@@@std@@V?$allocator@U?$pair@V?$vector@HV?$allocator@H@std@@@std@@UGeneratedToken@text@@@std@@@2@@std@@QAEAAV012@H@Z 00406ee0 f i texttoken.obj
 0001:00005f20       ?_Parent@?$_Tree@V?$_Tmap_traits@V?$basic_string@DU?$char_traits@D@std@@V?$allocator@D@2@@std@@HU?$less@V?$basic_string@DU?$char_traits@D@std@@V?$allocator@D@2@@std@@@2@V?$allocator@U?$pair@$$CBV?$basic_string@DU?$char_traits@D@std@@V?$allocator@D@2@@std@@H@std@@@2@$0A@@std@@@std@@KAAAPAU_Node@?$_Tree_nod@V?$_Tmap_traits@V?$basic_string@DU?$char_traits@D@std@@V?$allocator@D@2@@std@@HU?$less@V?$basic_string@DU?$char_traits@D@std@@V?$allocator@D@2@@std@@@2@V?$allocator@U?$pair@$$CBV?$basic_string@DU?$char_traits@D@std@@V?$allocator@D@2@@std@@H@std@@@2@$0A@@std@@@2@PAU342@@Z 00406f20 f i texttoken.obj
 0001:00005f50       ??$_Ucopy@Vconst_iterator@?$vector@HV?$allocator@H@std@@@std@@@?$vector@HV?$allocator@H@std@@@std@@IAEPAHVconst_iterator@01@0PAH@Z 00406f50 f i texttoken.obj
 0001:00005fb0       ??$_Ucopy@Vconst_iterator@?$vector@U?$pair@V?$vector@HV?$allocator@H@std@@@std@@UGeneratedToken@text@@@std@@V?$allocator@U?$pair@V?$vector@HV?$allocator@H@std@@@std@@UGeneratedToken@text@@@std@@@2@@std@@@?$vector@U?$pair@V?$vector@HV?$allocator@H@std@@@std@@UGeneratedToken@text@@@std@@V?$allocator@U?$pair@V?$vector@HV?$allocator@H@std@@@std@@UGeneratedToken@text@@@std@@@2@@std@@IAEPAU?$pair@V?$vector@HV?$allocator@H@std@@@std@@UGeneratedToken@text@@@1@Vconst_iterator@01@0PAU21@@Z 00406fb0 f i texttoken.obj
 0001:00006010       ??$_Ucopy@PAH@?$vector@HV?$allocator@H@std@@@std@@IAEPAHPAH00@Z 00407010 f i texttoken.obj
 0001:00006070       ??$_Destroy_range@HV?$allocator@H@std@@@std@@YAXPAH0AAV?$allocator@H@0@@Z 00407070 f i texttoken.obj
 0001:000060e0       ?_Ptr_cat@std@@YA?AU_Scalar_ptr_iterator_tag@1@PAH0@Z 004070e0 f i texttoken.obj
 0001:00006140       ??$_Uninitialized_fill_n@PAHIHV?$allocator@H@std@@@std@@YAXPAHIABHAAV?$allocator@H@0@@Z 00407140 f i texttoken.obj
 0001:000061b0       ??$_Allocate@H@std@@YAPAHIPAH@Z 004071b0 f i texttoken.obj
 0001:00006200       ??$?MDU?$char_traits@D@std@@V?$allocator@D@1@@std@@YA_NABV?$basic_string@DU?$char_traits@D@std@@V?$allocator@D@2@@0@0@Z 00407200 f i texttoken.obj
 0001:00006250       ??$copy@PAPAUToken@text@@PAPAU12@@std@@YAPAPAUToken@text@@PAPAU12@00@Z 00407250 f i texttoken.obj
 0001:000062c0       ??$_Ucopy@PAPAUToken@text@@@?$vector@PAUToken@text@@V?$allocator@PAUToken@text@@@std@@@std@@IAEPAPAUToken@text@@PAPAU23@00@Z 004072c0 f i texttoken.obj
 0001:00006320       ??$_Destroy_range@PAUToken@text@@V?$allocator@PAUToken@text@@@std@@@std@@YAXPAPAUToken@text@@0AAV?$allocator@PAUToken@text@@@0@@Z 00407320 f i texttoken.obj
 0001:00006390       ??$fill@PAPAUToken@text@@PAU12@@std@@YAXPAPAUToken@text@@0ABQAU12@@Z 00407390 f i texttoken.obj
 0001:000063e0       ??$copy_backward@PAPAUToken@text@@PAPAU12@@std@@YAPAPAUToken@text@@PAPAU12@00@Z 004073e0 f i texttoken.obj
 0001:00006450       ??$_Uninitialized_fill_n@PAPAUToken@text@@IPAU12@V?$allocator@PAUToken@text@@@std@@@std@@YAXPAPAUToken@text@@IABQAU12@AAV?$allocator@PAUToken@text@@@0@@Z 00407450 f i texttoken.obj
 0001:000064c0       ??$_Allocate@PAUToken@text@@@std@@YAPAPAUToken@text@@IPAPAU12@@Z 004074c0 f i texttoken.obj
 0001:00006510       ??$_Uninitialized_fill_n@PAU?$pair@V?$vector@HV?$allocator@H@std@@@std@@UGeneratedToken@text@@@std@@IU12@V?$allocator@U?$pair@V?$vector@HV?$allocator@H@std@@@std@@UGeneratedToken@text@@@std@@@2@@std@@YAXPAU?$pair@V?$vector@HV?$allocator@H@std@@@std@@UGeneratedToken@text@@@0@IABU10@AAV?$allocator@U?$pair@V?$vector@HV?$allocator@H@std@@@std@@UGeneratedToken@text@@@std@@@0@@Z 00407510 f i texttoken.obj
 0001:00006580       ??$fill@PAHH@std@@YAXPAH0ABH@Z 00407580 f i texttoken.obj
 0001:000065d0       ??$copy_backward@PAHPAH@std@@YAPAHPAH00@Z 004075d0 f i texttoken.obj
 0001:00006640       ??$_Destroy_range@U?$pair@V?$vector@HV?$allocator@H@std@@@std@@UGeneratedToken@text@@@std@@V?$allocator@U?$pair@V?$vector@HV?$allocator@H@std@@@std@@UGeneratedToken@text@@@std@@@2@@std@@YAXPAU?$pair@V?$vector@HV?$allocator@H@std@@@std@@UGeneratedToken@text@@@0@0AAV?$allocator@U?$pair@V?$vector@HV?$allocator@H@std@@@std@@UGeneratedToken@text@@@std@@@0@@Z 00407640 f i texttoken.obj
 0001:000066b0       ??$_Ucopy@PAU?$pair@V?$vector@HV?$allocator@H@std@@@std@@UGeneratedToken@text@@@std@@@?$vector@U?$pair@V?$vector@HV?$allocator@H@std@@@std@@UGeneratedToken@text@@@std@@V?$allocator@U?$pair@V?$vector@HV?$allocator@H@std@@@std@@UGeneratedToken@text@@@std@@@2@@std@@IAEPAU?$pair@V?$vector@HV?$allocator@H@std@@@std@@UGeneratedToken@text@@@1@PAU21@00@Z 004076b0 f i texttoken.obj
 0001:00006710       ??$fill@PAU?$pair@V?$vector@HV?$allocator@H@std@@@std@@UGeneratedToken@text@@@std@@U12@@std@@YAXPAU?$pair@V?$vector@HV?$allocator@H@std@@@std@@UGeneratedToken@text@@@0@0ABU10@@Z 00407710 f i texttoken.obj
 0001:00006770       ??$copy_backward@PAU?$pair@V?$vector@HV?$allocator@H@std@@@std@@UGeneratedToken@text@@@std@@PAU12@@std@@YAPAU?$pair@V?$vector@HV?$allocator@H@std@@@std@@UGeneratedToken@text@@@0@PAU10@00@Z 00407770 f i texttoken.obj
 0001:000067e0       ??$_Allocate@U?$pair@V?$vector@HV?$allocator@H@std@@@std@@UGeneratedToken@text@@@std@@@std@@YAPAU?$pair@V?$vector@HV?$allocator@H@std@@@std@@UGeneratedToken@text@@@0@IPAU10@@Z 004077e0 f i texttoken.obj
 0001:00006830       ??$_Allocate@D@std@@YAPADIPAD@Z 00407830 f i texttoken.obj
 0001:00006870       ??4?$pair@V?$vector@HV?$allocator@H@std@@@std@@UGeneratedToken@text@@@std@@QAEAAU01@ABU01@@Z 00407870 f i texttoken.obj
 0001:000068d0       ??4?$vector@HV?$allocator@H@std@@@std@@QAEAAV01@ABV01@@Z 004078d0 f i texttoken.obj
 0001:00006a80       ??$copy@PAHPAH@std@@YAPAHPAH00@Z 00407a80 f i texttoken.obj
 0001:00006af0       ??4GeneratedToken@text@@QAEAAU01@ABU01@@Z 00407af0 f i texttoken.obj
 0001:00006b60       ??4TokenSequence@text@@QAEAAV01@ABV01@@Z 00407b60 f i texttoken.obj
 0001:00006c70       ?size@TokenSequence@text@@QBEIXZ 00407c70 f i texttoken.obj
 0001:00006cb0       ??4Token@text@@QAEAAU01@ABU01@@Z 00407cb0 f i texttoken.obj
 0001:00006ce0       ?compare@?$basic_string@DU?$char_traits@D@std@@V?$allocator@D@2@@std@@QBEHABV12@@Z 00407ce0 f i texttoken.obj
 0001:00006d40       ?compare@?$basic_string@DU?$char_traits@D@std@@V?$allocator@D@2@@std@@QBEHIIPBDI@Z 00407d40 f i texttoken.obj
 0001:00006e50       ?compare@?$char_traits@D@std@@SAHPBD0I@Z 00407e50 f i texttoken.obj
 0001:00006ea0       ??$_Uninitialized_copy@Vconst_iterator@?$vector@HV?$allocator@H@std@@@std@@PAHV?$allocator@H@3@@std@@YAPAHVconst_iterator@?$vector@HV?$allocator@H@std@@@0@0PAHAAV?$allocator@H@0@@Z 00407ea0 f i texttoken.obj
 0001:00006f10       ??$_Uninitialized_copy@Vconst_iterator@?$vector@U?$pair@V?$vector@HV?$allocator@H@std@@@std@@UGeneratedToken@text@@@std@@V?$allocator@U?$pair@V?$vector@HV?$allocator@H@std@@@std@@UGeneratedToken@text@@@std@@@2@@std@@PAU?$pair@V?$vector@HV?$allocator@H@std@@@std@@UGeneratedToken@text@@@3@V?$allocator@U?$pair@V?$vector@HV?$allocator@H@std@@@std@@UGeneratedToken@text@@@std@@@3@@std@@YAPAU?$pair@V?$vector@HV?$allocator@H@std@@@std@@UGeneratedToken@text@@@0@Vconst_iterator@?$vector@U?$pair@V?$vector@HV?$allocator@H@std@@@std@@UGeneratedToken@text@@@std@@V?$allocator@U?$pair@V?$vector@HV?$allocator@H@std@@@std@@UGeneratedToken@text@@@std@@@2@@0@0PAU10@AAV?$allocator@U?$pair@V?$vector@HV?$allocator@H@std@@@std@@UGeneratedToken@text@@@std@@@0@@Z 00407f10 f i texttoken.obj
 0001:00006f80       ??$_Copy_opt@PAHPAH@std@@YAPAHPAH00U_Scalar_ptr_iterator_tag@0@@Z 00407f80 f i texttoken.obj
 0001:00006fe0       ??$_Uninitialized_copy@PAHPAHV?$allocator@H@std@@@std@@YAPAHPAH00AAV?$allocator@H@0@@Z 00407fe0 f i texttoken.obj
 0001:00007050       ??$_Destroy_range@HV?$allocator@H@std@@@std@@YAXPAH0AAV?$allocator@H@0@U_Scalar_ptr_iterator_tag@0@@Z 00408050 f i texttoken.obj
 0001:00007080       ??$_Uninit_fill_n@HIH@std@@YAXPAHIABHAAV?$allocator@H@0@U_Scalar_ptr_iterator_tag@0@@Z 00408080 f i texttoken.obj
 0001:000070d0       ??$_Ptr_cat@UToken@text@@@std@@YA?AU_Scalar_ptr_iterator_tag@0@PAPAUToken@text@@0@Z 004080d0 f i texttoken.obj
 0001:00007130       ??$_Copy_opt@PAPAUToken@text@@PAPAU12@@std@@YAPAPAUToken@text@@PAPAU12@00U_Scalar_ptr_iterator_tag@0@@Z 00408130 f i texttoken.obj
 0001:00007190       ??$_Uninitialized_copy@PAPAUToken@text@@PAPAU12@V?$allocator@PAUToken@text@@@std@@@std@@YAPAPAUToken@text@@PAPAU12@00AAV?$allocator@PAUToken@text@@@0@@Z 00408190 f i texttoken.obj
 0001:00007200       ??$_Destroy_range@PAUToken@text@@V?$allocator@PAUToken@text@@@std@@@std@@YAXPAPAUToken@text@@0AAV?$allocator@PAUToken@text@@@0@U_Scalar_ptr_iterator_tag@0@@Z 00408200 f i texttoken.obj
 0001:00007230       ??$_Copy_backward_opt@PAPAUToken@text@@PAPAU12@@std@@YAPAPAUToken@text@@PAPAU12@00U_Scalar_ptr_iterator_tag@0@@Z 00408230 f i texttoken.obj
 0001:00007290       ??$_Uninit_fill_n@PAUToken@text@@IPAU12@@std@@YAXPAPAUToken@text@@IABQAU12@AAV?$allocator@PAUToken@text@@@0@U_Scalar_ptr_iterator_tag@0@@Z 00408290 f i texttoken.obj
 0001:000072e0       ??$_Ptr_cat@PAU?$pair@V?$vector@HV?$allocator@H@std@@@std@@UGeneratedToken@text@@@std@@PAU12@@std@@YA?AU_Nonscalar_ptr_iterator_tag@0@AAPAU?$pair@V?$vector@HV?$allocator@H@std@@@std@@UGeneratedToken@text@@@0@0@Z 004082e0 f i texttoken.obj
 0001:00007340       ??$_Uninit_fill_n@PAU?$pair@V?$vector@HV?$allocator@H@std@@@std@@UGeneratedToken@text@@@std@@IU12@V?$allocator@U?$pair@V?$vector@HV?$allocator@H@std@@@std@@UGeneratedToken@text@@@std@@@2@@std@@YAXPAU?$pair@V?$vector@HV?$allocator@H@std@@@std@@UGeneratedToken@text@@@0@IABU10@AAV?$allocator@U?$pair@V?$vector@HV?$allocator@H@std@@@std@@UGeneratedToken@text@@@std@@@0@U_Nonscalar_ptr_iterator_tag@0@@Z 00408340 f i texttoken.obj
 0001:00007410       ??$_Copy_backward_opt@PAHPAH@std@@YAPAHPAH00U_Scalar_ptr_iterator_tag@0@@Z 00408410 f i texttoken.obj
 0001:00007470       ??$_Destroy_range@U?$pair@V?$vector@HV?$allocator@H@std@@@std@@UGeneratedToken@text@@@std@@V?$allocator@U?$pair@V?$vector@HV?$allocator@H@std@@@std@@UGeneratedToken@text@@@std@@@2@@std@@YAXPAU?$pair@V?$vector@HV?$allocator@H@std@@@std@@UGeneratedToken@text@@@0@0AAV?$allocator@U?$pair@V?$vector@HV?$allocator@H@std@@@std@@UGeneratedToken@text@@@std@@@0@U_Nonscalar_ptr_iterator_tag@0@@Z 00408470 f i texttoken.obj
 0001:000074d0       ??$_Uninitialized_copy@PAU?$pair@V?$vector@HV?$allocator@H@std@@@std@@UGeneratedToken@text@@@std@@PAU12@V?$allocator@U?$pair@V?$vector@HV?$allocator@H@std@@@std@@UGeneratedToken@text@@@std@@@2@@std@@YAPAU?$pair@V?$vector@HV?$allocator@H@std@@@std@@UGeneratedToken@text@@@0@PAU10@00AAV?$allocator@U?$pair@V?$vector@HV?$allocator@H@std@@@std@@UGeneratedToken@text@@@std@@@0@@Z 004084d0 f i texttoken.obj
 0001:00007540       ??$_Copy_backward_opt@PAU?$pair@V?$vector@HV?$allocator@H@std@@@std@@UGeneratedToken@text@@@std@@PAU12@@std@@YAPAU?$pair@V?$vector@HV?$allocator@H@std@@@std@@UGeneratedToken@text@@@0@PAU10@00U_Nonscalar_ptr_iterator_tag@0@@Z 00408540 f i texttoken.obj
 0001:000075a0       ?construct@?$allocator@U?$pair@V?$vector@HV?$allocator@H@std@@@std@@UGeneratedToken@text@@@std@@@std@@QAEXPAU?$pair@V?$vector@HV?$allocator@H@std@@@std@@UGeneratedToken@text@@@2@ABU32@@Z 004085a0 f i texttoken.obj
 0001:000075f0       ?destroy@?$allocator@U?$pair@V?$vector@HV?$allocator@H@std@@@std@@UGeneratedToken@text@@@std@@@std@@QAEXPAU?$pair@V?$vector@HV?$allocator@H@std@@@std@@UGeneratedToken@text@@@2@@Z 004085f0 f i texttoken.obj
 0001:00007640       ??$_Ptr_cat@Vconst_iterator@?$vector@HV?$allocator@H@std@@@std@@PAH@std@@YA?AU_Nonscalar_ptr_iterator_tag@0@AAVconst_iterator@?$vector@HV?$allocator@H@std@@@0@AAPAH@Z 00408640 f i texttoken.obj
 0001:000076a0       ??$_Uninit_copy@Vconst_iterator@?$vector@HV?$allocator@H@std@@@std@@PAHV?$allocator@H@3@@std@@YAPAHVconst_iterator@?$vector@HV?$allocator@H@std@@@0@0PAHAAV?$allocator@H@0@U_Nonscalar_ptr_iterator_tag@0@@Z 004086a0 f i texttoken.obj
 0001:00007790       ??Dconst_iterator@?$vector@HV?$allocator@H@std@@@std@@QBEABHXZ 00408790 f i texttoken.obj
 0001:000077c0       ??9const_iterator@?$vector@HV?$allocator@H@std@@@std@@QBE_NABV012@@Z 004087c0 f i texttoken.obj
 0001:00007810       ??8const_iterator@?$vector@HV?$allocator@H@std@@@std@@QBE_NABV012@@Z 00408810 f i texttoken.obj
 0001:00007850       ??$_Ptr_cat@Vconst_iterator@?$vector@U?$pair@V?$vector@HV?$allocator@H@std@@@std@@UGeneratedToken@text@@@std@@V?$allocator@U?$pair@V?$vector@HV?$allocator@H@std@@@std@@UGeneratedToken@text@@@std@@@2@@std@@PAU?$pair@V?$vector@HV?$allocator@H@std@@@std@@UGeneratedToken@text@@@3@@std@@YA?AU_Nonscalar_ptr_iterator_tag@0@AAVconst_iterator@?$vector@U?$pair@V?$vector@HV?$allocator@H@std@@@std@@UGeneratedToken@text@@@std@@V?$allocator@U?$pair@V?$vector@HV?$allocator@H@std@@@std@@UGeneratedToken@text@@@std@@@2@@0@AAPAU?$pair@V?$vector@HV?$allocator@H@std@@@std@@UGeneratedToken@text@@@0@@Z 00408850 f i texttoken.obj
 0001:000078b0       ??$_Uninit_copy@Vconst_iterator@?$vector@U?$pair@V?$vector@HV?$allocator@H@std@@@std@@UGeneratedToken@text@@@std@@V?$allocator@U?$pair@V?$vector@HV?$allocator@H@std@@@std@@UGeneratedToken@text@@@std@@@2@@std@@PAU?$pair@V?$vector@HV?$allocator@H@std@@@std@@UGeneratedToken@text@@@3@V?$allocator@U?$pair@V?$vector@HV?$allocator@H@std@@@std@@UGeneratedToken@text@@@std@@@3@@std@@YAPAU?$pair@V?$vector@HV?$allocator@H@std@@@std@@UGeneratedToken@text@@@0@Vconst_iterator@?$vector@U?$pair@V?$vector@HV?$allocator@H@std@@@std@@UGeneratedToken@text@@@std@@V?$allocator@U?$pair@V?$vector@HV?$allocator@H@std@@@std@@UGeneratedToken@text@@@std@@@2@@0@0PAU10@AAV?$allocator@U?$pair@V?$vector@HV?$allocator@H@std@@@std@@UGeneratedToken@text@@@std@@@0@U_Nonscalar_ptr_iterator_tag@0@@Z 004088b0 f i texttoken.obj
 0001:000079a0       ??Dconst_iterator@?$vector@U?$pair@V?$vector@HV?$allocator@H@std@@@std@@UGeneratedToken@text@@@std@@V?$allocator@U?$pair@V?$vector@HV?$allocator@H@std@@@std@@UGeneratedToken@text@@@std@@@2@@std@@QBEABU?$pair@V?$vector@HV?$allocator@H@std@@@std@@UGeneratedToken@text@@@2@XZ 004089a0 f i texttoken.obj
 0001:000079d0       ??$_Uninit_copy@HH@std@@YAPAHPAH00AAV?$allocator@H@0@U_Scalar_ptr_iterator_tag@0@@Z 004089d0 f i texttoken.obj
 0001:00007a30       ??$fill_n@PAHIH@std@@YAXPAHIABH@Z 00408a30 f i texttoken.obj
 0001:00007a80       ??$_Uninit_copy@PAUToken@text@@PAU12@@std@@YAPAPAUToken@text@@PAPAU12@00AAV?$allocator@PAUToken@text@@@0@U_Scalar_ptr_iterator_tag@0@@Z 00408a80 f i texttoken.obj
 0001:00007ae0       ??$fill_n@PAPAUToken@text@@IPAU12@@std@@YAXPAPAUToken@text@@IABQAU12@@Z 00408ae0 f i texttoken.obj
 0001:00007b30       ??$_Uninit_copy@PAU?$pair@V?$vector@HV?$allocator@H@std@@@std@@UGeneratedToken@text@@@std@@PAU12@V?$allocator@U?$pair@V?$vector@HV?$allocator@H@std@@@std@@UGeneratedToken@text@@@std@@@2@@std@@YAPAU?$pair@V?$vector@HV?$allocator@H@std@@@std@@UGeneratedToken@text@@@0@PAU10@00AAV?$allocator@U?$pair@V?$vector@HV?$allocator@H@std@@@std@@UGeneratedToken@text@@@std@@@0@U_Nonscalar_ptr_iterator_tag@0@@Z 00408b30 f i texttoken.obj
 0001:00007c00       ??$_Construct@U?$pair@V?$vector@HV?$allocator@H@std@@@std@@UGeneratedToken@text@@@std@@U12@@std@@YAXPAU?$pair@V?$vector@HV?$allocator@H@std@@@std@@UGeneratedToken@text@@@0@ABU10@@Z 00408c00 f i texttoken.obj
 0001:00007cb0       ??2@YAPAXIPAX@Z            00408cb0 f i texttoken.obj
 0001:00007ce0       ??3@YAXPAX0@Z              00408ce0 f i texttoken.obj
 0001:00007d10       ??$_Destroy@U?$pair@V?$vector@HV?$allocator@H@std@@@std@@UGeneratedToken@text@@@std@@@std@@YAXPAU?$pair@V?$vector@HV?$allocator@H@std@@@std@@UGeneratedToken@text@@@0@@Z 00408d10 f i texttoken.obj
 0001:00007d50       ??_G?$pair@V?$vector@HV?$allocator@H@std@@@std@@UGeneratedToken@text@@@std@@QAEPAXI@Z 00408d50 f i texttoken.obj
 0001:00007db0       ?construct@?$allocator@H@std@@QAEXPAHABH@Z 00408db0 f i texttoken.obj
 0001:00007e00       ?destroy@?$allocator@H@std@@QAEXPAH@Z 00408e00 f i texttoken.obj
 0001:00007e50       ??Econst_iterator@?$vector@HV?$allocator@H@std@@@std@@QAEAAV012@XZ 00408e50 f i texttoken.obj
 0001:00007e90       ??Econst_iterator@?$vector@U?$pair@V?$vector@HV?$allocator@H@std@@@std@@UGeneratedToken@text@@@std@@V?$allocator@U?$pair@V?$vector@HV?$allocator@H@std@@@std@@UGeneratedToken@text@@@std@@@2@@std@@QAEAAV012@XZ 00408e90 f i texttoken.obj
 0001:00007ed0       ??9const_iterator@?$vector@U?$pair@V?$vector@HV?$allocator@H@std@@@std@@UGeneratedToken@text@@@std@@V?$allocator@U?$pair@V?$vector@HV?$allocator@H@std@@@std@@UGeneratedToken@text@@@std@@@2@@std@@QBE_NABV012@@Z 00408ed0 f i texttoken.obj
 0001:00007f20       ??8const_iterator@?$vector@U?$pair@V?$vector@HV?$allocator@H@std@@@std@@UGeneratedToken@text@@@std@@V?$allocator@U?$pair@V?$vector@HV?$allocator@H@std@@@std@@UGeneratedToken@text@@@std@@@2@@std@@QBE_NABV012@@Z 00408f20 f i texttoken.obj
 0001:00007f60       ??$_Construct@HH@std@@YAXPAHABH@Z 00408f60 f i texttoken.obj
 0001:00007fe0       ??$_Destroy@H@std@@YAXPAH@Z 00408fe0 f i texttoken.obj
 0001:00008010       ?makePool@PooledRawCharToken@text@@SAPAU12@XZ 00409010 f i texttoken.obj
 0001:00008120       ??0PooledRawCharToken@text@@QAE@XZ 00409120 f i texttoken.obj
 0001:00008170       ?dup@PooledRawCharToken@text@@UBEPAUToken@2@XZ 00409170 f i texttoken.obj
 0001:000081a0       ?dispose@PooledRawCharToken@text@@UAEXXZ 004091a0 f i texttoken.obj
 0001:000081d0       ?openCompressedFileForWrite@@YAPAXABV?$basic_string@DU?$char_traits@D@std@@V?$allocator@D@2@@std@@@Z 004091d0 f   torq.obj
 0001:00008300       ?get_raw_lines@@YA_NABV?$basic_string@DU?$char_traits@D@std@@V?$allocator@D@2@@std@@PAV?$vector@V?$basic_string@DU?$char_traits@D@std@@V?$allocator@D@2@@std@@V?$allocator@V?$basic_string@DU?$char_traits@D@std@@V?$allocator@D@2@@std@@@2@@2@@Z 00409300 f   torq.obj
 0001:000086d0       ??_D?$basic_ifstream@DU?$char_traits@D@std@@@std@@QAEXXZ 004096d0 f i torq.obj
 0001:00008720       ?posToRowCol@@YA?AU?$pair@JJ@std@@ABV?$vector@HV?$allocator@H@std@@@2@J@Z 00409720 f   torq.obj
 0001:00008860       ?read@@YA_NPAV?$vector@HV?$allocator@H@std@@@std@@ABV?$basic_string@DU?$char_traits@D@std@@V?$allocator@D@2@@2@@Z 00409860 f   torq.obj
 0001:00008ac0       ?check_special_chars@@YA_NABV?$vector@HV?$allocator@H@std@@@std@@@Z 00409ac0 f   torq.obj
 0001:00008c00       ?scan_option_node_format@@YA_NABV?$vector@HV?$allocator@H@std@@@std@@IIPAV12@PAUNodeFormat@Helper@text@@@Z 00409c00 f   torq.obj
 0001:00009250       ?encode@EscapeSequenceHelper@common@@SA?AV?$basic_string@DU?$char_traits@D@std@@V?$allocator@D@2@@std@@ABV?$vector@HV?$allocator@H@std@@@4@_N@Z 0040a250 f i torq.obj
 0001:000092c0       ?encode@EscapeSequenceHelper@common@@SA?AV?$basic_string@DU?$char_traits@D@std@@V?$allocator@D@2@@std@@ABV?$vector@HV?$allocator@H@std@@@4@JJ_N@Z 0040a2c0 f i torq.obj
 0001:000095e0       ??1?$basic_format@DU?$char_traits@D@std@@V?$allocator@D@2@@boost@@QAE@XZ 0040a5e0 f i torq.obj
 0001:00009690       ??0NodeFormat@Helper@text@@QAE@XZ 0040a690 f i torq.obj
 0001:00009720       ?swap@NodeFormat@Helper@text@@QAEXAAU123@@Z 0040a720 f i torq.obj
 0001:00009790       ??1NodeFormat@Helper@text@@QAE@XZ 0040a790 f i torq.obj
 0001:00009810       ?scan_option_node_format@@YA_NABV?$basic_string@DU?$char_traits@D@std@@V?$allocator@D@2@@std@@PAV?$vector@HV?$allocator@H@std@@@2@PAUNodeFormat@Helper@text@@@Z 0040a810 f   torq.obj
 0001:000098f0       ?print_result_cng@@YAXPAV?$basic_ostream@DU?$char_traits@D@std@@@std@@ABV?$map@V?$vector@HV?$allocator@H@std@@@std@@UNodeFormat@Helper@text@@U?$less@V?$vector@HV?$allocator@H@std@@@std@@@2@V?$allocator@U?$pair@$$CBV?$vector@HV?$allocator@H@std@@@std@@UNodeFormat@Helper@text@@@std@@@2@@2@ABV?$vector@V?$vector@HV?$allocator@H@std@@@std@@V?$allocator@V?$vector@HV?$allocator@H@std@@@std@@@2@@2@ABVTokenSequence@text@@@Z 0040a8f0 f   torq.obj
 0001:00009b00       ??0NodeFormat@Helper@text@@QAE@W4NF_NODETYPE@12@ABV?$vector@HV?$allocator@H@std@@@std@@1@Z 0040ab00 f i torq.obj
 0001:00009b90       ?printCng@Helper@text@@SAXPAV?$basic_ostream@DU?$char_traits@D@std@@@std@@ABVTokenSequence@2@ABV?$hash_map@JUNodeFormat@Helper@text@@V?$hash_compare@JU?$less@J@std@@@stdext@@V?$allocator@U?$pair@$$CBJUNodeFormat@Helper@text@@@std@@@std@@@stdext@@@Z 0040ab90 f i torq.obj
 0001:00009e90       ??0NodeFormatI@Helper@text@@QAE@W4NF_NODETYPE@12@ABV?$basic_string@DU?$char_traits@D@std@@V?$allocator@D@2@@std@@1@Z 0040ae90 f i torq.obj
 0001:00009f20       ?swap@NodeFormatI@Helper@text@@QAEXAAU123@@Z 0040af20 f i torq.obj
 0001:00009f90       ?printCng_i@Helper@text@@CAXPAV?$basic_ostream@DU?$char_traits@D@std@@@std@@PAU?$pair@II@4@PAIABVTokenSequence@2@ABV?$vector@U?$pair@_NUNodeFormatI@Helper@text@@@std@@V?$allocator@U?$pair@_NUNodeFormatI@Helper@text@@@std@@@2@@4@@Z 0040af90 f i torq.obj
 0001:0000ab50       ?endl@std@@YAAAV?$basic_ostream@DU?$char_traits@D@std@@@1@AAV21@@Z 0040bb50 f i torq.obj
 0001:0000aba0       ?encode@EscapeSequenceHelper@common@@SA?AV?$basic_string@DU?$char_traits@D@std@@V?$allocator@D@2@@std@@H_N@Z 0040bba0 f i torq.obj
 0001:0000ae30       ?refAt@TokenSequence@text@@QBEPAUToken@2@I@Z 0040be30 f i torq.obj
 0001:0000aea0       ?getCode@GeneratedToken@text@@QBEJXZ 0040bea0 f i torq.obj
 0001:0000aed0       ?print_i_silent@Helper@text@@CAXPAU?$pair@II@std@@PAIABVTokenSequence@2@@Z 0040bed0 f i torq.obj
 0001:0000b0c0       ?printCng_i_leaftext@Helper@text@@CAXPAV?$basic_ostream@DU?$char_traits@D@std@@@std@@ABVTokenSequence@2@@Z 0040c0c0 f i torq.obj
 0001:0000b320       ??1NodeFormatI@Helper@text@@QAE@XZ 0040c320 f i torq.obj
 0001:0000b3a0       ??1?$hash_map@JUNodeFormat@Helper@text@@V?$hash_compare@JU?$less@J@std@@@stdext@@V?$allocator@U?$pair@$$CBJUNodeFormat@Helper@text@@@std@@@std@@@stdext@@QAE@XZ 0040c3a0 f i torq.obj
 0001:0000b3e0       ??4NodeFormat@Helper@text@@QAEAAU012@ABU012@@Z 0040c3e0 f i torq.obj
 0001:0000b450       ?print_result_xml@@YAXPAV?$basic_ostream@DU?$char_traits@D@std@@@std@@KABV?$map@V?$vector@HV?$allocator@H@std@@@std@@UNodeFormat@Helper@text@@U?$less@V?$vector@HV?$allocator@H@std@@@std@@@2@V?$allocator@U?$pair@$$CBV?$vector@HV?$allocator@H@std@@@std@@UNodeFormat@Helper@text@@@std@@@2@@2@ABV?$vector@V?$vector@HV?$allocator@H@std@@@std@@V?$allocator@V?$vector@HV?$allocator@H@std@@@std@@@2@@2@ABVTokenSequence@text@@@Z 0040c450 f   torq.obj
 0001:0000b540       ?printXml@Helper@text@@SAXPAV?$basic_ostream@DU?$char_traits@D@std@@@std@@ABVTokenSequence@2@ABV?$vector@HV?$allocator@H@std@@@4@KABV?$vector@V?$vector@HV?$allocator@H@std@@@std@@V?$allocator@V?$vector@HV?$allocator@H@std@@@std@@@2@@4@@Z 0040c540 f i torq.obj
 0001:0000b740       ?printXml_i@Helper@text@@CAXABVTokenSequence@2@ABUPrintDataXml@12@@Z 0040c740 f i torq.obj
 0001:0000bcf0       ??0PrintDataXml@Helper@text@@QAE@XZ 0040ccf0 f i torq.obj
 0001:0000bd40       ??1PrintDataXml@Helper@text@@QAE@XZ 0040cd40 f i torq.obj
 0001:0000bd90       ?replace@@YA?AV?$vector@HV?$allocator@H@std@@@std@@ABV12@00@Z 0040cd90 f   torq.obj
 0001:0000bfa0       ?staticExpandSpecials@@YA?AV?$vector@HV?$allocator@H@std@@@std@@ABV12@@Z 0040cfa0 f   torq.obj
 0001:0000c1b0       ?print_result@@YAXPAV?$basic_ostream@DU?$char_traits@D@std@@@std@@KABV?$map@V?$vector@HV?$allocator@H@std@@@std@@UNodeFormat@Helper@text@@U?$less@V?$vector@HV?$allocator@H@std@@@std@@@2@V?$allocator@U?$pair@$$CBV?$vector@HV?$allocator@H@std@@@std@@UNodeFormat@Helper@text@@@std@@@2@@2@ABV?$vector@V?$vector@HV?$allocator@H@std@@@std@@V?$allocator@V?$vector@HV?$allocator@H@std@@@std@@@2@@2@PBVEncoder@common@@3ABVTokenSequence@text@@@Z 0040d1b0 f   torq.obj
 0001:0000ce70       ?print@Helper@text@@SAXPAV?$basic_ostream@DU?$char_traits@D@std@@@std@@ABVTokenSequence@2@ABUNodeFormat@12@ABV?$vector@HV?$allocator@H@std@@@4@KABV?$hash_map@JUNodeFormat@Helper@text@@V?$hash_compare@JU?$less@J@std@@@stdext@@V?$allocator@U?$pair@$$CBJUNodeFormat@Helper@text@@@std@@@std@@@stdext@@PBVEncoder@common@@5@Z 0040de70 f i torq.obj
 0001:0000d4d0       ?print_i@Helper@text@@CAXPAU?$pair@II@std@@PAIABVTokenSequence@2@ABUPrintData@12@@Z 0040e4d0 f i torq.obj
 0001:0000e030       ?write@Helper@text@@CAXPAV?$basic_ostream@DU?$char_traits@D@std@@@std@@ABV?$basic_string@DU?$char_traits@D@std@@V?$allocator@D@2@@4@@Z 0040f030 f i torq.obj
 0001:0000e080       ?expandSpecials@Helper@text@@CA?AV?$basic_string@DU?$char_traits@D@std@@V?$allocator@D@2@@std@@ABV34@ABU?$pair@II@4@I@Z 0040f080 f i torq.obj
 0001:0000e540       ?print_i_leaftext@Helper@text@@CAXPAU?$pair@II@std@@PAIABVTokenSequence@2@ABUPrintData@12@@Z 0040f540 f i torq.obj
 0001:0000e860       ??0PrintData@Helper@text@@QAE@XZ 0040f860 f i torq.obj
 0001:0000e900       ??0NodeFormatI@Helper@text@@QAE@XZ 0040f900 f i torq.obj
 0001:0000e990       ??1PrintData@Helper@text@@QAE@XZ 0040f990 f i torq.obj
 0001:0000ea30       ??0HTMLEncoder@common@@QAE@XZ 0040fa30 f i torq.obj
 0001:0000ea80       ?encode@HTMLEncoder@common@@UBE?AV?$basic_string@DU?$char_traits@D@std@@V?$allocator@D@2@@std@@H@Z 0040fa80 f i torq.obj
 0001:0000eaf0       ?encode@HTMLEncoder@common@@UBE?AV?$basic_string@DU?$char_traits@D@std@@V?$allocator@D@2@@std@@ABV?$vector@HV?$allocator@H@std@@@4@JJ@Z 0040faf0 f i torq.obj
 0001:0000eb60       ?encode@HTMLEncoder@common@@UBE?AV?$basic_string@DU?$char_traits@D@std@@V?$allocator@D@2@@std@@ABV?$vector@HV?$allocator@H@std@@@4@@Z 0040fb60 f i torq.obj
 0001:0000ebd0       ??0UTF8NEncoder@common@@QAE@XZ 0040fbd0 f i torq.obj
 0001:0000ec20       ?encode@UTF8NEncoder@common@@UBE?AV?$basic_string@DU?$char_traits@D@std@@V?$allocator@D@2@@std@@H@Z 0040fc20 f i torq.obj
 0001:0000ec90       ?encode@UTF8NEncoder@common@@UBE?AV?$basic_string@DU?$char_traits@D@std@@V?$allocator@D@2@@std@@ABV?$vector@HV?$allocator@H@std@@@4@JJ@Z 0040fc90 f i torq.obj
 0001:0000ed10       ?encode@UTF8NEncoder@common@@UBE?AV?$basic_string@DU?$char_traits@D@std@@V?$allocator@D@2@@std@@ABV?$vector@HV?$allocator@H@std@@@4@@Z 0040fd10 f i torq.obj
 0001:0000ed90       ??_EHTMLEncoder@common@@UAEPAXI@Z 0040fd90 f i torq.obj
 0001:0000ed90       ??_GHTMLEncoder@common@@UAEPAXI@Z 0040fd90 f i torq.obj
 0001:0000edf0       ??0Encoder@common@@QAE@XZ  0040fdf0 f i torq.obj
 0001:0000ee30       ??_GEncoder@common@@UAEPAXI@Z 0040fe30 f i torq.obj
 0001:0000ee30       ??_EEncoder@common@@UAEPAXI@Z 0040fe30 f i torq.obj
 0001:0000ee90       ??1Encoder@common@@UAE@XZ  0040fe90 f i torq.obj
 0001:0000eed0       ??_GUTF8NEncoder@common@@UAEPAXI@Z 0040fed0 f i torq.obj
 0001:0000eed0       ??_EUTF8NEncoder@common@@UAEPAXI@Z 0040fed0 f i torq.obj
 0001:0000ef30       ??1HTMLEncoder@common@@UAE@XZ 0040ff30 f i torq.obj
 0001:0000ef70       ??1UTF8NEncoder@common@@UAE@XZ 0040ff70 f i torq.obj
 0001:0000efb0       ?debug_print_trace@@YAHABV?$vector@UTRACE_ITEM@@V?$allocator@UTRACE_ITEM@@@std@@@std@@ABVTorqTokenizer@@@Z 0040ffb0 f   torq.obj
 0001:0000f570       ?getTokenString@TorqTokenizer@@QBE?AV?$vector@HV?$allocator@H@std@@@std@@ABUTOKEN@@@Z 00410570 f i torq.obj
 0001:0000f6e0       ?toString@NodeClassificationHelper@@SA?AV?$basic_string@DU?$char_traits@D@std@@V?$allocator@D@2@@std@@ABW4NodeClassification@@@Z 004106e0 f i torq.obj
 0001:0000faf0       ?setTrace@TraceDirector@@QAEXABV?$vector@UTRACE_ITEM@@V?$allocator@UTRACE_ITEM@@@std@@@std@@@Z 00410af0 f i torq.obj
 0001:0000fbb0       ?findPair@TraceDirector@@QBEJJ@Z 00410bb0 f i torq.obj
 0001:0000fc30       ?findParent@TraceDirector@@QBEJJ@Z 00410c30 f i torq.obj
 0001:0000fd50       ?findPrev@TraceDirector@@QBEJJ@Z 00410d50 f i torq.obj
 0001:0000fe60       ?findChildren@TraceDirector@@QBE?AV?$vector@JV?$allocator@J@std@@@std@@J@Z 00410e60 f i torq.obj
 0001:00010040       ?findNext@TraceDirector@@QBEJJ@Z 00411040 f i torq.obj
 0001:00010140       ?findPairs@TraceDirector@@CA?AV?$vector@JV?$allocator@J@std@@@std@@ABV?$vector@UTRACE_ITEM@@V?$allocator@UTRACE_ITEM@@@std@@@3@@Z 00411140 f i torq.obj
 0001:000103c0       ?remove_unrequired_items@Interpreter@@SA?AV?$vector@UTRACE_ITEM@@V?$allocator@UTRACE_ITEM@@@std@@@std@@ABV23@@Z 004113c0 f i torq.obj
 0001:00010a30       ??0TraceDirector@@QAE@XZ   00411a30 f i torq.obj
 0001:00010ab0       ??1TraceDirector@@QAE@XZ   00411ab0 f i torq.obj
 0001:00010b30       ??1?$set@JU?$less@J@std@@V?$allocator@J@2@@std@@QAE@XZ 00411b30 f i torq.obj
 0001:00010b70       ?extract_option_lines@@YAXABV?$vector@HV?$allocator@H@std@@@std@@PAV?$map@JV?$vector@HV?$allocator@H@std@@@std@@U?$less@J@2@V?$allocator@U?$pair@$$CBJV?$vector@HV?$allocator@H@std@@@std@@@std@@@2@@2@@Z 00411b70 f   torq.obj
 0001:00010d90       ??1?$map@JV?$vector@HV?$allocator@H@std@@@std@@U?$less@J@2@V?$allocator@U?$pair@$$CBJV?$vector@HV?$allocator@H@std@@@std@@@std@@@2@@std@@QAE@XZ 00411d90 f i torq.obj
 0001:00010dd0       ?parse_script@@YA_NABV?$vector@HV?$allocator@H@std@@@std@@PAV?$vector@UTRACE_ITEM@@V?$allocator@UTRACE_ITEM@@@std@@@2@PAV?$map@V?$vector@HV?$allocator@H@std@@@std@@UNodeFormat@Helper@text@@U?$less@V?$vector@HV?$allocator@H@std@@@std@@@2@V?$allocator@U?$pair@$$CBV?$vector@HV?$allocator@H@std@@@std@@UNodeFormat@Helper@text@@@std@@@2@@2@PAV?$basic_string@DU?$char_traits@D@std@@V?$allocator@D@2@@2@ABV52@@Z 00411dd0 f   torq.obj
 0001:00011a80       ?setScript@TorqTokenizer@@QAEXABV?$vector@HV?$allocator@H@std@@@std@@@Z 00412a80 f i torq.obj
 0001:00011ad0       ?tokenize@TorqTokenizer@@QAE_NXZ 00412ad0 f i torq.obj
 0001:00011b40       ?tokenize@TorqTokenizer@@AAEJPAV?$vector@UTOKEN@@V?$allocator@UTOKEN@@@std@@@std@@ABV?$vector@HV?$allocator@H@std@@@3@@Z 00412b40 f i torq.obj
 0001:00011cb0       ??0TOKEN@@QAE@XZ           00412cb0 f i torq.obj
 0001:00011d00       ?eat_space@TorqTokenizer@@AAEJABV?$vector@HV?$allocator@H@std@@@std@@J@Z 00412d00 f i torq.obj
 0001:00012070       ?eat_token@TorqTokenizer@@AAEJPAUTOKEN@@ABV?$vector@HV?$allocator@H@std@@@std@@J@Z 00413070 f i torq.obj
 0001:00012660       ?swap@TOKEN@@QAEXAAU1@@Z   00413660 f i torq.obj
 0001:000126e0       ?getErrorPos@TorqTokenizer@@QBEJXZ 004136e0 f i torq.obj
 0001:00012710       ?getTokens@TorqTokenizer@@QBE?AV?$vector@UTOKEN@@V?$allocator@UTOKEN@@@std@@@std@@XZ 00413710 f i torq.obj
 0001:000127a0       ?getTokenString@TorqTokenizer@@QBE?AV?$vector@HV?$allocator@H@std@@@std@@J@Z 004137a0 f i torq.obj
 0001:00012850       ??1TOKEN_LIST_ITEM@?4??eat_token@TorqTokenizer@@AAEJPAUTOKEN@@ABV?$vector@HV?$allocator@H@std@@@std@@J@Z@QAE@XZ 00413850 f i torq.obj
 0001:00012890       ??1TorqParser@@UAE@XZ      00413890 f i torq.obj
 0001:000128e0       ??0TorqParser@@QAE@XZ      004138e0 f i torq.obj
 0001:00012950       ?setTokens@TorqParser@@QAEXABV?$vector@UTOKEN@@V?$allocator@UTOKEN@@@std@@@std@@@Z 00413950 f i torq.obj
 0001:000129a0       ?parse@TorqParser@@QAE_NPAVCallbacks@1@@Z 004139a0 f i torq.obj
 0001:00012ad0       ?getErrorPos@TorqParser@@QBEJXZ 00413ad0 f i torq.obj
 0001:00012b00       ?parseUsrBinTorq@TorqParser@@QAEJJ@Z 00413b00 f i torq.obj
 0001:00012b70       ?parseStatements@TorqParser@@QAEJJ@Z 00413b70 f i torq.obj
 0001:00012c60       ?parseStatement@TorqParser@@QAEJJ@Z 00413c60 f i torq.obj
 0001:00012e20       ?parseAssignStatement@TorqParser@@QAEJJ@Z 00413e20 f i torq.obj
 0001:00012ff0       ?parseScanEqStatement@TorqParser@@QAEJJ@Z 00413ff0 f i torq.obj
 0001:00013220       ?parseMatchEqStatement@TorqParser@@QAEJJ@Z 00414220 f i torq.obj
 0001:000133f0       ?parseExpression@TorqParser@@QAEJJ@Z 004143f0 f i torq.obj
 0001:00013520       ?parsePattern@TorqParser@@QAEJJ@Z 00414520 f i torq.obj
 0001:000136b0       ?parsePackPattern@TorqParser@@QAEJJ@Z 004146b0 f i torq.obj
 0001:00013860       ?parseMatchPattern@TorqParser@@QAEJJ@Z 00414860 f i torq.obj
 0001:00013a10       ?parseScanPattern@TorqParser@@QAEJJ@Z 00414a10 f i torq.obj
 0001:00013bc0       ?parseOrPattern@TorqParser@@QAEJJ@Z 00414bc0 f i torq.obj
 0001:00013d50       ?parseSequencePattern@TorqParser@@QAEJJ@Z 00414d50 f i torq.obj
 0001:00013eb0       ?parseRepeatPattern@TorqParser@@QAEJJ@Z 00414eb0 f i torq.obj
 0001:000140f0       ?parseAtomPattern@TorqParser@@QAEJJ@Z 004150f0 f i torq.obj
 0001:00014470       ?parseParenPattern@TorqParser@@QAEJJ@Z 00415470 f i torq.obj
 0001:00014610       ?parseXcepPattern@TorqParser@@QAEJJ@Z 00415610 f i torq.obj
 0001:00014660       ?parsePreqPattern@TorqParser@@QAEJJ@Z 00415660 f i torq.obj
 0001:000146b0       ?parse_xcep_or_preq_pattern@TorqParser@@QAEJJ_N@Z 004156b0 f i torq.obj
 0001:00014b20       ?parseLiteralPattern@TorqParser@@QAEJJ_N@Z 00415b20 f i torq.obj
 0001:00014c60       ?parseGeneratedTokenPattern@TorqParser@@QAEJJ@Z 00415c60 f i torq.obj
 0001:00014da0       ?parseInsertPattern@TorqParser@@QAEJJ@Z 00415da0 f i torq.obj
 0001:00014fa0       ?parseRecursePattern@TorqParser@@QAEJJ@Z 00415fa0 f i torq.obj
 0001:000150c0       ??_ETorqParser@@UAEPAXI@Z  004160c0 f i torq.obj
 0001:000150c0       ??_GTorqParser@@UAEPAXI@Z  004160c0 f i torq.obj
 0001:00015120       ??0Callbacks@TorqParser@@QAE@XZ 00416120 f i torq.obj
 0001:00015160       ?enterStatements@Callbacks@TorqParser@@UAE_NJ@Z 00416160 f i torq.obj
 0001:00015190       ?rejectStatements@Callbacks@TorqParser@@UAE_NJ@Z 00416190 f i torq.obj
 0001:000151c0       ?acceptStatements@Callbacks@TorqParser@@UAE_NJJ@Z 004161c0 f i torq.obj
 0001:000151f0       ?enterStatement@Callbacks@TorqParser@@UAE_NJ@Z 004161f0 f i torq.obj
 0001:00015220       ?rejectStatement@Callbacks@TorqParser@@UAE_NJ@Z 00416220 f i torq.obj
 0001:00015250       ?acceptStatement@Callbacks@TorqParser@@UAE_NJJ@Z 00416250 f i torq.obj
 0001:00015280       ?enterAssignStatement@Callbacks@TorqParser@@UAE_NJ@Z 00416280 f i torq.obj
 0001:000152b0       ?rejectAssignStatement@Callbacks@TorqParser@@UAE_NJ@Z 004162b0 f i torq.obj
 0001:000152e0       ?acceptAssignStatement@Callbacks@TorqParser@@UAE_NJJABUTOKEN@@@Z 004162e0 f i torq.obj
 0001:00015310       ?enterScanEqStatement@Callbacks@TorqParser@@UAE_NJ@Z 00416310 f i torq.obj
 0001:00015340       ?rejectScanEqStatement@Callbacks@TorqParser@@UAE_NJ@Z 00416340 f i torq.obj
 0001:00015370       ?acceptScanEqStatement@Callbacks@TorqParser@@UAE_NJJABUTOKEN@@@Z 00416370 f i torq.obj
 0001:000153a0       ?enterMatchEqStatement@Callbacks@TorqParser@@UAE_NJ@Z 004163a0 f i torq.obj
 0001:000153d0       ?rejectMatchEqStatement@Callbacks@TorqParser@@UAE_NJ@Z 004163d0 f i torq.obj
 0001:00015400       ?acceptMatchEqStatement@Callbacks@TorqParser@@UAE_NJJABUTOKEN@@@Z 00416400 f i torq.obj
 0001:00015430       ?enterExpression@Callbacks@TorqParser@@UAE_NJ@Z 00416430 f i torq.obj
 0001:00015460       ?rejectExpression@Callbacks@TorqParser@@UAE_NJ@Z 00416460 f i torq.obj
 0001:00015490       ?acceptExpression@Callbacks@TorqParser@@UAE_NJJABUTOKEN@@@Z 00416490 f i torq.obj
 0001:000154c0       ?enterPattern@Callbacks@TorqParser@@UAE_NJ@Z 004164c0 f i torq.obj
 0001:000154f0       ?rejectPattern@Callbacks@TorqParser@@UAE_NJ@Z 004164f0 f i torq.obj
 0001:00015520       ?acceptPattern@Callbacks@TorqParser@@UAE_NJJ@Z 00416520 f i torq.obj
 0001:00015550       ?enterPackPattern@Callbacks@TorqParser@@UAE_NJ@Z 00416550 f i torq.obj
 0001:00015580       ?rejectPackPattern@Callbacks@TorqParser@@UAE_NJ@Z 00416580 f i torq.obj
 0001:000155b0       ?acceptPackPattern@Callbacks@TorqParser@@UAE_NJJABUTOKEN@@@Z 004165b0 f i torq.obj
 0001:000155e0       ?enterMatchPattern@Callbacks@TorqParser@@UAE_NJ@Z 004165e0 f i torq.obj
 0001:00015610       ?rejectMatchPattern@Callbacks@TorqParser@@UAE_NJ@Z 00416610 f i torq.obj
 0001:00015640       ?acceptMatchPattern@Callbacks@TorqParser@@UAE_NJJABUTOKEN@@@Z 00416640 f i torq.obj
 0001:00015670       ?enterScanPattern@Callbacks@TorqParser@@UAE_NJ@Z 00416670 f i torq.obj
 0001:000156a0       ?rejectScanPattern@Callbacks@TorqParser@@UAE_NJ@Z 004166a0 f i torq.obj
 0001:000156d0       ?acceptScanPattern@Callbacks@TorqParser@@UAE_NJJABUTOKEN@@@Z 004166d0 f i torq.obj
 0001:00015700       ?enterOrPattern@Callbacks@TorqParser@@UAE_NJ@Z 00416700 f i torq.obj
 0001:00015730       ?rejectOrPattern@Callbacks@TorqParser@@UAE_NJ@Z 00416730 f i torq.obj
 0001:00015760       ?acceptOrPattern@Callbacks@TorqParser@@UAE_NJJ@Z 00416760 f i torq.obj
 0001:00015790       ?enterSequencePattern@Callbacks@TorqParser@@UAE_NJ@Z 00416790 f i torq.obj
 0001:000157c0       ?rejectSequencePattern@Callbacks@TorqParser@@UAE_NJ@Z 004167c0 f i torq.obj
 0001:000157f0       ?acceptSequencePattern@Callbacks@TorqParser@@UAE_NJJ@Z 004167f0 f i torq.obj
 0001:00015820       ?enterRepeatPattern@Callbacks@TorqParser@@UAE_NJ@Z 00416820 f i torq.obj
 0001:00015850       ?rejectRepeatPattern@Callbacks@TorqParser@@UAE_NJ@Z 00416850 f i torq.obj
 0001:00015880       ?acceptRepeatPattern@Callbacks@TorqParser@@UAE_NJJABUTOKEN@@@Z 00416880 f i torq.obj
 0001:000158b0       ?acceptRepeatPattern@Callbacks@TorqParser@@UAE_NJJ@Z 004168b0 f i torq.obj
 0001:000158e0       ?enterAtomPattern@Callbacks@TorqParser@@UAE_NJ@Z 004168e0 f i torq.obj
 0001:00015910       ?rejectAtomPattern@Callbacks@TorqParser@@UAE_NJ@Z 00416910 f i torq.obj
 0001:00015940       ?acceptAtomPattern@Callbacks@TorqParser@@UAE_NJJ@Z 00416940 f i torq.obj
 0001:00015970       ?enterParenPattern@Callbacks@TorqParser@@UAE_NJ@Z 00416970 f i torq.obj
 0001:000159a0       ?rejectParenPattern@Callbacks@TorqParser@@UAE_NJ@Z 004169a0 f i torq.obj
 0001:000159d0       ?acceptParenPattern@Callbacks@TorqParser@@UAE_NJJ@Z 004169d0 f i torq.obj
 0001:00015a00       ?enterXcepPattern@Callbacks@TorqParser@@UAE_NJ@Z 00416a00 f i torq.obj
 0001:00015a30       ?rejectXcepPattern@Callbacks@TorqParser@@UAE_NJ@Z 00416a30 f i torq.obj
 0001:00015a60       ?acceptXcepPattern@Callbacks@TorqParser@@UAE_NJJ@Z 00416a60 f i torq.obj
 0001:00015a90       ?enterPreqPattern@Callbacks@TorqParser@@UAE_NJ@Z 00416a90 f i torq.obj
 0001:00015ac0       ?rejectPreqPattern@Callbacks@TorqParser@@UAE_NJ@Z 00416ac0 f i torq.obj
 0001:00015af0       ?acceptPreqPattern@Callbacks@TorqParser@@UAE_NJJ@Z 00416af0 f i torq.obj
 0001:00015b20       ?enterLiteralPattern@Callbacks@TorqParser@@UAE_NJ@Z 00416b20 f i torq.obj
 0001:00015b50       ?rejectLiteralPattern@Callbacks@TorqParser@@UAE_NJ@Z 00416b50 f i torq.obj
 0001:00015b80       ?acceptLiteralPattern@Callbacks@TorqParser@@UAE_NJJABUTOKEN@@@Z 00416b80 f i torq.obj
 0001:00015bb0       ?enterGeneratedTokenPattern@Callbacks@TorqParser@@UAE_NJ@Z 00416bb0 f i torq.obj
 0001:00015be0       ?rejectGeneratedTokenPattern@Callbacks@TorqParser@@UAE_NJ@Z 00416be0 f i torq.obj
 0001:00015c10       ?acceptGeneratedTokenPattern@Callbacks@TorqParser@@UAE_NJJABUTOKEN@@@Z 00416c10 f i torq.obj
 0001:00015c40       ?enterInsertPattern@Callbacks@TorqParser@@UAE_NJ@Z 00416c40 f i torq.obj
 0001:00015c70       ?rejectInsertPattern@Callbacks@TorqParser@@UAE_NJ@Z 00416c70 f i torq.obj
 0001:00015ca0       ?acceptInsertPattern@Callbacks@TorqParser@@UAE_NJJABUTOKEN@@@Z 00416ca0 f i torq.obj
 0001:00015cd0       ?enterRecursePattern@Callbacks@TorqParser@@UAE_NJ@Z 00416cd0 f i torq.obj
 0001:00015d00       ?rejectRecursePattern@Callbacks@TorqParser@@UAE_NJ@Z 00416d00 f i torq.obj
 0001:00015d30       ?acceptRecursePattern@Callbacks@TorqParser@@UAE_NJJ@Z 00416d30 f i torq.obj
 0001:00015d60       ?getTrace@TorqParserTracer@@QBE?AV?$vector@UTRACE_ITEM@@V?$allocator@UTRACE_ITEM@@@std@@@std@@XZ 00416d60 f i torq.obj
 0001:00015dd0       ?reduce@TorqParserTracer@@SA?AV?$vector@UTRACE_ITEM@@V?$allocator@UTRACE_ITEM@@@std@@@std@@ABV23@@Z 00416dd0 f i torq.obj
 0001:00016010       ??0TorqTokenizer@@QAE@XZ   00417010 f i torq.obj
 0001:00016090       ??1TorqTokenizer@@QAE@XZ   00417090 f i torq.obj
 0001:00016110       ??0TorqParserTracer@@QAE@XZ 00417110 f i torq.obj
 0001:00016170       ?enter@TorqParserTracer@@UAEXW4NodeClassification@@J@Z 00417170 f i torq.obj
 0001:00016200       ??0TRACE_ITEM@@QAE@W4Classification@0@W4NodeClassification@@J@Z 00417200 f i torq.obj
 0001:00016270       ?reject@TorqParserTracer@@UAEXW4NodeClassification@@J@Z 00417270 f i torq.obj
 0001:00016300       ?accept@TorqParserTracer@@UAEXW4NodeClassification@@JJ@Z 00417300 f i torq.obj
 0001:00016390       ??0TRACE_ITEM@@QAE@W4Classification@0@W4NodeClassification@@JJ@Z 00417390 f i torq.obj
 0001:00016400       ?accept@TorqParserTracer@@UAEXW4NodeClassification@@JJABUTOKEN@@@Z 00417400 f i torq.obj
 0001:00016490       ??0TRACE_ITEM@@QAE@W4Classification@0@W4NodeClassification@@JJABUTOKEN@@@Z 00417490 f i torq.obj
 0001:00016500       ??0TOKEN@@QAE@ABU0@@Z      00417500 f i torq.obj
 0001:00016560       ?enterStatements@TorqParserTracer@@UAE_NJ@Z 00417560 f i torq.obj
 0001:000165c0       ?rejectStatements@TorqParserTracer@@UAE_NJ@Z 004175c0 f i torq.obj
 0001:00016620       ?acceptStatements@TorqParserTracer@@UAE_NJJ@Z 00417620 f i torq.obj
 0001:00016680       ?enterStatement@TorqParserTracer@@UAE_NJ@Z 00417680 f i torq.obj
 0001:000166e0       ?rejectStatement@TorqParserTracer@@UAE_NJ@Z 004176e0 f i torq.obj
 0001:00016740       ?acceptStatement@TorqParserTracer@@UAE_NJJ@Z 00417740 f i torq.obj
 0001:000167a0       ?enterAssignStatement@TorqParserTracer@@UAE_NJ@Z 004177a0 f i torq.obj
 0001:00016800       ?rejectAssignStatement@TorqParserTracer@@UAE_NJ@Z 00417800 f i torq.obj
 0001:00016860       ?acceptAssignStatement@TorqParserTracer@@UAE_NJJABUTOKEN@@@Z 00417860 f i torq.obj
 0001:000168c0       ?enterScanEqStatement@TorqParserTracer@@UAE_NJ@Z 004178c0 f i torq.obj
 0001:00016920       ?rejectScanEqStatement@TorqParserTracer@@UAE_NJ@Z 00417920 f i torq.obj
 0001:00016980       ?acceptScanEqStatement@TorqParserTracer@@UAE_NJJABUTOKEN@@@Z 00417980 f i torq.obj
 0001:000169e0       ?enterMatchEqStatement@TorqParserTracer@@UAE_NJ@Z 004179e0 f i torq.obj
 0001:00016a40       ?rejectMatchEqStatement@TorqParserTracer@@UAE_NJ@Z 00417a40 f i torq.obj
 0001:00016aa0       ?acceptMatchEqStatement@TorqParserTracer@@UAE_NJJABUTOKEN@@@Z 00417aa0 f i torq.obj
 0001:00016b00       ?enterExpression@TorqParserTracer@@UAE_NJ@Z 00417b00 f i torq.obj
 0001:00016b60       ?rejectExpression@TorqParserTracer@@UAE_NJ@Z 00417b60 f i torq.obj
 0001:00016bc0       ?acceptExpression@TorqParserTracer@@UAE_NJJABUTOKEN@@@Z 00417bc0 f i torq.obj
 0001:00016c20       ?enterPattern@TorqParserTracer@@UAE_NJ@Z 00417c20 f i torq.obj
 0001:00016c80       ?rejectPattern@TorqParserTracer@@UAE_NJ@Z 00417c80 f i torq.obj
 0001:00016ce0       ?acceptPattern@TorqParserTracer@@UAE_NJJ@Z 00417ce0 f i torq.obj
 0001:00016d40       ?enterPackPattern@TorqParserTracer@@UAE_NJ@Z 00417d40 f i torq.obj
 0001:00016da0       ?rejectPackPattern@TorqParserTracer@@UAE_NJ@Z 00417da0 f i torq.obj
 0001:00016e00       ?acceptPackPattern@TorqParserTracer@@UAE_NJJABUTOKEN@@@Z 00417e00 f i torq.obj
 0001:00016e60       ?enterMatchPattern@TorqParserTracer@@UAE_NJ@Z 00417e60 f i torq.obj
 0001:00016ec0       ?rejectMatchPattern@TorqParserTracer@@UAE_NJ@Z 00417ec0 f i torq.obj
 0001:00016f20       ?acceptMatchPattern@TorqParserTracer@@UAE_NJJABUTOKEN@@@Z 00417f20 f i torq.obj
 0001:00016f80       ?enterScanPattern@TorqParserTracer@@UAE_NJ@Z 00417f80 f i torq.obj
 0001:00016fe0       ?rejectScanPattern@TorqParserTracer@@UAE_NJ@Z 00417fe0 f i torq.obj
 0001:00017040       ?acceptScanPattern@TorqParserTracer@@UAE_NJJABUTOKEN@@@Z 00418040 f i torq.obj
 0001:000170a0       ?enterSequencePattern@TorqParserTracer@@UAE_NJ@Z 004180a0 f i torq.obj
 0001:00017100       ?rejectSequencePattern@TorqParserTracer@@UAE_NJ@Z 00418100 f i torq.obj
 0001:00017160       ?acceptSequencePattern@TorqParserTracer@@UAE_NJJ@Z 00418160 f i torq.obj
 0001:000171c0       ?enterOrPattern@TorqParserTracer@@UAE_NJ@Z 004181c0 f i torq.obj
 0001:00017220       ?rejectOrPattern@TorqParserTracer@@UAE_NJ@Z 00418220 f i torq.obj
 0001:00017280       ?acceptOrPattern@TorqParserTracer@@UAE_NJJ@Z 00418280 f i torq.obj
 0001:000172e0       ?enterRepeatPattern@TorqParserTracer@@UAE_NJ@Z 004182e0 f i torq.obj
 0001:00017340       ?rejectRepeatPattern@TorqParserTracer@@UAE_NJ@Z 00418340 f i torq.obj
 0001:000173a0       ?acceptRepeatPattern@TorqParserTracer@@UAE_NJJABUTOKEN@@@Z 004183a0 f i torq.obj
 0001:00017400       ?acceptRepeatPattern@TorqParserTracer@@UAE_NJJ@Z 00418400 f i torq.obj
 0001:00017460       ?enterAtomPattern@TorqParserTracer@@UAE_NJ@Z 00418460 f i torq.obj
 0001:000174c0       ?rejectAtomPattern@TorqParserTracer@@UAE_NJ@Z 004184c0 f i torq.obj
 0001:00017520       ?acceptAtomPattern@TorqParserTracer@@UAE_NJJ@Z 00418520 f i torq.obj
 0001:00017580       ?enterParenPattern@TorqParserTracer@@UAE_NJ@Z 00418580 f i torq.obj
 0001:000175e0       ?rejectParenPattern@TorqParserTracer@@UAE_NJ@Z 004185e0 f i torq.obj
 0001:00017640       ?acceptParenPattern@TorqParserTracer@@UAE_NJJ@Z 00418640 f i torq.obj
 0001:000176a0       ?enterXcepPattern@TorqParserTracer@@UAE_NJ@Z 004186a0 f i torq.obj
 0001:00017700       ?rejectXcepPattern@TorqParserTracer@@UAE_NJ@Z 00418700 f i torq.obj
 0001:00017760       ?acceptXcepPattern@TorqParserTracer@@UAE_NJJ@Z 00418760 f i torq.obj
 0001:000177c0       ?enterPreqPattern@TorqParserTracer@@UAE_NJ@Z 004187c0 f i torq.obj
 0001:00017820       ?rejectPreqPattern@TorqParserTracer@@UAE_NJ@Z 00418820 f i torq.obj
 0001:00017880       ?acceptPreqPattern@TorqParserTracer@@UAE_NJJ@Z 00418880 f i torq.obj
 0001:000178e0       ?enterLiteralPattern@TorqParserTracer@@UAE_NJ@Z 004188e0 f i torq.obj
 0001:00017940       ?rejectLiteralPattern@TorqParserTracer@@UAE_NJ@Z 00418940 f i torq.obj
 0001:000179a0       ?acceptLiteralPattern@TorqParserTracer@@UAE_NJJABUTOKEN@@@Z 004189a0 f i torq.obj
 0001:00017a00       ?enterGeneratedTokenPattern@TorqParserTracer@@UAE_NJ@Z 00418a00 f i torq.obj
 0001:00017a60       ?rejectGeneratedTokenPattern@TorqParserTracer@@UAE_NJ@Z 00418a60 f i torq.obj
 0001:00017ac0       ?acceptGeneratedTokenPattern@TorqParserTracer@@UAE_NJJABUTOKEN@@@Z 00418ac0 f i torq.obj
 0001:00017b20       ?enterInsertPattern@TorqParserTracer@@UAE_NJ@Z 00418b20 f i torq.obj
 0001:00017b80       ?rejectInsertPattern@TorqParserTracer@@UAE_NJ@Z 00418b80 f i torq.obj
 0001:00017be0       ?acceptInsertPattern@TorqParserTracer@@UAE_NJJABUTOKEN@@@Z 00418be0 f i torq.obj
 0001:00017c40       ?enterRecursePattern@TorqParserTracer@@UAE_NJ@Z 00418c40 f i torq.obj
 0001:00017ca0       ?rejectRecursePattern@TorqParserTracer@@UAE_NJ@Z 00418ca0 f i torq.obj
 0001:00017d00       ?acceptRecursePattern@TorqParserTracer@@UAE_NJJ@Z 00418d00 f i torq.obj
 0001:00017d60       ??1TorqParserTracer@@QAE@XZ 00418d60 f i torq.obj
 0001:00017db0       _main                      00418db0 f   torq.obj
 0001:00017e60       ??0Main@@QAE@XZ            00418e60 f i torq.obj
 0001:00018080       ?setEncoding@EncodedFileReader@@QAE_NABV?$basic_string@DU?$char_traits@D@std@@V?$allocator@D@2@@std@@@Z 00419080 f i torq.obj
 0001:000180d0       ?setEncoding@Decoder@@QAE_NABV?$basic_string@DU?$char_traits@D@std@@V?$allocator@D@2@@std@@@Z 004190d0 f i torq.obj
 0001:00018220       ??1Main@@UAE@XZ            00419220 f i torq.obj
 0001:00018350       ?analyzeCommandlineArgument@Main@@MAEHABV?$vector@V?$basic_string@DU?$char_traits@D@std@@V?$allocator@D@2@@std@@V?$allocator@V?$basic_string@DU?$char_traits@D@std@@V?$allocator@D@2@@std@@@2@@std@@PAI@Z 00419350 f i torq.obj
 0001:00019720       ??0Decoder@@QAE@XZ         0041a720 f i torq.obj
 0001:000197c0       ??1Decoder@@QAE@XZ         0041a7c0 f i torq.obj
 0001:00019830       ?getAvailableEncodings@Decoder@@QBE?AV?$vector@V?$basic_string@DU?$char_traits@D@std@@V?$allocator@D@2@@std@@V?$allocator@V?$basic_string@DU?$char_traits@D@std@@V?$allocator@D@2@@std@@@2@@std@@XZ 0041a830 f i torq.obj
 0001:00019aa0       ?toString@Version@common@@QBE?AV?$basic_string@DU?$char_traits@D@std@@V?$allocator@D@2@@std@@XZ 0041aaa0 f i torq.obj
 0001:00019c30       ?main@Main@@QAEHHQAPAD@Z   0041ac30 f i torq.obj
 0001:00019d40       ?main@Main@@QAEHV?$vector@V?$basic_string@DU?$char_traits@D@std@@V?$allocator@D@2@@std@@V?$allocator@V?$basic_string@DU?$char_traits@D@std@@V?$allocator@D@2@@std@@@2@@std@@@Z 0041ad40 f i torq.obj
 0001:0001b410       ?resize@TokenSequence@text@@QAEXI@Z 0041c410 f i torq.obj
 0001:0001b4d0       ?replaceAt@TokenSequence@text@@QAEPAUToken@2@IPAU32@@Z 0041c4d0 f i torq.obj
 0001:0001b560       ?buildTokenSequence@Helper@text@@SAXPAVTokenSequence@2@AAV?$vector@HV?$allocator@H@std@@@std@@_N2@Z 0041c560 f i torq.obj
 0001:0001b920       ?swap@TokenSequence@text@@QAEXAAV12@@Z 0041c920 f i torq.obj
 0001:0001b970       ?reserve@TokenSequence@text@@QAEXI@Z 0041c970 f i torq.obj
 0001:0001b9c0       ?attachBack@TokenSequence@text@@QAEXPAUToken@2@@Z 0041c9c0 f i torq.obj
 0001:0001ba10       ?print@Helper@text@@SAXPAV?$basic_ostream@DU?$char_traits@D@std@@@std@@ABVTokenSequence@2@ABV?$vector@HV?$allocator@H@std@@@4@KPBVEncoder@common@@@Z 0041ca10 f i torq.obj
 0001:0001bd00       ??4NodeFormatI@Helper@text@@QAEAAU012@ABU012@@Z 0041cd00 f i torq.obj
 0001:0001bd70       ??1Interpreter@@QAE@XZ     0041cd70 f i torq.obj
 0001:0001be70       ??0Interpreter@@QAE@XZ     0041ce70 f i torq.obj
 0001:0001bfe0       ??0Error@Interpreter@@QAE@XZ 0041cfe0 f i torq.obj
 0001:0001c030       ?setProgram@Interpreter@@QAEXABV?$vector@UTRACE_ITEM@@V?$allocator@UTRACE_ITEM@@@std@@@std@@ABV?$vector@HV?$allocator@H@std@@@3@@Z 0041d030 f i torq.obj
 0001:0001caa0       ?decode@EscapeSequenceHelper@common@@SAXPAV?$vector@HV?$allocator@H@std@@@std@@ABV34@JJ@Z 0041daa0 f i torq.obj
 0001:0001d670       ?swapVariable@Interpreter@@QAEXABV?$vector@HV?$allocator@H@std@@@std@@PAVTokenSequence@text@@@Z 0041e670 f i torq.obj
 0001:0001d6d0       ?getLabelStrings@Interpreter@@QBE?AV?$vector@V?$vector@HV?$allocator@H@std@@@std@@V?$allocator@V?$vector@HV?$allocator@H@std@@@std@@@2@@std@@XZ 0041e6d0 f i torq.obj
 0001:0001d740       ?setCutoffValue@Interpreter@@QAEX_J@Z 0041e740 f i torq.obj
 0001:0001d780       ?getError@Interpreter@@QBE?AUError@1@XZ 0041e780 f i torq.obj
 0001:0001d7f0       ??0Error@Interpreter@@QAE@ABU01@@Z 0041e7f0 f i torq.obj
 0001:0001d850       ?interpret@Interpreter@@QAEJJ@Z 0041e850 f i torq.obj
 0001:0001daf0       ??0Error@Interpreter@@QAE@W4ErrorCode@1@@Z 0041eaf0 f i torq.obj
 0001:0001db40       ?allocLabelCode@Interpreter@@AAEJABV?$vector@HV?$allocator@H@std@@@std@@@Z 0041eb40 f i torq.obj
 0001:0001dc30       ?allocLabelCode@Interpreter@@AAEJJ@Z 0041ec30 f i torq.obj
 0001:0001ddb0       ?do_Statements@Interpreter@@IAEXJ@Z 0041edb0 f i torq.obj
 0001:0001de60       ?do_AssignStatement@Interpreter@@IAEXJ@Z 0041ee60 f i torq.obj
 0001:0001dec0       ?do_ScanEqStatement@Interpreter@@IAEXJ@Z 0041eec0 f i torq.obj
 0001:0001e470       ??8TOKEN@@QBE_NABU0@@Z     0041f470 f i torq.obj
 0001:0001e4e0       ?expandMatchSeq@Interpreter@@KAXPAVTokenSequence@text@@0ABV?$vector@UMATCH@Interpreter@@V?$allocator@UMATCH@Interpreter@@@std@@@std@@@Z 0041f4e0 f i torq.obj
 0001:0001e5a0       ?expandMatchSeqOutOfPack@Interpreter@@KAXPAVTokenSequence@text@@0PAVconst_iterator@?$vector@UMATCH@Interpreter@@V?$allocator@UMATCH@Interpreter@@@std@@@std@@ABV456@@Z 0041f5a0 f i torq.obj
 0001:0001e8f0       ?begin@TokenSequence@text@@QAEPAPAUToken@2@XZ 0041f8f0 f i torq.obj
 0001:0001e940       ?end@TokenSequence@text@@QAEPAPAUToken@2@XZ 0041f940 f i torq.obj
 0001:0001e990       ?size@MATCH@Interpreter@@QBEIXZ 0041f990 f i torq.obj
 0001:0001e9f0       ?isChildrenEnd@MATCH@Interpreter@@QBE_NXZ 0041f9f0 f i torq.obj
 0001:0001ea30       ?isSomethingEnd@MATCH@Interpreter@@QBE_NXZ 0041fa30 f i torq.obj
 0001:0001ea90       ?getClassification@MATCH@Interpreter@@QBE?AW4Classification@12@XZ 0041fa90 f i torq.obj
 0001:0001eb10       ?expandMatchSeq@Interpreter@@KAXPAVTokenSequence@text@@PAPAPAUToken@3@PAVconst_iterator@?$vector@UMATCH@Interpreter@@V?$allocator@UMATCH@Interpreter@@@std@@@std@@ABV567@@Z 0041fb10 f i torq.obj
 0001:0001f1a0       ?refBack@TokenSequence@text@@QBEPAUToken@2@XZ 004201a0 f i torq.obj
 0001:0001f210       ??0GeneratedToken@text@@QAE@XZ 00420210 f i torq.obj
 0001:0001f2a0       ?setCode@GeneratedToken@text@@QAEXJ@Z 004202a0 f i torq.obj
 0001:0001f2e0       ?getCode@MATCH@Interpreter@@QBEJXZ 004202e0 f i torq.obj
 0001:0001f360       ?isCopy@MATCH@Interpreter@@QBE_NXZ 00420360 f i torq.obj
 0001:0001f3a0       ?isPackEnd@MATCH@Interpreter@@QBE_NXZ 004203a0 f i torq.obj
 0001:0001f3e0       ??0Error@Interpreter@@QAE@W4ErrorCode@1@ABV?$vector@HV?$allocator@H@std@@@std@@@Z 004203e0 f i torq.obj
 0001:0001f440       ?extendNullMatchSeq@Interpreter@@IAEXABVTokenSequence@text@@PAJ@Z 00420440 f i torq.obj
 0001:0001f500       ?makeCopy@MATCH@Interpreter@@SA?AU12@PBVTokenSequence@text@@JJ@Z 00420500 f i torq.obj
 0001:0001f560       ?assignCopy@MATCH@Interpreter@@QAEAAU12@PBVTokenSequence@text@@JJ@Z 00420560 f i torq.obj
 0001:0001f620       ?skip_null@Interpreter@@KAXABVTokenSequence@text@@PAJ@Z 00420620 f i torq.obj
 0001:0001f710       ?extend1MatchSeq@Interpreter@@IAEXIABVTokenSequence@text@@J@Z 00420710 f i torq.obj
 0001:0001f7b0       ?extend@MATCH@Interpreter@@QAEXI@Z 004207b0 f i torq.obj
 0001:0001f820       ?makeCopy1@MATCH@Interpreter@@SA?AU12@PBVTokenSequence@text@@J@Z 00420820 f i torq.obj
 0001:0001f870       ?assignCopy1@MATCH@Interpreter@@QAEAAU12@PBVTokenSequence@text@@J@Z 00420870 f i torq.obj
 0001:0001f910       ?do_MatchEqStatement@Interpreter@@IAEXJ@Z 00420910 f i torq.obj
 0001:0001fed0       ?eval@Interpreter@@IAEJJABVTokenSequence@text@@J@Z 00420ed0 f i torq.obj
 0001:000201e0       ?do_assertionError@Interpreter@@IAEJJABVTokenSequence@text@@J@Z 004211e0 f i torq.obj
 0001:000202d0       ?do_Pattern@Interpreter@@IAEJJABVTokenSequence@text@@J@Z 004212d0 f i torq.obj
 0001:00020440       ?do_PackPattern@Interpreter@@IAEJJABVTokenSequence@text@@J@Z 00421440 f i torq.obj
 0001:000207b0       ?assignPackBegin@MATCH@Interpreter@@QAEAAU12@J@Z 004217b0 f i torq.obj
 0001:00020820       ?makePackBegin@MATCH@Interpreter@@SA?AU12@J@Z 00421820 f i torq.obj
 0001:00020870       ?assignPackEnd@MATCH@Interpreter@@QAEAAU12@XZ 00421870 f i torq.obj
 0001:000208b0       ?makePackEnd@MATCH@Interpreter@@SA?AU12@XZ 004218b0 f i torq.obj
 0001:00020900       ?do_MatchPattern@Interpreter@@IAEJJABVTokenSequence@text@@J@Z 00421900 f i torq.obj
 0001:00020ca0       ?makeChildrenBegin@MATCH@Interpreter@@SA?AU12@XZ 00421ca0 f i torq.obj
 0001:00020cf0       ?assignChildrenBegin@MATCH@Interpreter@@QAEAAU12@XZ 00421cf0 f i torq.obj
 0001:00020d30       ?makeChildrenEnd@MATCH@Interpreter@@SA?AU12@XZ 00421d30 f i torq.obj
 0001:00020d80       ?assignChildrenEnd@MATCH@Interpreter@@QAEAAU12@XZ 00421d80 f i torq.obj
 0001:00020dc0       ?isChildrenBegin@MATCH@Interpreter@@QBE_NXZ 00421dc0 f i torq.obj
 0001:00020e00       ?do_ScanPattern@Interpreter@@IAEJJABVTokenSequence@text@@J@Z 00421e00 f i torq.obj
 0001:000211e0       ?do_OrPattern@Interpreter@@IAEJJABVTokenSequence@text@@J@Z 004221e0 f i torq.obj
 0001:000215b0       ?do_SequencePattern@Interpreter@@IAEJJABVTokenSequence@text@@J@Z 004225b0 f i torq.obj
 0001:00021750       ?sequence_optimization@Interpreter@@IAEXI@Z 00422750 f i torq.obj
 0001:00021840       ?do_RepeatPattern@Interpreter@@IAEJJABVTokenSequence@text@@J@Z 00422840 f i torq.obj
 0001:00021b60       ?substrEqualWithCharClass@Interpreter@@IBEJABVTokenSequence@text@@JJ@Z 00422b60 f i torq.obj
 0001:00021c80       ?substrEqual@Interpreter@@KAJABVTokenSequence@text@@JABV?$vector@HV?$allocator@H@std@@@std@@@Z 00422c80 f i torq.obj
 0001:00021da0       ?substrEqualWithCharClassRepeated@Interpreter@@IBEJABVTokenSequence@text@@JJABU?$pair@II@std@@@Z 00422da0 f i torq.obj
 0001:00021f90       ?do_XcepPattern@Interpreter@@IAEJJABVTokenSequence@text@@J@Z 00422f90 f i torq.obj
 0001:000222c0       ?do_PreqPattern@Interpreter@@IAEJJABVTokenSequence@text@@J@Z 004232c0 f i torq.obj
 0001:00022340       ?do_LiteralPattern@Interpreter@@IAEJJABVTokenSequence@text@@J@Z 00423340 f i torq.obj
 0001:00022450       ?do_GeneratedTokenPattern@Interpreter@@IAEJJABVTokenSequence@text@@J@Z 00423450 f i torq.obj
 0001:000226c0       ?do_RecursePattern@Interpreter@@IAEJJABVTokenSequence@text@@J@Z 004236c0 f i torq.obj
 0001:00022750       ?do_InsertPattern@Interpreter@@IAEJJABVTokenSequence@text@@J@Z 00423750 f i torq.obj
 0001:00022870       ??0TokenStringTableItem@Interpreter@@QAE@XZ 00423870 f i torq.obj
 0001:000228f0       ??1TokenStringTableItem@Interpreter@@QAE@XZ 004238f0 f i torq.obj
 0001:00022940       ??1?$map@V?$vector@HV?$allocator@H@std@@@std@@VTokenSequence@text@@U?$less@V?$vector@HV?$allocator@H@std@@@std@@@2@V?$allocator@U?$pair@$$CBV?$vector@HV?$allocator@H@std@@@std@@VTokenSequence@text@@@std@@@2@@std@@QAE@XZ 00423940 f i torq.obj
 0001:00022980       ??1?$map@V?$vector@HV?$allocator@H@std@@@std@@JU?$less@V?$vector@HV?$allocator@H@std@@@std@@@2@V?$allocator@U?$pair@$$CBV?$vector@HV?$allocator@H@std@@@std@@J@std@@@2@@std@@QAE@XZ 00423980 f i torq.obj
 0001:000229c0       ??1Error@Interpreter@@QAE@XZ 004239c0 f i torq.obj
 0001:00022a10       ??1?$set@V?$vector@HV?$allocator@H@std@@@std@@U?$less@V?$vector@HV?$allocator@H@std@@@std@@@2@V?$allocator@V?$vector@HV?$allocator@H@std@@@std@@@2@@std@@QAE@XZ 00423a10 f i torq.obj
 0001:00022a50       ??4TokenStringTableItem@Interpreter@@QAEAAU01@ABU01@@Z 00423a50 f i torq.obj
 0001:00022ac0       ??4Error@Interpreter@@QAEAAU01@ABU01@@Z 00423ac0 f i torq.obj
 0001:00022b20       ?analyzeCommandlineArguments@Main@@AAEHABV?$vector@V?$basic_string@DU?$char_traits@D@std@@V?$allocator@D@2@@std@@V?$allocator@V?$basic_string@DU?$char_traits@D@std@@V?$allocator@D@2@@std@@@2@@std@@@Z 00423b20 f i torq.obj
 0001:00022d30       ?do_output@Main@@AAEHABV?$basic_string@DU?$char_traits@D@std@@V?$allocator@D@2@@std@@ABVTokenSequence@text@@ABV?$map@V?$vector@HV?$allocator@H@std@@@std@@UNodeFormat@Helper@text@@U?$less@V?$vector@HV?$allocator@H@std@@@std@@@2@V?$allocator@U?$pair@$$CBV?$vector@HV?$allocator@H@std@@@std@@UNodeFormat@Helper@text@@@std@@@2@@3@ABV?$vector@V?$vector@HV?$allocator@H@std@@@std@@V?$allocator@V?$vector@HV?$allocator@H@std@@@std@@@2@@3@@Z 00423d30 f i torq.obj
 0001:000230d0       ?good@ios_base@std@@QBE_NXZ 004240d0 f i torq.obj
 0001:00023120       ?rdstate@ios_base@std@@QBEHXZ 00424120 f i torq.obj
 0001:00023150       ?do_output_i@Main@@AAEXPAV?$basic_ostream@DU?$char_traits@D@std@@@std@@ABVTokenSequence@text@@ABV?$map@V?$vector@HV?$allocator@H@std@@@std@@UNodeFormat@Helper@text@@U?$less@V?$vector@HV?$allocator@H@std@@@std@@@2@V?$allocator@U?$pair@$$CBV?$vector@HV?$allocator@H@std@@@std@@UNodeFormat@Helper@text@@@std@@@2@@3@ABV?$vector@V?$vector@HV?$allocator@H@std@@@std@@V?$allocator@V?$vector@HV?$allocator@H@std@@@std@@@2@@3@@Z 00424150 f i torq.obj
 0001:00023350       ??_EMain@@UAEPAXI@Z        00424350 f i torq.obj
 0001:00023350       ??_GMain@@UAEPAXI@Z        00424350 f i torq.obj
 0001:000233b0       ??0EncodedFileReader@@QAE@XZ 004243b0 f i torq.obj
 0001:00023450       ??1FileReader@@UAE@XZ      00424450 f i torq.obj
 0001:00023490       ??_GFileReader@@UAEPAXI@Z  00424490 f i torq.obj
 0001:00023490       ??_EFileReader@@UAEPAXI@Z  00424490 f i torq.obj
 0001:000234f0       ?read@EncodedFileReader@@UAE_NPAV?$vector@HV?$allocator@H@std@@@std@@ABV?$basic_string@DU?$char_traits@D@std@@V?$allocator@D@2@@3@@Z 004244f0 f i torq.obj
 0001:00023770       ?decode@Decoder@@QAEXPAV?$vector@HV?$allocator@H@std@@@std@@PBD1@Z 00424770 f i torq.obj
 0001:000239b0       ?getErrorMessage@EncodedFileReader@@UBE?AV?$basic_string@DU?$char_traits@D@std@@V?$allocator@D@2@@std@@XZ 004249b0 f i torq.obj
 0001:00023a20       ??_D?$basic_win32handle_ostream@DU?$char_traits@D@std@@@win32@@QAEXXZ 00424a20 f i torq.obj
 0001:00023a70       ??_D?$basic_ofstream@DU?$char_traits@D@std@@@std@@QAEXXZ 00424a70 f i torq.obj
 0001:00023ac0       ??1?$map@V?$vector@HV?$allocator@H@std@@@std@@UNodeFormat@Helper@text@@U?$less@V?$vector@HV?$allocator@H@std@@@std@@@2@V?$allocator@U?$pair@$$CBV?$vector@HV?$allocator@H@std@@@std@@UNodeFormat@Helper@text@@@std@@@2@@std@@QAE@XZ 00424ac0 f i torq.obj
 0001:00023b00       ??_GEncodedFileReader@@UAEPAXI@Z 00424b00 f i torq.obj
 0001:00023b00       ??_EEncodedFileReader@@UAEPAXI@Z 00424b00 f i torq.obj
 0001:00023b60       ??0FileReader@@QAE@XZ      00424b60 f i torq.obj
 0001:00023ba0       ??1EncodedFileReader@@UAE@XZ 00424ba0 f i torq.obj
 0001:00023c30       ??0?$basic_string@DU?$char_traits@D@std@@V?$allocator@D@2@@std@@QAE@XZ 00424c30 f i torq.obj
 0001:00023c90       ??0?$basic_string@DU?$char_traits@D@std@@V?$allocator@D@2@@std@@QAE@PBDI@Z 00424c90 f i torq.obj
 0001:00023d00       ??4?$basic_string@DU?$char_traits@D@std@@V?$allocator@D@2@@std@@QAEAAV01@ABV01@@Z 00424d00 f i torq.obj
 0001:00023d50       ??4?$basic_string@DU?$char_traits@D@std@@V?$allocator@D@2@@std@@QAEAAV01@PBD@Z 00424d50 f i torq.obj
 0001:00023da0       ??Y?$basic_string@DU?$char_traits@D@std@@V?$allocator@D@2@@std@@QAEAAV01@ABV01@@Z 00424da0 f i torq.obj
 0001:00023df0       ??Y?$basic_string@DU?$char_traits@D@std@@V?$allocator@D@2@@std@@QAEAAV01@PBD@Z 00424df0 f i torq.obj
 0001:00023e40       ??Y?$basic_string@DU?$char_traits@D@std@@V?$allocator@D@2@@std@@QAEAAV01@D@Z 00424e40 f i torq.obj
 0001:00023e90       ??A?$basic_string@DU?$char_traits@D@std@@V?$allocator@D@2@@std@@QAEAADI@Z 00424e90 f i torq.obj
 0001:00023ee0       ?data@?$basic_string@DU?$char_traits@D@std@@V?$allocator@D@2@@std@@QBEPBDXZ 00424ee0 f i torq.obj
 0001:00023f20       ?empty@?$basic_string@DU?$char_traits@D@std@@V?$allocator@D@2@@std@@QBE_NXZ 00424f20 f i torq.obj
 0001:00023f60       ?swap@?$basic_string@DU?$char_traits@D@std@@V?$allocator@D@2@@std@@QAEXAAV12@@Z 00424f60 f i torq.obj
 0001:000240f0       ?find@?$basic_string@DU?$char_traits@D@std@@V?$allocator@D@2@@std@@QBEIABV12@I@Z 004250f0 f i torq.obj
 0001:00024150       ?find@?$basic_string@DU?$char_traits@D@std@@V?$allocator@D@2@@std@@QBEIPBDI@Z 00425150 f i torq.obj
 0001:000241b0       ?find@?$basic_string@DU?$char_traits@D@std@@V?$allocator@D@2@@std@@QBEIDI@Z 004251b0 f i torq.obj
 0001:00024200       ??6?$basic_ostream@DU?$char_traits@D@std@@@std@@QAEAAV01@P6AAAV01@AAV01@@Z@Z 00425200 f i torq.obj
 0001:00024250       ??6?$basic_ostream@DU?$char_traits@D@std@@@std@@QAEAAV01@H@Z 00425250 f i torq.obj
 0001:000244b0       ??1locale@std@@QAE@XZ      004254b0 f i torq.obj
 0001:00024510       ?_Decref@facet@locale@std@@QAEPAV123@XZ 00425510 f i torq.obj
 0001:000245d0       ??0_Lockit@std@@QAE@H@Z    004255d0 f i torq.obj
 0001:00024600       ??1_Lockit@std@@QAE@XZ     00425600 f i torq.obj
 0001:00024630       ?flags@ios_base@std@@QBEHXZ 00425630 f i torq.obj
 0001:00024660       ?getloc@ios_base@std@@QBE?AVlocale@2@XZ 00425660 f i torq.obj
 0001:000246d0       ??0locale@std@@QAE@ABV01@@Z 004256d0 f i torq.obj
 0001:00024720       ?_Incref@facet@locale@std@@QAEXXZ 00425720 f i torq.obj
 0001:000247b0       ??6?$basic_ostream@DU?$char_traits@D@std@@@std@@QAEAAV01@I@Z 004257b0 f i torq.obj
 0001:000249c0       ??6?$basic_ostream@DU?$char_traits@D@std@@@std@@QAEAAV01@J@Z 004259c0 f i torq.obj
 0001:00024bd0       ?put@?$basic_ostream@DU?$char_traits@D@std@@@std@@QAEAAV12@D@Z 00425bd0 f i torq.obj
 0001:00024d70       ?eq_int_type@?$char_traits@D@std@@SA_NABH0@Z 00425d70 f i torq.obj
 0001:00024db0       ?eof@?$char_traits@D@std@@SAHXZ 00425db0 f i torq.obj
 0001:00024de0       ?write@?$basic_ostream@DU?$char_traits@D@std@@@std@@QAEAAV12@PBDH@Z 00425de0 f i torq.obj
 0001:00024f40       ?flush@?$basic_ostream@DU?$char_traits@D@std@@@std@@QAEAAV12@XZ 00425f40 f i torq.obj
 0001:00024fe0       ?fail@ios_base@std@@QBE_NXZ 00425fe0 f i torq.obj
 0001:00025030       ??1?$basic_ios@DU?$char_traits@D@std@@@std@@UAE@XZ 00426030 f i torq.obj
 0001:00025080       ?setstate@?$basic_ios@DU?$char_traits@D@std@@@std@@QAEXH_N@Z 00426080 f i torq.obj
 0001:000250e0       ?rdbuf@?$basic_ios@DU?$char_traits@D@std@@@std@@QBEPAV?$basic_streambuf@DU?$char_traits@D@std@@@2@XZ 004260e0 f i torq.obj
 0001:00025110       ?read@?$basic_istream@DU?$char_traits@D@std@@@std@@QAEAAV12@PADH@Z 00426110 f i torq.obj
 0001:00025290       ??1sentry@?$basic_istream@DU?$char_traits@D@std@@@std@@QAE@XZ 00426290 f i torq.obj
 0001:000252d0       ?seekg@?$basic_istream@DU?$char_traits@D@std@@@std@@QAEAAV12@JH@Z 004262d0 f i torq.obj
 0001:00025380       ?tellg@?$basic_istream@DU?$char_traits@D@std@@@std@@QAE?AV?$fpos@H@2@XZ 00426380 f i torq.obj
 0001:00025410       ??0sentry@?$basic_istream@DU?$char_traits@D@std@@@std@@QAE@AAV12@_N@Z 00426410 f i torq.obj
 0001:000254a0       ??Bsentry@?$basic_istream@DU?$char_traits@D@std@@@std@@QBE_NXZ 004264a0 f i torq.obj
 0001:000254d0       ??1_Sentry_base@?$basic_istream@DU?$char_traits@D@std@@@std@@QAE@XZ 004264d0 f i torq.obj
 0001:00025540       ??1?$optional@Vlocale@std@@@boost@@QAE@XZ 00426540 f i torq.obj
 0001:00025580       ??1?$vector@_NV?$allocator@_N@std@@@std@@QAE@XZ 00426580 f i torq.obj
 0001:000255d0       ??0?$vector@V?$basic_string@DU?$char_traits@D@std@@V?$allocator@D@2@@std@@V?$allocator@V?$basic_string@DU?$char_traits@D@std@@V?$allocator@D@2@@std@@@2@@std@@QAE@XZ 004265d0 f i torq.obj
 0001:00025630       ??0?$vector@V?$basic_string@DU?$char_traits@D@std@@V?$allocator@D@2@@std@@V?$allocator@V?$basic_string@DU?$char_traits@D@std@@V?$allocator@D@2@@std@@@2@@std@@QAE@ABV01@@Z 00426630 f i torq.obj
 0001:00025740       ??1?$vector@V?$basic_string@DU?$char_traits@D@std@@V?$allocator@D@2@@std@@V?$allocator@V?$basic_string@DU?$char_traits@D@std@@V?$allocator@D@2@@std@@@2@@std@@QAE@XZ 00426740 f i torq.obj
 0001:00025780       ?reserve@?$vector@V?$basic_string@DU?$char_traits@D@std@@V?$allocator@D@2@@std@@V?$allocator@V?$basic_string@DU?$char_traits@D@std@@V?$allocator@D@2@@std@@@2@@std@@QAEXI@Z 00426780 f i torq.obj
 0001:00025900       ?end@?$vector@V?$basic_string@DU?$char_traits@D@std@@V?$allocator@D@2@@std@@V?$allocator@V?$basic_string@DU?$char_traits@D@std@@V?$allocator@D@2@@std@@@2@@std@@QAE?AViterator@12@XZ 00426900 f i torq.obj
 0001:00025950       ?size@?$vector@V?$basic_string@DU?$char_traits@D@std@@V?$allocator@D@2@@std@@V?$allocator@V?$basic_string@DU?$char_traits@D@std@@V?$allocator@D@2@@std@@@2@@std@@QBEIXZ 00426950 f i torq.obj
 0001:000259b0       ??A?$vector@V?$basic_string@DU?$char_traits@D@std@@V?$allocator@D@2@@std@@V?$allocator@V?$basic_string@DU?$char_traits@D@std@@V?$allocator@D@2@@std@@@2@@std@@QBEABV?$basic_string@DU?$char_traits@D@std@@V?$allocator@D@2@@1@I@Z 004269b0 f i torq.obj
 0001:00025a20       ??A?$vector@V?$basic_string@DU?$char_traits@D@std@@V?$allocator@D@2@@std@@V?$allocator@V?$basic_string@DU?$char_traits@D@std@@V?$allocator@D@2@@std@@@2@@std@@QAEAAV?$basic_string@DU?$char_traits@D@std@@V?$allocator@D@2@@1@I@Z 00426a20 f i torq.obj
 0001:00025a90       ?push_back@?$vector@V?$basic_string@DU?$char_traits@D@std@@V?$allocator@D@2@@std@@V?$allocator@V?$basic_string@DU?$char_traits@D@std@@V?$allocator@D@2@@std@@@2@@std@@QAEXABV?$basic_string@DU?$char_traits@D@std@@V?$allocator@D@2@@2@@Z 00426a90 f i torq.obj
 0001:00025b30       ?clear@?$vector@V?$basic_string@DU?$char_traits@D@std@@V?$allocator@D@2@@std@@V?$allocator@V?$basic_string@DU?$char_traits@D@std@@V?$allocator@D@2@@std@@@2@@std@@QAEXXZ 00426b30 f i torq.obj
 0001:00025b70       ??0?$vector@PBDV?$allocator@PBD@std@@@std@@QAE@XZ 00426b70 f i torq.obj
 0001:00025bd0       ??1?$vector@PBDV?$allocator@PBD@std@@@std@@QAE@XZ 00426bd0 f i torq.obj
 0001:00025c10       ?resize@?$vector@PBDV?$allocator@PBD@std@@@std@@QAEXI@Z 00426c10 f i torq.obj
 0001:00025c60       ??A?$vector@PBDV?$allocator@PBD@std@@@std@@QAEAAPBDI@Z 00426c60 f i torq.obj
 0001:00025cd0       ?reserve@?$vector@HV?$allocator@H@std@@@std@@QAEXI@Z 00426cd0 f i torq.obj
 0001:00025e50       ?resize@?$vector@HV?$allocator@H@std@@@std@@QAEXI@Z 00426e50 f i torq.obj
 0001:00025ea0       ??A?$vector@HV?$allocator@H@std@@@std@@QBEABHI@Z 00426ea0 f i torq.obj
 0001:00025f10       ??A?$vector@HV?$allocator@H@std@@@std@@QAEAAHI@Z 00426f10 f i torq.obj
 0001:00025f80       ?back@?$vector@HV?$allocator@H@std@@@std@@QAEAAHXZ 00426f80 f i torq.obj
 0001:00025fe0       ?swap@?$vector@HV?$allocator@H@std@@@std@@QAEXAAV12@@Z 00426fe0 f i torq.obj
 0001:00026100       ??0?$vector@DV?$allocator@D@std@@@std@@QAE@XZ 00427100 f i torq.obj
 0001:00026160       ??1?$vector@DV?$allocator@D@std@@@std@@QAE@XZ 00427160 f i torq.obj
 0001:000261a0       ?resize@?$vector@DV?$allocator@D@std@@@std@@QAEXI@Z 004271a0 f i torq.obj
 0001:000261f0       ?size@?$vector@DV?$allocator@D@std@@@std@@QBEIXZ 004271f0 f i torq.obj
 0001:00026250       ??A?$vector@DV?$allocator@D@std@@@std@@QAEAADI@Z 00427250 f i torq.obj
 0001:000262c0       ?end@?$_Hash@V?$_Hmap_traits@HV?$basic_string@DU?$char_traits@D@std@@V?$allocator@D@2@@std@@V?$hash_compare@HU?$less@H@std@@@stdext@@V?$allocator@U?$pair@$$CBHV?$basic_string@DU?$char_traits@D@std@@V?$allocator@D@2@@std@@@std@@@2@$0A@@stdext@@@stdext@@QBE?AVconst_iterator@?$list@U?$pair@$$CBHV?$basic_string@DU?$char_traits@D@std@@V?$allocator@D@2@@std@@@std@@V?$allocator@U?$pair@$$CBHV?$basic_string@DU?$char_traits@D@std@@V?$allocator@D@2@@std@@@std@@@2@@std@@XZ 004272c0 f i torq.obj
 0001:00026310       ?find@?$_Hash@V?$_Hmap_traits@HV?$basic_string@DU?$char_traits@D@std@@V?$allocator@D@2@@std@@V?$hash_compare@HU?$less@H@std@@@stdext@@V?$allocator@U?$pair@$$CBHV?$basic_string@DU?$char_traits@D@std@@V?$allocator@D@2@@std@@@std@@@2@$0A@@stdext@@@stdext@@QBE?AVconst_iterator@?$list@U?$pair@$$CBHV?$basic_string@DU?$char_traits@D@std@@V?$allocator@D@2@@std@@@std@@V?$allocator@U?$pair@$$CBHV?$basic_string@DU?$char_traits@D@std@@V?$allocator@D@2@@std@@@std@@@2@@std@@ABH@Z 00427310 f i torq.obj
 0001:00026360       ??Cconst_iterator@?$list@U?$pair@$$CBHV?$basic_string@DU?$char_traits@D@std@@V?$allocator@D@2@@std@@@std@@V?$allocator@U?$pair@$$CBHV?$basic_string@DU?$char_traits@D@std@@V?$allocator@D@2@@std@@@std@@@2@@std@@QBEPBU?$pair@$$CBHV?$basic_string@DU?$char_traits@D@std@@V?$allocator@D@2@@std@@@2@XZ 00427360 f i torq.obj
 0001:000263a0       ??9const_iterator@?$list@U?$pair@$$CBHV?$basic_string@DU?$char_traits@D@std@@V?$allocator@D@2@@std@@@std@@V?$allocator@U?$pair@$$CBHV?$basic_string@DU?$char_traits@D@std@@V?$allocator@D@2@@std@@@std@@@2@@std@@QBE_NABV012@@Z 004273a0 f i torq.obj
 0001:000263f0       ??1?$vector@U?$format_item@DU?$char_traits@D@std@@V?$allocator@D@2@@detail@io@boost@@V?$allocator@U?$format_item@DU?$char_traits@D@std@@V?$allocator@D@2@@detail@io@boost@@@std@@@std@@QAE@XZ 004273f0 f i torq.obj
 0001:00026430       ??1?$basic_altstringbuf@DU?$char_traits@D@std@@V?$allocator@D@2@@io@boost@@UAE@XZ 00427430 f i torq.obj
 0001:000264b0       ??1?$basic_streambuf@DU?$char_traits@D@std@@@std@@UAE@XZ 004274b0 f i torq.obj
 0001:00026500       ?overflow@?$basic_streambuf@DU?$char_traits@D@std@@@std@@MAEHH@Z 00427500 f i torq.obj
 0001:00026540       ?pbackfail@?$basic_streambuf@DU?$char_traits@D@std@@@std@@MAEHH@Z 00427540 f i torq.obj
 0001:00026580       ?showmanyc@?$basic_streambuf@DU?$char_traits@D@std@@@std@@MAEHXZ 00427580 f i torq.obj
 0001:000265b0       ?underflow@?$basic_streambuf@DU?$char_traits@D@std@@@std@@MAEHXZ 004275b0 f i torq.obj
 0001:000265f0       ?uflow@?$basic_streambuf@DU?$char_traits@D@std@@@std@@MAEHXZ 004275f0 f i torq.obj
 0001:000266a0       ?to_int_type@?$char_traits@D@std@@SAHABD@Z 004276a0 f i torq.obj
 0001:000266d0       ?xsgetn@?$basic_streambuf@DU?$char_traits@D@std@@@std@@MAEHPADH@Z 004276d0 f i torq.obj
 0001:00026830       ?to_char_type@?$char_traits@D@std@@SADABH@Z 00427830 f i torq.obj
 0001:00026860       ?xsputn@?$basic_streambuf@DU?$char_traits@D@std@@@std@@MAEHPBDH@Z 00427860 f i torq.obj
 0001:000269a0       ?seekoff@?$basic_streambuf@DU?$char_traits@D@std@@@std@@MAE?AV?$fpos@H@2@JHH@Z 004279a0 f i torq.obj
 0001:000269f0       ?seekpos@?$basic_streambuf@DU?$char_traits@D@std@@@std@@MAE?AV?$fpos@H@2@V32@H@Z 004279f0 f i torq.obj
 0001:00026a40       ?setbuf@?$basic_streambuf@DU?$char_traits@D@std@@@std@@MAEPAV12@PADH@Z 00427a40 f i torq.obj
 0001:00026a70       ?sync@?$basic_streambuf@DU?$char_traits@D@std@@@std@@MAEHXZ 00427a70 f i torq.obj
 0001:00026aa0       ?imbue@?$basic_streambuf@DU?$char_traits@D@std@@@std@@MAEXABVlocale@2@@Z 00427aa0 f i torq.obj
 0001:00026ad0       ??0?$vector@UTOKEN@@V?$allocator@UTOKEN@@@std@@@std@@QAE@XZ 00427ad0 f i torq.obj
 0001:00026b30       ??0?$vector@UTOKEN@@V?$allocator@UTOKEN@@@std@@@std@@QAE@ABV01@@Z 00427b30 f i torq.obj
 0001:00026c40       ??1?$vector@UTOKEN@@V?$allocator@UTOKEN@@@std@@@std@@QAE@XZ 00427c40 f i torq.obj
 0001:00026c80       ??4?$vector@UTOKEN@@V?$allocator@UTOKEN@@@std@@@std@@QAEAAV01@ABV01@@Z 00427c80 f i torq.obj
 0001:00026e30       ?size@?$vector@UTOKEN@@V?$allocator@UTOKEN@@@std@@@std@@QBEIXZ 00427e30 f i torq.obj
 0001:00026e90       ??A?$vector@UTOKEN@@V?$allocator@UTOKEN@@@std@@@std@@QBEABUTOKEN@@I@Z 00427e90 f i torq.obj
 0001:00026f00       ??A?$vector@UTOKEN@@V?$allocator@UTOKEN@@@std@@@std@@QAEAAUTOKEN@@I@Z 00427f00 f i torq.obj
 0001:00026f70       ?push_back@?$vector@UTOKEN@@V?$allocator@UTOKEN@@@std@@@std@@QAEXABUTOKEN@@@Z 00427f70 f i torq.obj
 0001:00027010       ?clear@?$vector@UTOKEN@@V?$allocator@UTOKEN@@@std@@@std@@QAEXXZ 00428010 f i torq.obj
 0001:00027050       ?swap@?$vector@UTOKEN@@V?$allocator@UTOKEN@@@std@@@std@@QAEXAAV12@@Z 00428050 f i torq.obj
 0001:00027170       ??Hconst_iterator@?$vector@HV?$allocator@H@std@@@std@@QBE?AV012@H@Z 00428170 f i torq.obj
 0001:00027200       ??0?$vector@UTRACE_ITEM@@V?$allocator@UTRACE_ITEM@@@std@@@std@@QAE@XZ 00428200 f i torq.obj
 0001:00027260       ??0?$vector@UTRACE_ITEM@@V?$allocator@UTRACE_ITEM@@@std@@@std@@QAE@ABV01@@Z 00428260 f i torq.obj
 0001:00027370       ??1?$vector@UTRACE_ITEM@@V?$allocator@UTRACE_ITEM@@@std@@@std@@QAE@XZ 00428370 f i torq.obj
 0001:000273b0       ??4?$vector@UTRACE_ITEM@@V?$allocator@UTRACE_ITEM@@@std@@@std@@QAEAAV01@ABV01@@Z 004283b0 f i torq.obj
 0001:00027560       ?reserve@?$vector@UTRACE_ITEM@@V?$allocator@UTRACE_ITEM@@@std@@@std@@QAEXI@Z 00428560 f i torq.obj
 0001:000276e0       ?size@?$vector@UTRACE_ITEM@@V?$allocator@UTRACE_ITEM@@@std@@@std@@QBEIXZ 004286e0 f i torq.obj
 0001:00027740       ??A?$vector@UTRACE_ITEM@@V?$allocator@UTRACE_ITEM@@@std@@@std@@QBEABUTRACE_ITEM@@I@Z 00428740 f i torq.obj
 0001:000277b0       ??A?$vector@UTRACE_ITEM@@V?$allocator@UTRACE_ITEM@@@std@@@std@@QAEAAUTRACE_ITEM@@I@Z 004287b0 f i torq.obj
 0001:00027820       ?back@?$vector@UTRACE_ITEM@@V?$allocator@UTRACE_ITEM@@@std@@@std@@QAEAAUTRACE_ITEM@@XZ 00428820 f i torq.obj
 0001:00027880       ?push_back@?$vector@UTRACE_ITEM@@V?$allocator@UTRACE_ITEM@@@std@@@std@@QAEXABUTRACE_ITEM@@@Z 00428880 f i torq.obj
 0001:00027920       ?pop_back@?$vector@UTRACE_ITEM@@V?$allocator@UTRACE_ITEM@@@std@@@std@@QAEXXZ 00428920 f i torq.obj
 0001:00027990       ?swap@?$vector@UTRACE_ITEM@@V?$allocator@UTRACE_ITEM@@@std@@@std@@QAEXAAV12@@Z 00428990 f i torq.obj
 0001:00027ab0       ??0?$vector@JV?$allocator@J@std@@@std@@QAE@XZ 00428ab0 f i torq.obj
 0001:00027b10       ??0?$vector@JV?$allocator@J@std@@@std@@QAE@ABV01@@Z 00428b10 f i torq.obj
 0001:00027c20       ??1?$vector@JV?$allocator@J@std@@@std@@QAE@XZ 00428c20 f i torq.obj
 0001:00027c60       ??4?$vector@JV?$allocator@J@std@@@std@@QAEAAV01@ABV01@@Z 00428c60 f i torq.obj
 0001:00027e10       ?resize@?$vector@JV?$allocator@J@std@@@std@@QAEXI@Z 00428e10 f i torq.obj
 0001:00027e60       ?size@?$vector@JV?$allocator@J@std@@@std@@QBEIXZ 00428e60 f i torq.obj
 0001:00027ec0       ??A?$vector@JV?$allocator@J@std@@@std@@QBEABJI@Z 00428ec0 f i torq.obj
 0001:00027f30       ??A?$vector@JV?$allocator@J@std@@@std@@QAEAAJI@Z 00428f30 f i torq.obj
 0001:00027fa0       ?back@?$vector@JV?$allocator@J@std@@@std@@QAEAAJXZ 00428fa0 f i torq.obj
 0001:00028000       ?push_back@?$vector@JV?$allocator@J@std@@@std@@QAEXABJ@Z 00429000 f i torq.obj
 0001:000280a0       ?pop_back@?$vector@JV?$allocator@J@std@@@std@@QAEXXZ 004290a0 f i torq.obj
 0001:00028110       ?reserve@?$vector@PAUToken@text@@V?$allocator@PAUToken@text@@@std@@@std@@QAEXI@Z 00429110 f i torq.obj
 0001:00028290       ?back@?$vector@PAUToken@text@@V?$allocator@PAUToken@text@@@std@@@std@@QBEABQAUToken@text@@XZ 00429290 f i torq.obj
 0001:000282f0       ?push_back@?$vector@PAUToken@text@@V?$allocator@PAUToken@text@@@std@@@std@@QAEXABQAUToken@text@@@Z 004292f0 f i torq.obj
 0001:00028390       ?swap@?$vector@PAUToken@text@@V?$allocator@PAUToken@text@@@std@@@std@@QAEXAAV12@@Z 00429390 f i torq.obj
 0001:000284b0       ??A?$vector@U?$pair@V?$vector@HV?$allocator@H@std@@@std@@UGeneratedToken@text@@@std@@V?$allocator@U?$pair@V?$vector@HV?$allocator@H@std@@@std@@UGeneratedToken@text@@@std@@@2@@std@@QBEABU?$pair@V?$vector@HV?$allocator@H@std@@@std@@UGeneratedToken@text@@@1@I@Z 004294b0 f i torq.obj
 0001:00028520       ??0?$pair@II@std@@QAE@ABI0@Z 00429520 f i torq.obj
 0001:00028570       ??0?$hash_map@JUNodeFormat@Helper@text@@V?$hash_compare@JU?$less@J@std@@@stdext@@V?$allocator@U?$pair@$$CBJUNodeFormat@Helper@text@@@std@@@std@@@stdext@@QAE@XZ 00429570 f i torq.obj
 0001:000285d0       ??A?$hash_map@JUNodeFormat@Helper@text@@V?$hash_compare@JU?$less@J@std@@@stdext@@V?$allocator@U?$pair@$$CBJUNodeFormat@Helper@text@@@std@@@std@@@stdext@@QAEAAUNodeFormat@Helper@text@@ABJ@Z 004295d0 f i torq.obj
 0001:00028720       ??1?$_Hash@V?$_Hmap_traits@JUNodeFormat@Helper@text@@V?$hash_compare@JU?$less@J@std@@@stdext@@V?$allocator@U?$pair@$$CBJUNodeFormat@Helper@text@@@std@@@std@@$0A@@stdext@@@stdext@@QAE@XZ 00429720 f i torq.obj
 0001:000287a0       ?begin@?$_Hash@V?$_Hmap_traits@JUNodeFormat@Helper@text@@V?$hash_compare@JU?$less@J@std@@@stdext@@V?$allocator@U?$pair@$$CBJUNodeFormat@Helper@text@@@std@@@std@@$0A@@stdext@@@stdext@@QBE?AVconst_iterator@?$list@U?$pair@$$CBJUNodeFormat@Helper@text@@@std@@V?$allocator@U?$pair@$$CBJUNodeFormat@Helper@text@@@std@@@2@@std@@XZ 004297a0 f i torq.obj
 0001:000287f0       ?end@?$_Hash@V?$_Hmap_traits@JUNodeFormat@Helper@text@@V?$hash_compare@JU?$less@J@std@@@stdext@@V?$allocator@U?$pair@$$CBJUNodeFormat@Helper@text@@@std@@@std@@$0A@@stdext@@@stdext@@QBE?AVconst_iterator@?$list@U?$pair@$$CBJUNodeFormat@Helper@text@@@std@@V?$allocator@U?$pair@$$CBJUNodeFormat@Helper@text@@@std@@@2@@std@@XZ 004297f0 f i torq.obj
 0001:00028840       ??Cconst_iterator@?$list@U?$pair@$$CBJUNodeFormat@Helper@text@@@std@@V?$allocator@U?$pair@$$CBJUNodeFormat@Helper@text@@@std@@@2@@std@@QBEPBU?$pair@$$CBJUNodeFormat@Helper@text@@@2@XZ 00429840 f i torq.obj
 0001:00028880       ??Econst_iterator@?$list@U?$pair@$$CBJUNodeFormat@Helper@text@@@std@@V?$allocator@U?$pair@$$CBJUNodeFormat@Helper@text@@@std@@@2@@std@@QAEAAV012@XZ 00429880 f i torq.obj
 0001:000288d0       ??9const_iterator@?$list@U?$pair@$$CBJUNodeFormat@Helper@text@@@std@@V?$allocator@U?$pair@$$CBJUNodeFormat@Helper@text@@@std@@@2@@std@@QBE_NABV012@@Z 004298d0 f i torq.obj
 0001:00028920       ??0?$vector@U?$pair@_NUNodeFormatI@Helper@text@@@std@@V?$allocator@U?$pair@_NUNodeFormatI@Helper@text@@@std@@@2@@std@@QAE@XZ 00429920 f i torq.obj
 0001:00028980       ??1?$vector@U?$pair@_NUNodeFormatI@Helper@text@@@std@@V?$allocator@U?$pair@_NUNodeFormatI@Helper@text@@@std@@@2@@std@@QAE@XZ 00429980 f i torq.obj
 0001:000289c0       ?resize@?$vector@U?$pair@_NUNodeFormatI@Helper@text@@@std@@V?$allocator@U?$pair@_NUNodeFormatI@Helper@text@@@std@@@2@@std@@QAEXI@Z 004299c0 f i torq.obj
 0001:00028a20       ?size@?$vector@U?$pair@_NUNodeFormatI@Helper@text@@@std@@V?$allocator@U?$pair@_NUNodeFormatI@Helper@text@@@std@@@2@@std@@QBEIXZ 00429a20 f i torq.obj
 0001:00028a80       ??A?$vector@U?$pair@_NUNodeFormatI@Helper@text@@@std@@V?$allocator@U?$pair@_NUNodeFormatI@Helper@text@@@std@@@2@@std@@QBEABU?$pair@_NUNodeFormatI@Helper@text@@@1@I@Z 00429a80 f i torq.obj
 0001:00028af0       ??A?$vector@U?$pair@_NUNodeFormatI@Helper@text@@@std@@V?$allocator@U?$pair@_NUNodeFormatI@Helper@text@@@std@@@2@@std@@QAEAAU?$pair@_NUNodeFormatI@Helper@text@@@1@I@Z 00429af0 f i torq.obj
 0001:00028b60       ??0?$vector@V?$vector@HV?$allocator@H@std@@@std@@V?$allocator@V?$vector@HV?$allocator@H@std@@@std@@@2@@std@@QAE@XZ 00429b60 f i torq.obj
 0001:00028bc0       ??0?$vector@V?$vector@HV?$allocator@H@std@@@std@@V?$allocator@V?$vector@HV?$allocator@H@std@@@std@@@2@@std@@QAE@ABV01@@Z 00429bc0 f i torq.obj
 0001:00028cd0       ??1?$vector@V?$vector@HV?$allocator@H@std@@@std@@V?$allocator@V?$vector@HV?$allocator@H@std@@@std@@@2@@std@@QAE@XZ 00429cd0 f i torq.obj
 0001:00028d10       ?size@?$vector@V?$vector@HV?$allocator@H@std@@@std@@V?$allocator@V?$vector@HV?$allocator@H@std@@@std@@@2@@std@@QBEIXZ 00429d10 f i torq.obj
 0001:00028d70       ??A?$vector@V?$vector@HV?$allocator@H@std@@@std@@V?$allocator@V?$vector@HV?$allocator@H@std@@@std@@@2@@std@@QBEABV?$vector@HV?$allocator@H@std@@@1@I@Z 00429d70 f i torq.obj
 0001:00028de0       ??A?$vector@V?$vector@HV?$allocator@H@std@@@std@@V?$allocator@V?$vector@HV?$allocator@H@std@@@std@@@2@@std@@QAEAAV?$vector@HV?$allocator@H@std@@@1@I@Z 00429de0 f i torq.obj
 0001:00028e50       ?push_back@?$vector@V?$vector@HV?$allocator@H@std@@@std@@V?$allocator@V?$vector@HV?$allocator@H@std@@@std@@@2@@std@@QAEXABV?$vector@HV?$allocator@H@std@@@2@@Z 00429e50 f i torq.obj
 0001:00028ef0       ??0?$vector@EV?$allocator@E@std@@@std@@QAE@XZ 00429ef0 f i torq.obj
 0001:00028f50       ??1?$vector@EV?$allocator@E@std@@@std@@QAE@XZ 00429f50 f i torq.obj
 0001:00028f90       ??0?$vector@UMATCH@Interpreter@@V?$allocator@UMATCH@Interpreter@@@std@@@std@@QAE@XZ 00429f90 f i torq.obj
 0001:00028ff0       ??1?$vector@UMATCH@Interpreter@@V?$allocator@UMATCH@Interpreter@@@std@@@std@@QAE@XZ 00429ff0 f i torq.obj
 0001:00029030       ?reserve@?$vector@UMATCH@Interpreter@@V?$allocator@UMATCH@Interpreter@@@std@@@std@@QAEXI@Z 0042a030 f i torq.obj
 0001:000291b0       ?capacity@?$vector@UMATCH@Interpreter@@V?$allocator@UMATCH@Interpreter@@@std@@@std@@QBEIXZ 0042a1b0 f i torq.obj
 0001:00029210       ?begin@?$vector@UMATCH@Interpreter@@V?$allocator@UMATCH@Interpreter@@@std@@@std@@QBE?AVconst_iterator@12@XZ 0042a210 f i torq.obj
 0001:00029260       ?end@?$vector@UMATCH@Interpreter@@V?$allocator@UMATCH@Interpreter@@@std@@@std@@QBE?AVconst_iterator@12@XZ 0042a260 f i torq.obj
 0001:000292b0       ?resize@?$vector@UMATCH@Interpreter@@V?$allocator@UMATCH@Interpreter@@@std@@@std@@QAEXI@Z 0042a2b0 f i torq.obj
 0001:00029300       ?size@?$vector@UMATCH@Interpreter@@V?$allocator@UMATCH@Interpreter@@@std@@@std@@QBEIXZ 0042a300 f i torq.obj
 0001:00029360       ??A?$vector@UMATCH@Interpreter@@V?$allocator@UMATCH@Interpreter@@@std@@@std@@QAEAAUMATCH@Interpreter@@I@Z 0042a360 f i torq.obj
 0001:000293d0       ?back@?$vector@UMATCH@Interpreter@@V?$allocator@UMATCH@Interpreter@@@std@@@std@@QAEAAUMATCH@Interpreter@@XZ 0042a3d0 f i torq.obj
 0001:00029430       ?push_back@?$vector@UMATCH@Interpreter@@V?$allocator@UMATCH@Interpreter@@@std@@@std@@QAEXABUMATCH@Interpreter@@@Z 0042a430 f i torq.obj
 0001:000294d0       ?pop_back@?$vector@UMATCH@Interpreter@@V?$allocator@UMATCH@Interpreter@@@std@@@std@@QAEXXZ 0042a4d0 f i torq.obj
 0001:00029540       ??0?$pair@HH@std@@QAE@XZ   0042a540 f i torq.obj
 0001:00029580       ??0?$map@V?$vector@HV?$allocator@H@std@@@std@@VTokenSequence@text@@U?$less@V?$vector@HV?$allocator@H@std@@@std@@@2@V?$allocator@U?$pair@$$CBV?$vector@HV?$allocator@H@std@@@std@@VTokenSequence@text@@@std@@@2@@std@@QAE@XZ 0042a580 f i torq.obj
 0001:000295e0       ??A?$map@V?$vector@HV?$allocator@H@std@@@std@@VTokenSequence@text@@U?$less@V?$vector@HV?$allocator@H@std@@@std@@@2@V?$allocator@U?$pair@$$CBV?$vector@HV?$allocator@H@std@@@std@@VTokenSequence@text@@@std@@@2@@std@@QAEAAVTokenSequence@text@@ABV?$vector@HV?$allocator@H@std@@@1@@Z 0042a5e0 f i torq.obj
 0001:00029760       ??1?$_Tree@V?$_Tmap_traits@V?$vector@HV?$allocator@H@std@@@std@@VTokenSequence@text@@U?$less@V?$vector@HV?$allocator@H@std@@@std@@@2@V?$allocator@U?$pair@$$CBV?$vector@HV?$allocator@H@std@@@std@@VTokenSequence@text@@@std@@@2@$0A@@std@@@std@@QAE@XZ 0042a760 f i torq.obj
 0001:000297a0       ?end@?$_Tree@V?$_Tmap_traits@V?$vector@HV?$allocator@H@std@@@std@@VTokenSequence@text@@U?$less@V?$vector@HV?$allocator@H@std@@@std@@@2@V?$allocator@U?$pair@$$CBV?$vector@HV?$allocator@H@std@@@std@@VTokenSequence@text@@@std@@@2@$0A@@std@@@std@@QAE?AViterator@12@XZ 0042a7a0 f i torq.obj
 0001:000297f0       ?find@?$_Tree@V?$_Tmap_traits@V?$vector@HV?$allocator@H@std@@@std@@VTokenSequence@text@@U?$less@V?$vector@HV?$allocator@H@std@@@std@@@2@V?$allocator@U?$pair@$$CBV?$vector@HV?$allocator@H@std@@@std@@VTokenSequence@text@@@std@@@2@$0A@@std@@@std@@QAE?AViterator@12@ABV?$vector@HV?$allocator@H@std@@@2@@Z 0042a7f0 f i torq.obj
 0001:000298f0       ??0?$map@V?$vector@HV?$allocator@H@std@@@std@@JU?$less@V?$vector@HV?$allocator@H@std@@@std@@@2@V?$allocator@U?$pair@$$CBV?$vector@HV?$allocator@H@std@@@std@@J@std@@@2@@std@@QAE@XZ 0042a8f0 f i torq.obj
 0001:00029950       ??A?$map@V?$vector@HV?$allocator@H@std@@@std@@JU?$less@V?$vector@HV?$allocator@H@std@@@std@@@2@V?$allocator@U?$pair@$$CBV?$vector@HV?$allocator@H@std@@@std@@J@std@@@2@@std@@QAEAAJABV?$vector@HV?$allocator@H@std@@@1@@Z 0042a950 f i torq.obj
 0001:00029aa0       ??1?$_Tree@V?$_Tmap_traits@V?$vector@HV?$allocator@H@std@@@std@@JU?$less@V?$vector@HV?$allocator@H@std@@@std@@@2@V?$allocator@U?$pair@$$CBV?$vector@HV?$allocator@H@std@@@std@@J@std@@@2@$0A@@std@@@std@@QAE@XZ 0042aaa0 f i torq.obj
 0001:00029ae0       ?end@?$_Tree@V?$_Tmap_traits@V?$vector@HV?$allocator@H@std@@@std@@JU?$less@V?$vector@HV?$allocator@H@std@@@std@@@2@V?$allocator@U?$pair@$$CBV?$vector@HV?$allocator@H@std@@@std@@J@std@@@2@$0A@@std@@@std@@QAE?AViterator@12@XZ 0042aae0 f i torq.obj
 0001:00029b30       ?size@?$_Tree@V?$_Tmap_traits@V?$vector@HV?$allocator@H@std@@@std@@JU?$less@V?$vector@HV?$allocator@H@std@@@std@@@2@V?$allocator@U?$pair@$$CBV?$vector@HV?$allocator@H@std@@@std@@J@std@@@2@$0A@@std@@@std@@QBEIXZ 0042ab30 f i torq.obj
 0001:00029b60       ?find@?$_Tree@V?$_Tmap_traits@V?$vector@HV?$allocator@H@std@@@std@@JU?$less@V?$vector@HV?$allocator@H@std@@@std@@@2@V?$allocator@U?$pair@$$CBV?$vector@HV?$allocator@H@std@@@std@@J@std@@@2@$0A@@std@@@std@@QAE?AViterator@12@ABV?$vector@HV?$allocator@H@std@@@2@@Z 0042ab60 f i torq.obj
 0001:00029c60       ??0?$vector@UTSL@Interpreter@@V?$allocator@UTSL@Interpreter@@@std@@@std@@QAE@XZ 0042ac60 f i torq.obj
 0001:00029cc0       ??1?$vector@UTSL@Interpreter@@V?$allocator@UTSL@Interpreter@@@std@@@std@@QAE@XZ 0042acc0 f i torq.obj
 0001:00029d00       ?resize@?$vector@UTSL@Interpreter@@V?$allocator@UTSL@Interpreter@@@std@@@std@@QAEXI@Z 0042ad00 f i torq.obj
 0001:00029d60       ??0TSL@Interpreter@@QAE@XZ 0042ad60 f i torq.obj
 0001:00029dd0       ??0TRACE_ITEM@@QAE@XZ      0042add0 f i torq.obj
 0001:00029e40       ?size@?$vector@UTSL@Interpreter@@V?$allocator@UTSL@Interpreter@@@std@@@std@@QBEIXZ 0042ae40 f i torq.obj
 0001:00029ea0       ??A?$vector@UTSL@Interpreter@@V?$allocator@UTSL@Interpreter@@@std@@@std@@QBEABUTSL@Interpreter@@I@Z 0042aea0 f i torq.obj
 0001:00029f10       ??A?$vector@UTSL@Interpreter@@V?$allocator@UTSL@Interpreter@@@std@@@std@@QAEAAUTSL@Interpreter@@I@Z 0042af10 f i torq.obj
 0001:00029f80       ??Dconst_iterator@?$vector@UMATCH@Interpreter@@V?$allocator@UMATCH@Interpreter@@@std@@@std@@QBEABUMATCH@Interpreter@@XZ 0042af80 f i torq.obj
 0001:00029fb0       ??Cconst_iterator@?$vector@UMATCH@Interpreter@@V?$allocator@UMATCH@Interpreter@@@std@@@std@@QBEPBUMATCH@Interpreter@@XZ 0042afb0 f i torq.obj
 0001:00029ff0       ??Econst_iterator@?$vector@UMATCH@Interpreter@@V?$allocator@UMATCH@Interpreter@@@std@@@std@@QAEAAV012@XZ 0042aff0 f i torq.obj
 0001:0002a030       ??8const_iterator@?$vector@UMATCH@Interpreter@@V?$allocator@UMATCH@Interpreter@@@std@@@std@@QBE_NABV012@@Z 0042b030 f i torq.obj
 0001:0002a070       ??9const_iterator@?$vector@UMATCH@Interpreter@@V?$allocator@UMATCH@Interpreter@@@std@@@std@@QBE_NABV012@@Z 0042b070 f i torq.obj
 0001:0002a0c0       ??0?$set@JU?$less@J@std@@V?$allocator@J@2@@std@@QAE@XZ 0042b0c0 f i torq.obj
 0001:0002a120       ??1?$_Tree@V?$_Tset_traits@JU?$less@J@std@@V?$allocator@J@2@$0A@@std@@@std@@QAE@XZ 0042b120 f i torq.obj
 0001:0002a160       ?begin@?$_Tree@V?$_Tset_traits@JU?$less@J@std@@V?$allocator@J@2@$0A@@std@@@std@@QAE?AViterator@12@XZ 0042b160 f i torq.obj
 0001:0002a1b0       ?end@?$_Tree@V?$_Tset_traits@JU?$less@J@std@@V?$allocator@J@2@$0A@@std@@@std@@QAE?AViterator@12@XZ 0042b1b0 f i torq.obj
 0001:0002a200       ?insert@?$_Tree@V?$_Tset_traits@JU?$less@J@std@@V?$allocator@J@2@$0A@@std@@@std@@QAE?AU?$pair@Viterator@?$_Tree@V?$_Tset_traits@JU?$less@J@std@@V?$allocator@J@2@$0A@@std@@@std@@_N@2@ABJ@Z 0042b200 f i torq.obj
 0001:0002a430       ?find@?$_Tree@V?$_Tset_traits@JU?$less@J@std@@V?$allocator@J@2@$0A@@std@@@std@@QAE?AViterator@12@ABJ@Z 0042b430 f i torq.obj
 0001:0002a530       ??Dconst_iterator@?$_Tree@V?$_Tset_traits@JU?$less@J@std@@V?$allocator@J@2@$0A@@std@@@std@@QBEABJXZ 0042b530 f i torq.obj
 0001:0002a580       ??Econst_iterator@?$_Tree@V?$_Tset_traits@JU?$less@J@std@@V?$allocator@J@2@$0A@@std@@@std@@QAEAAV012@XZ 0042b580 f i torq.obj
 0001:0002a5d0       ??8const_iterator@?$_Tree@V?$_Tset_traits@JU?$less@J@std@@V?$allocator@J@2@$0A@@std@@@std@@QBE_NABV012@@Z 0042b5d0 f i torq.obj
 0001:0002a610       ??9const_iterator@?$_Tree@V?$_Tset_traits@JU?$less@J@std@@V?$allocator@J@2@$0A@@std@@@std@@QBE_NABV012@@Z 0042b610 f i torq.obj
 0001:0002a660       ??0?$set@V?$vector@HV?$allocator@H@std@@@std@@U?$less@V?$vector@HV?$allocator@H@std@@@std@@@2@V?$allocator@V?$vector@HV?$allocator@H@std@@@std@@@2@@std@@QAE@XZ 0042b660 f i torq.obj
 0001:0002a6c0       ??1?$_Tree@V?$_Tset_traits@V?$vector@HV?$allocator@H@std@@@std@@U?$less@V?$vector@HV?$allocator@H@std@@@std@@@2@V?$allocator@V?$vector@HV?$allocator@H@std@@@std@@@2@$0A@@std@@@std@@QAE@XZ 0042b6c0 f i torq.obj
 0001:0002a700       ?begin@?$_Tree@V?$_Tset_traits@V?$vector@HV?$allocator@H@std@@@std@@U?$less@V?$vector@HV?$allocator@H@std@@@std@@@2@V?$allocator@V?$vector@HV?$allocator@H@std@@@std@@@2@$0A@@std@@@std@@QAE?AViterator@12@XZ 0042b700 f i torq.obj
 0001:0002a750       ?end@?$_Tree@V?$_Tset_traits@V?$vector@HV?$allocator@H@std@@@std@@U?$less@V?$vector@HV?$allocator@H@std@@@std@@@2@V?$allocator@V?$vector@HV?$allocator@H@std@@@std@@@2@$0A@@std@@@std@@QAE?AViterator@12@XZ 0042b750 f i torq.obj
 0001:0002a7a0       ?insert@?$_Tree@V?$_Tset_traits@V?$vector@HV?$allocator@H@std@@@std@@U?$less@V?$vector@HV?$allocator@H@std@@@std@@@2@V?$allocator@V?$vector@HV?$allocator@H@std@@@std@@@2@$0A@@std@@@std@@QAE?AU?$pair@Viterator@?$_Tree@V?$_Tset_traits@V?$vector@HV?$allocator@H@std@@@std@@U?$less@V?$vector@HV?$allocator@H@std@@@std@@@2@V?$allocator@V?$vector@HV?$allocator@H@std@@@std@@@2@$0A@@std@@@std@@_N@2@ABV?$vector@HV?$allocator@H@std@@@2@@Z 0042b7a0 f i torq.obj
 0001:0002a9d0       ??Dconst_iterator@?$_Tree@V?$_Tset_traits@V?$vector@HV?$allocator@H@std@@@std@@U?$less@V?$vector@HV?$allocator@H@std@@@std@@@2@V?$allocator@V?$vector@HV?$allocator@H@std@@@std@@@2@$0A@@std@@@std@@QBEABV?$vector@HV?$allocator@H@std@@@2@XZ 0042b9d0 f i torq.obj
 0001:0002aa20       ??Econst_iterator@?$_Tree@V?$_Tset_traits@V?$vector@HV?$allocator@H@std@@@std@@U?$less@V?$vector@HV?$allocator@H@std@@@std@@@2@V?$allocator@V?$vector@HV?$allocator@H@std@@@std@@@2@$0A@@std@@@std@@QAEAAV012@XZ 0042ba20 f i torq.obj
 0001:0002aa70       ??9const_iterator@?$_Tree@V?$_Tset_traits@V?$vector@HV?$allocator@H@std@@@std@@U?$less@V?$vector@HV?$allocator@H@std@@@std@@@2@V?$allocator@V?$vector@HV?$allocator@H@std@@@std@@@2@$0A@@std@@@std@@QBE_NABV012@@Z 0042ba70 f i torq.obj
 0001:0002aac0       ??Citerator@?$_Tree@V?$_Tmap_traits@V?$vector@HV?$allocator@H@std@@@std@@JU?$less@V?$vector@HV?$allocator@H@std@@@std@@@2@V?$allocator@U?$pair@$$CBV?$vector@HV?$allocator@H@std@@@std@@J@std@@@2@$0A@@std@@@std@@QBEPAU?$pair@$$CBV?$vector@HV?$allocator@H@std@@@std@@J@2@XZ 0042bac0 f i torq.obj
 0001:0002ab00       ??8const_iterator@?$_Tree@V?$_Tmap_traits@V?$vector@HV?$allocator@H@std@@@std@@JU?$less@V?$vector@HV?$allocator@H@std@@@std@@@2@V?$allocator@U?$pair@$$CBV?$vector@HV?$allocator@H@std@@@std@@J@std@@@2@$0A@@std@@@std@@QBE_NABV012@@Z 0042bb00 f i torq.obj
 0001:0002ab40       ??Citerator@?$_Tree@V?$_Tmap_traits@V?$vector@HV?$allocator@H@std@@@std@@VTokenSequence@text@@U?$less@V?$vector@HV?$allocator@H@std@@@std@@@2@V?$allocator@U?$pair@$$CBV?$vector@HV?$allocator@H@std@@@std@@VTokenSequence@text@@@std@@@2@$0A@@std@@@std@@QBEPAU?$pair@$$CBV?$vector@HV?$allocator@H@std@@@std@@VTokenSequence@text@@@2@XZ 0042bb40 f i torq.obj
 0001:0002ab80       ??8const_iterator@?$_Tree@V?$_Tmap_traits@V?$vector@HV?$allocator@H@std@@@std@@VTokenSequence@text@@U?$less@V?$vector@HV?$allocator@H@std@@@std@@@2@V?$allocator@U?$pair@$$CBV?$vector@HV?$allocator@H@std@@@std@@VTokenSequence@text@@@std@@@2@$0A@@std@@@std@@QBE_NABV012@@Z 0042bb80 f i torq.obj
 0001:0002abc0       ??0?$basic_ifstream@DU?$char_traits@D@std@@@std@@QAE@XZ 0042bbc0 f i torq.obj
 0001:0002aca0       ??1?$basic_istream@DU?$char_traits@D@std@@@std@@UAE@XZ 0042bca0 f i torq.obj
 0001:0002ace0       ??1?$basic_ifstream@DU?$char_traits@D@std@@@std@@UAE@XZ 0042bce0 f i torq.obj
 0001:0002ad70       ?is_open@?$basic_ifstream@DU?$char_traits@D@std@@@std@@QBE_NXZ 0042bd70 f i torq.obj
 0001:0002adc0       ?open@?$basic_ifstream@DU?$char_traits@D@std@@@std@@QAEXPBDHH@Z 0042bdc0 f i torq.obj
 0001:0002ae30       ?close@?$basic_ifstream@DU?$char_traits@D@std@@@std@@QAEXXZ 0042be30 f i torq.obj
 0001:0002ae90       ??1?$basic_filebuf@DU?$char_traits@D@std@@@std@@UAE@XZ 0042be90 f i torq.obj
 0001:0002af30       ?overflow@?$basic_filebuf@DU?$char_traits@D@std@@@std@@MAEHH@Z 0042bf30 f i torq.obj
 0001:0002b2c0       ?not_eof@?$char_traits@D@std@@SAHABH@Z 0042c2c0 f i torq.obj
 0001:0002b330       ??$_Fputc@D@std@@YA_NDPAU_iobuf@@@Z 0042c330 f i torq.obj
 0001:0002b380       ?pbackfail@?$basic_filebuf@DU?$char_traits@D@std@@@std@@MAEHH@Z 0042c380 f i torq.obj
 0001:0002b520       ??$_Ungetc@D@std@@YA_NABDPAU_iobuf@@@Z 0042c520 f i torq.obj
 0001:0002b570       ?underflow@?$basic_filebuf@DU?$char_traits@D@std@@@std@@MAEHXZ 0042c570 f i torq.obj
 0001:0002b670       ?uflow@?$basic_filebuf@DU?$char_traits@D@std@@@std@@MAEHXZ 0042c670 f i torq.obj
 0001:0002b980       ??$_Fgetc@D@std@@YA_NAADPAU_iobuf@@@Z 0042c980 f i torq.obj
 0001:0002b9e0       ?seekoff@?$basic_filebuf@DU?$char_traits@D@std@@@std@@MAE?AV?$fpos@H@2@JHH@Z 0042c9e0 f i torq.obj
 0001:0002bbb0       ?seekpos@?$basic_filebuf@DU?$char_traits@D@std@@@std@@MAE?AV?$fpos@H@2@V32@H@Z 0042cbb0 f i torq.obj
 0001:0002bd30       ?setbuf@?$basic_filebuf@DU?$char_traits@D@std@@@std@@MAEPAV?$basic_streambuf@DU?$char_traits@D@std@@@2@PADH@Z 0042cd30 f i torq.obj
 0001:0002bde0       ?sync@?$basic_filebuf@DU?$char_traits@D@std@@@std@@MAEHXZ 0042cde0 f i torq.obj
 0001:0002bea0       ?imbue@?$basic_filebuf@DU?$char_traits@D@std@@@std@@MAEXABVlocale@2@@Z 0042cea0 f i torq.obj
 0001:0002bef0       ??B?$fpos@H@std@@QBEJXZ    0042cef0 f i torq.obj
 0001:0002bf30       ??0?$pair@JJ@std@@QAE@ABJ0@Z 0042cf30 f i torq.obj
 0001:0002bf80       ??0?$map@V?$vector@HV?$allocator@H@std@@@std@@UNodeFormat@Helper@text@@U?$less@V?$vector@HV?$allocator@H@std@@@std@@@2@V?$allocator@U?$pair@$$CBV?$vector@HV?$allocator@H@std@@@std@@UNodeFormat@Helper@text@@@std@@@2@@std@@QAE@XZ 0042cf80 f i torq.obj
 0001:0002bfe0       ??A?$map@V?$vector@HV?$allocator@H@std@@@std@@UNodeFormat@Helper@text@@U?$less@V?$vector@HV?$allocator@H@std@@@std@@@2@V?$allocator@U?$pair@$$CBV?$vector@HV?$allocator@H@std@@@std@@UNodeFormat@Helper@text@@@std@@@2@@std@@QAEAAUNodeFormat@Helper@text@@ABV?$vector@HV?$allocator@H@std@@@1@@Z 0042cfe0 f i torq.obj
 0001:0002c160       ??1?$_Tree@V?$_Tmap_traits@V?$vector@HV?$allocator@H@std@@@std@@UNodeFormat@Helper@text@@U?$less@V?$vector@HV?$allocator@H@std@@@std@@@2@V?$allocator@U?$pair@$$CBV?$vector@HV?$allocator@H@std@@@std@@UNodeFormat@Helper@text@@@std@@@2@$0A@@std@@@std@@QAE@XZ 0042d160 f i torq.obj
 0001:0002c1a0       ?begin@?$_Tree@V?$_Tmap_traits@V?$vector@HV?$allocator@H@std@@@std@@UNodeFormat@Helper@text@@U?$less@V?$vector@HV?$allocator@H@std@@@std@@@2@V?$allocator@U?$pair@$$CBV?$vector@HV?$allocator@H@std@@@std@@UNodeFormat@Helper@text@@@std@@@2@$0A@@std@@@std@@QAE?AViterator@12@XZ 0042d1a0 f i torq.obj
 0001:0002c1f0       ?end@?$_Tree@V?$_Tmap_traits@V?$vector@HV?$allocator@H@std@@@std@@UNodeFormat@Helper@text@@U?$less@V?$vector@HV?$allocator@H@std@@@std@@@2@V?$allocator@U?$pair@$$CBV?$vector@HV?$allocator@H@std@@@std@@UNodeFormat@Helper@text@@@std@@@2@$0A@@std@@@std@@QAE?AViterator@12@XZ 0042d1f0 f i torq.obj
 0001:0002c240       ?end@?$_Tree@V?$_Tmap_traits@V?$vector@HV?$allocator@H@std@@@std@@UNodeFormat@Helper@text@@U?$less@V?$vector@HV?$allocator@H@std@@@std@@@2@V?$allocator@U?$pair@$$CBV?$vector@HV?$allocator@H@std@@@std@@UNodeFormat@Helper@text@@@std@@@2@$0A@@std@@@std@@QBE?AVconst_iterator@12@XZ 0042d240 f i torq.obj
 0001:0002c290       ?clear@?$_Tree@V?$_Tmap_traits@V?$vector@HV?$allocator@H@std@@@std@@UNodeFormat@Helper@text@@U?$less@V?$vector@HV?$allocator@H@std@@@std@@@2@V?$allocator@U?$pair@$$CBV?$vector@HV?$allocator@H@std@@@std@@UNodeFormat@Helper@text@@@std@@@2@$0A@@std@@@std@@QAEXXZ 0042d290 f i torq.obj
 0001:0002c320       ?find@?$_Tree@V?$_Tmap_traits@V?$vector@HV?$allocator@H@std@@@std@@UNodeFormat@Helper@text@@U?$less@V?$vector@HV?$allocator@H@std@@@std@@@2@V?$allocator@U?$pair@$$CBV?$vector@HV?$allocator@H@std@@@std@@UNodeFormat@Helper@text@@@std@@@2@$0A@@std@@@std@@QAE?AViterator@12@ABV?$vector@HV?$allocator@H@std@@@2@@Z 0042d320 f i torq.obj
 0001:0002c420       ?find@?$_Tree@V?$_Tmap_traits@V?$vector@HV?$allocator@H@std@@@std@@UNodeFormat@Helper@text@@U?$less@V?$vector@HV?$allocator@H@std@@@std@@@2@V?$allocator@U?$pair@$$CBV?$vector@HV?$allocator@H@std@@@std@@UNodeFormat@Helper@text@@@std@@@2@$0A@@std@@@std@@QBE?AVconst_iterator@12@ABV?$vector@HV?$allocator@H@std@@@2@@Z 0042d420 f i torq.obj
 0001:0002c520       ??Cconst_iterator@?$_Tree@V?$_Tmap_traits@V?$vector@HV?$allocator@H@std@@@std@@UNodeFormat@Helper@text@@U?$less@V?$vector@HV?$allocator@H@std@@@std@@@2@V?$allocator@U?$pair@$$CBV?$vector@HV?$allocator@H@std@@@std@@UNodeFormat@Helper@text@@@std@@@2@$0A@@std@@@std@@QBEPBU?$pair@$$CBV?$vector@HV?$allocator@H@std@@@std@@UNodeFormat@Helper@text@@@2@XZ 0042d520 f i torq.obj
 0001:0002c560       ??8const_iterator@?$_Tree@V?$_Tmap_traits@V?$vector@HV?$allocator@H@std@@@std@@UNodeFormat@Helper@text@@U?$less@V?$vector@HV?$allocator@H@std@@@std@@@2@V?$allocator@U?$pair@$$CBV?$vector@HV?$allocator@H@std@@@std@@UNodeFormat@Helper@text@@@std@@@2@$0A@@std@@@std@@QBE_NABV012@@Z 0042d560 f i torq.obj
 0001:0002c5a0       ??9const_iterator@?$_Tree@V?$_Tmap_traits@V?$vector@HV?$allocator@H@std@@@std@@UNodeFormat@Helper@text@@U?$less@V?$vector@HV?$allocator@H@std@@@std@@@2@V?$allocator@U?$pair@$$CBV?$vector@HV?$allocator@H@std@@@std@@UNodeFormat@Helper@text@@@std@@@2@$0A@@std@@@std@@QBE_NABV012@@Z 0042d5a0 f i torq.obj
 0001:0002c5f0       ??0?$map@JV?$vector@HV?$allocator@H@std@@@std@@U?$less@J@2@V?$allocator@U?$pair@$$CBJV?$vector@HV?$allocator@H@std@@@std@@@std@@@2@@std@@QAE@XZ 0042d5f0 f i torq.obj
 0001:0002c650       ??A?$map@JV?$vector@HV?$allocator@H@std@@@std@@U?$less@J@2@V?$allocator@U?$pair@$$CBJV?$vector@HV?$allocator@H@std@@@std@@@std@@@2@@std@@QAEAAV?$vector@HV?$allocator@H@std@@@1@ABJ@Z 0042d650 f i torq.obj
 0001:0002c7d0       ??1?$_Tree@V?$_Tmap_traits@JV?$vector@HV?$allocator@H@std@@@std@@U?$less@J@2@V?$allocator@U?$pair@$$CBJV?$vector@HV?$allocator@H@std@@@std@@@std@@@2@$0A@@std@@@std@@QAE@XZ 0042d7d0 f i torq.obj
 0001:0002c810       ?begin@?$_Tree@V?$_Tmap_traits@JV?$vector@HV?$allocator@H@std@@@std@@U?$less@J@2@V?$allocator@U?$pair@$$CBJV?$vector@HV?$allocator@H@std@@@std@@@std@@@2@$0A@@std@@@std@@QAE?AViterator@12@XZ 0042d810 f i torq.obj
 0001:0002c860       ?end@?$_Tree@V?$_Tmap_traits@JV?$vector@HV?$allocator@H@std@@@std@@U?$less@J@2@V?$allocator@U?$pair@$$CBJV?$vector@HV?$allocator@H@std@@@std@@@std@@@2@$0A@@std@@@std@@QAE?AViterator@12@XZ 0042d860 f i torq.obj
 0001:0002c8b0       ?swap@?$_Tree@V?$_Tmap_traits@JV?$vector@HV?$allocator@H@std@@@std@@U?$less@J@2@V?$allocator@U?$pair@$$CBJV?$vector@HV?$allocator@H@std@@@std@@@std@@@2@$0A@@std@@@std@@QAEXAAV12@@Z 0042d8b0 f i torq.obj
 0001:0002c9e0       ??Cconst_iterator@?$_Tree@V?$_Tmap_traits@JV?$vector@HV?$allocator@H@std@@@std@@U?$less@J@2@V?$allocator@U?$pair@$$CBJV?$vector@HV?$allocator@H@std@@@std@@@std@@@2@$0A@@std@@@std@@QBEPBU?$pair@$$CBJV?$vector@HV?$allocator@H@std@@@std@@@2@XZ 0042d9e0 f i torq.obj
 0001:0002ca20       ??Econst_iterator@?$_Tree@V?$_Tmap_traits@JV?$vector@HV?$allocator@H@std@@@std@@U?$less@J@2@V?$allocator@U?$pair@$$CBJV?$vector@HV?$allocator@H@std@@@std@@@std@@@2@$0A@@std@@@std@@QAEAAV012@XZ 0042da20 f i torq.obj
 0001:0002ca70       ??9const_iterator@?$_Tree@V?$_Tmap_traits@JV?$vector@HV?$allocator@H@std@@@std@@U?$less@J@2@V?$allocator@U?$pair@$$CBJV?$vector@HV?$allocator@H@std@@@std@@@std@@@2@$0A@@std@@@std@@QBE_NABV012@@Z 0042da70 f i torq.obj
 0001:0002cac0       ??0?$scoped_ptr@VEncoder@common@@@boost@@QAE@PAVEncoder@common@@@Z 0042dac0 f i torq.obj
 0001:0002cb00       ??1?$scoped_ptr@VEncoder@common@@@boost@@QAE@XZ 0042db00 f i torq.obj
 0001:0002cb50       ?get@?$scoped_ptr@VEncoder@common@@@boost@@QBEPAVEncoder@common@@XZ 0042db50 f i torq.obj
 0001:0002cb80       ?swap@?$scoped_ptr@VEncoder@common@@@boost@@QAEXAAV12@@Z 0042db80 f i torq.obj
 0001:0002cbd0       ??0?$scoped_ptr@VFileReader@@@boost@@QAE@PAVFileReader@@@Z 0042dbd0 f i torq.obj
 0001:0002cc10       ??1?$scoped_ptr@VFileReader@@@boost@@QAE@XZ 0042dc10 f i torq.obj
 0001:0002cc60       ??D?$scoped_ptr@VFileReader@@@boost@@QBEAAVFileReader@@XZ 0042dc60 f i torq.obj
 0001:0002ccc0       ?swap@?$scoped_ptr@VFileReader@@@boost@@QAEXAAV12@@Z 0042dcc0 f i torq.obj
 0001:0002cd10       ??0?$basic_win32handle_ostream@DU?$char_traits@D@std@@@win32@@QAE@PAX@Z 0042dd10 f i torq.obj
 0001:0002ce30       ??1?$basic_win32handle_ostream@DU?$char_traits@D@std@@@win32@@UAE@XZ 0042de30 f i torq.obj
 0001:0002cf10       ??1?$basic_ostream@DU?$char_traits@D@std@@@std@@UAE@XZ 0042df10 f i torq.obj
 0001:0002cf50       ??0?$basic_ofstream@DU?$char_traits@D@std@@@std@@QAE@PBDHH@Z 0042df50 f i torq.obj
 0001:0002d060       ??1?$basic_ofstream@DU?$char_traits@D@std@@@std@@UAE@XZ 0042e060 f i torq.obj
 0001:0002d0f0       ??Citerator@?$_Tree@V?$_Tmap_traits@V?$vector@HV?$allocator@H@std@@@std@@UNodeFormat@Helper@text@@U?$less@V?$vector@HV?$allocator@H@std@@@std@@@2@V?$allocator@U?$pair@$$CBV?$vector@HV?$allocator@H@std@@@std@@UNodeFormat@Helper@text@@@std@@@2@$0A@@std@@@std@@QBEPAU?$pair@$$CBV?$vector@HV?$allocator@H@std@@@std@@UNodeFormat@Helper@text@@@2@XZ 0042e0f0 f i torq.obj
 0001:0002d130       ??Eiterator@?$_Tree@V?$_Tmap_traits@V?$vector@HV?$allocator@H@std@@@std@@UNodeFormat@Helper@text@@U?$less@V?$vector@HV?$allocator@H@std@@@std@@@2@V?$allocator@U?$pair@$$CBV?$vector@HV?$allocator@H@std@@@std@@UNodeFormat@Helper@text@@@std@@@2@$0A@@std@@@std@@QAEAAV012@XZ 0042e130 f i torq.obj
 0001:0002d180       ??_G?$basic_ostream@DU?$char_traits@D@std@@@std@@UAEPAXI@Z 0042e180 f i torq.obj
 0001:0002d180       ??_E?$basic_ostream@DU?$char_traits@D@std@@@std@@UAEPAXI@Z 0042e180 f i torq.obj
 0001:0002d1f0       ??_G?$basic_ios@DU?$char_traits@D@std@@@std@@UAEPAXI@Z 0042e1f0 f i torq.obj
 0001:0002d1f0       ??_E?$basic_ios@DU?$char_traits@D@std@@@std@@UAEPAXI@Z 0042e1f0 f i torq.obj
 0001:0002d250       ??_G?$basic_istream@DU?$char_traits@D@std@@@std@@UAEPAXI@Z 0042e250 f i torq.obj
 0001:0002d250       ??_E?$basic_istream@DU?$char_traits@D@std@@@std@@UAEPAXI@Z 0042e250 f i torq.obj
 0001:0002d2c0       ??_G?$basic_streambuf@DU?$char_traits@D@std@@@std@@UAEPAXI@Z 0042e2c0 f i torq.obj
 0001:0002d2c0       ??_E?$basic_streambuf@DU?$char_traits@D@std@@@std@@UAEPAXI@Z 0042e2c0 f i torq.obj
 0001:0002d320       ??_E?$basic_altstringbuf@DU?$char_traits@D@std@@V?$allocator@D@2@@io@boost@@UAEPAXI@Z 0042e320 f i torq.obj
 0001:0002d320       ??_G?$basic_altstringbuf@DU?$char_traits@D@std@@V?$allocator@D@2@@io@boost@@UAEPAXI@Z 0042e320 f i torq.obj
 0001:0002d380       ??1?$pair@$$CBJUNodeFormat@Helper@text@@@std@@QAE@XZ 0042e380 f i torq.obj
 0001:0002d3d0       ??1?$pair@$$CBV?$vector@HV?$allocator@H@std@@@std@@VTokenSequence@text@@@std@@QAE@XZ 0042e3d0 f i torq.obj
 0001:0002d450       ??1?$pair@$$CBV?$vector@HV?$allocator@H@std@@@std@@J@std@@QAE@XZ 0042e450 f i torq.obj
 0001:0002d490       ??_G?$basic_ifstream@DU?$char_traits@D@std@@@std@@UAEPAXI@Z 0042e490 f i torq.obj
 0001:0002d490       ??_E?$basic_ifstream@DU?$char_traits@D@std@@@std@@UAEPAXI@Z 0042e490 f i torq.obj
 0001:0002d500       ??_G?$basic_filebuf@DU?$char_traits@D@std@@@std@@UAEPAXI@Z 0042e500 f i torq.obj
 0001:0002d500       ??_E?$basic_filebuf@DU?$char_traits@D@std@@@std@@UAEPAXI@Z 0042e500 f i torq.obj
 0001:0002d560       ??1?$pair@$$CBV?$vector@HV?$allocator@H@std@@@std@@UNodeFormat@Helper@text@@@std@@QAE@XZ 0042e560 f i torq.obj
 0001:0002d5e0       ??1?$pair@$$CBJV?$vector@HV?$allocator@H@std@@@std@@@std@@QAE@XZ 0042e5e0 f i torq.obj
 0001:0002d630       ??_E?$basic_win32handle_ostream@DU?$char_traits@D@std@@@win32@@UAEPAXI@Z 0042e630 f i torq.obj
 0001:0002d630       ??_G?$basic_win32handle_ostream@DU?$char_traits@D@std@@@win32@@UAEPAXI@Z 0042e630 f i torq.obj
 0001:0002d6a0       ??_G?$basic_ofstream@DU?$char_traits@D@std@@@std@@UAEPAXI@Z 0042e6a0 f i torq.obj
 0001:0002d6a0       ??_E?$basic_ofstream@DU?$char_traits@D@std@@@std@@UAEPAXI@Z 0042e6a0 f i torq.obj
 0001:0002d710       ??_D?$basic_ostream@DU?$char_traits@D@std@@@std@@QAEXXZ 0042e710 f i torq.obj
 0001:0002d760       ??_D?$basic_istream@DU?$char_traits@D@std@@@std@@QAEXXZ 0042e760 f i torq.obj
 0001:0002d7b0       ??0?$basic_string@DU?$char_traits@D@std@@V?$allocator@D@2@@std@@QAE@ID@Z 0042e7b0 f i torq.obj
 0001:0002d820       ?append@?$basic_string@DU?$char_traits@D@std@@V?$allocator@D@2@@std@@QAEAAV12@ABV12@@Z 0042e820 f i torq.obj
 0001:0002d870       ?append@?$basic_string@DU?$char_traits@D@std@@V?$allocator@D@2@@std@@QAEAAV12@PBD@Z 0042e870 f i torq.obj
 0001:0002d8d0       ?append@?$basic_string@DU?$char_traits@D@std@@V?$allocator@D@2@@std@@QAEAAV12@ID@Z 0042e8d0 f i torq.obj
 0001:0002d980       ?assign@?$char_traits@D@std@@SAPADPADID@Z 0042e980 f i torq.obj
 0001:0002d9d0       ?assign@?$basic_string@DU?$char_traits@D@std@@V?$allocator@D@2@@std@@QAEAAV12@ABV12@@Z 0042e9d0 f i torq.obj
 0001:0002da20       ?begin@?$basic_string@DU?$char_traits@D@std@@V?$allocator@D@2@@std@@QAE?AViterator@12@XZ 0042ea20 f i torq.obj
 0001:0002da70       ?find@?$basic_string@DU?$char_traits@D@std@@V?$allocator@D@2@@std@@QBEIPBDII@Z 0042ea70 f i torq.obj
 0001:0002db70       ?find@?$char_traits@D@std@@SAPBDPBDIABD@Z 0042eb70 f i torq.obj
 0001:0002dbc0       ?append@?$basic_string@DU?$char_traits@D@std@@V?$_DebugHeapAllocator@D@2@@std@@QAEAAV12@ID@Z 0042ebc0 f i torq.obj
 0001:0002dc70       ?erase@?$basic_string@DU?$char_traits@D@std@@V?$_DebugHeapAllocator@D@2@@std@@QAEAAV12@II@Z 0042ec70 f i torq.obj
 0001:0002dd30       ?begin@?$basic_string@DU?$char_traits@D@std@@V?$_DebugHeapAllocator@D@2@@std@@QAE?AViterator@12@XZ 0042ed30 f i torq.obj
 0001:0002dd80       ??A?$basic_string@DU?$char_traits@D@std@@V?$_DebugHeapAllocator@D@2@@std@@QAEAADI@Z 0042ed80 f i torq.obj
 0001:0002ddd0       ?size@?$basic_string@DU?$char_traits@D@std@@V?$_DebugHeapAllocator@D@2@@std@@QBEIXZ 0042edd0 f i torq.obj
 0001:0002de00       ??0?$basic_ostream@DU?$char_traits@D@std@@@std@@QAE@PAV?$basic_streambuf@DU?$char_traits@D@std@@@1@_N@Z 0042ee00 f i torq.obj
 0001:0002ded0       ?clear@?$basic_ios@DU?$char_traits@D@std@@@std@@QAEXH_N@Z 0042eed0 f i torq.obj
 0001:0002df40       ?fill@?$basic_ios@DU?$char_traits@D@std@@@std@@QBEDXZ 0042ef40 f i torq.obj
 0001:0002df70       ??0?$basic_ios@DU?$char_traits@D@std@@@std@@IAE@XZ 0042ef70 f i torq.obj
 0001:0002dfc0       ??0ios_base@std@@IAE@XZ    0042efc0 f i torq.obj
 0001:0002e000       ??_Eios_base@std@@UAEPAXI@Z 0042f000 f i torq.obj
 0001:0002e000       ??_Gios_base@std@@UAEPAXI@Z 0042f000 f i torq.obj
 0001:0002e060       ??0?$basic_istream@DU?$char_traits@D@std@@@std@@QAE@PAV?$basic_streambuf@DU?$char_traits@D@std@@@1@_N1@Z 0042f060 f i torq.obj
 0001:0002e140       ?_Ipfx@?$basic_istream@DU?$char_traits@D@std@@@std@@QAE_N_N@Z 0042f140 f i torq.obj
 0001:0002e3f0       ?is@?$ctype@D@std@@QBE_NFD@Z 0042f3f0 f i torq.obj
 0001:0002e440       ?sgetc@?$basic_streambuf@DU?$char_traits@D@std@@@std@@QAEHXZ 0042f440 f i torq.obj
 0001:0002e4e0       ?snextc@?$basic_streambuf@DU?$char_traits@D@std@@@std@@QAEHXZ 0042f4e0 f i torq.obj
 0001:0002e570       ??0_Sentry_base@?$basic_istream@DU?$char_traits@D@std@@@std@@QAE@AAV12@@Z 0042f570 f i torq.obj
 0001:0002e5f0       ?pubseekoff@?$basic_streambuf@DU?$char_traits@D@std@@@std@@QAE?AV?$fpos@H@2@JHH@Z 0042f5f0 f i torq.obj
 0001:0002e650       ?pubsync@?$basic_streambuf@DU?$char_traits@D@std@@@std@@QAEHXZ 0042f650 f i torq.obj
 0001:0002e6a0       ?sbumpc@?$basic_streambuf@DU?$char_traits@D@std@@@std@@QAEHXZ 0042f6a0 f i torq.obj
 0001:0002e740       ?sgetn@?$basic_streambuf@DU?$char_traits@D@std@@@std@@QAEHPADH@Z 0042f740 f i torq.obj
 0001:0002e7a0       ?sputc@?$basic_streambuf@DU?$char_traits@D@std@@@std@@QAEHD@Z 0042f7a0 f i torq.obj
 0001:0002e860       ?sputn@?$basic_streambuf@DU?$char_traits@D@std@@@std@@QAEHPBDH@Z 0042f860 f i torq.obj
 0001:0002e8c0       ?_Unlock@?$basic_streambuf@DU?$char_traits@D@std@@@std@@QAEXXZ 0042f8c0 f i torq.obj
 0001:0002e910       ?_Unlock@_Mutex@std@@QAEXXZ 0042f910 f i torq.obj
 0001:0002e940       ?eback@?$basic_streambuf@DU?$char_traits@D@std@@@std@@IBEPADXZ 0042f940 f i torq.obj
 0001:0002e980       ?gptr@?$basic_streambuf@DU?$char_traits@D@std@@@std@@IBEPADXZ 0042f980 f i torq.obj
 0001:0002e9c0       ?pptr@?$basic_streambuf@DU?$char_traits@D@std@@@std@@IBEPADXZ 0042f9c0 f i torq.obj
 0001:0002ea00       ?egptr@?$basic_streambuf@DU?$char_traits@D@std@@@std@@IBEPADXZ 0042fa00 f i torq.obj
 0001:0002ea40       ?gbump@?$basic_streambuf@DU?$char_traits@D@std@@@std@@IAEXH@Z 0042fa40 f i torq.obj
 0001:0002eaa0       ?setg@?$basic_streambuf@DU?$char_traits@D@std@@@std@@IAEXPAD00@Z 0042faa0 f i torq.obj
 0001:0002eaf0       ?epptr@?$basic_streambuf@DU?$char_traits@D@std@@@std@@IBEPADXZ 0042faf0 f i torq.obj
 0001:0002eb30       ?_Gndec@?$basic_streambuf@DU?$char_traits@D@std@@@std@@IAEPADXZ 0042fb30 f i torq.obj
 0001:0002eb90       ?_Gninc@?$basic_streambuf@DU?$char_traits@D@std@@@std@@IAEPADXZ 0042fb90 f i torq.obj
 0001:0002ec00       ?pbump@?$basic_streambuf@DU?$char_traits@D@std@@@std@@IAEXH@Z 0042fc00 f i torq.obj
 0001:0002ec60       ?_Pninc@?$basic_streambuf@DU?$char_traits@D@std@@@std@@IAEPADXZ 0042fc60 f i torq.obj
 0001:0002ecd0       ??1?$optional_base@Vlocale@std@@@optional_detail@boost@@IAE@XZ 0042fcd0 f i torq.obj
 0001:0002ed10       ??1?$vector@IV?$allocator@I@std@@@std@@QAE@XZ 0042fd10 f i torq.obj
 0001:0002ed50       ?capacity@?$vector@V?$basic_string@DU?$char_traits@D@std@@V?$allocator@D@2@@std@@V?$allocator@V?$basic_string@DU?$char_traits@D@std@@V?$allocator@D@2@@std@@@2@@std@@QBEIXZ 0042fd50 f i torq.obj
 0001:0002edb0       ?begin@?$vector@V?$basic_string@DU?$char_traits@D@std@@V?$allocator@D@2@@std@@V?$allocator@V?$basic_string@DU?$char_traits@D@std@@V?$allocator@D@2@@std@@@2@@std@@QAE?AViterator@12@XZ 0042fdb0 f i torq.obj
 0001:0002ee00       ?begin@?$vector@V?$basic_string@DU?$char_traits@D@std@@V?$allocator@D@2@@std@@V?$allocator@V?$basic_string@DU?$char_traits@D@std@@V?$allocator@D@2@@std@@@2@@std@@QBE?AVconst_iterator@12@XZ 0042fe00 f i torq.obj
 0001:0002ee50       ?end@?$vector@V?$basic_string@DU?$char_traits@D@std@@V?$allocator@D@2@@std@@V?$allocator@V?$basic_string@DU?$char_traits@D@std@@V?$allocator@D@2@@std@@@2@@std@@QBE?AVconst_iterator@12@XZ 0042fe50 f i torq.obj
 0001:0002eea0       ?max_size@?$vector@V?$basic_string@DU?$char_traits@D@std@@V?$allocator@D@2@@std@@V?$allocator@V?$basic_string@DU?$char_traits@D@std@@V?$allocator@D@2@@std@@@2@@std@@QBEIXZ 0042fea0 f i torq.obj
 0001:0002eee0       ?insert@?$vector@V?$basic_string@DU?$char_traits@D@std@@V?$allocator@D@2@@std@@V?$allocator@V?$basic_string@DU?$char_traits@D@std@@V?$allocator@D@2@@std@@@2@@std@@QAE?AViterator@12@V312@ABV?$basic_string@DU?$char_traits@D@std@@V?$allocator@D@2@@2@@Z 0042fee0 f i torq.obj
 0001:0002ef90       ?_Buy@?$vector@V?$basic_string@DU?$char_traits@D@std@@V?$allocator@D@2@@std@@V?$allocator@V?$basic_string@DU?$char_traits@D@std@@V?$allocator@D@2@@std@@@2@@std@@IAE_NI@Z 0042ff90 f i torq.obj
 0001:0002f040       ?_Destroy@?$vector@V?$basic_string@DU?$char_traits@D@std@@V?$allocator@D@2@@std@@V?$allocator@V?$basic_string@DU?$char_traits@D@std@@V?$allocator@D@2@@std@@@2@@std@@IAEXPAV?$basic_string@DU?$char_traits@D@std@@V?$allocator@D@2@@2@0@Z 00430040 f i torq.obj
 0001:0002f090       ?_Tidy@?$vector@V?$basic_string@DU?$char_traits@D@std@@V?$allocator@D@2@@std@@V?$allocator@V?$basic_string@DU?$char_traits@D@std@@V?$allocator@D@2@@std@@@2@@std@@IAEXXZ 00430090 f i torq.obj
 0001:0002f130       ?_Ufill@?$vector@V?$basic_string@DU?$char_traits@D@std@@V?$allocator@D@2@@std@@V?$allocator@V?$basic_string@DU?$char_traits@D@std@@V?$allocator@D@2@@std@@@2@@std@@IAEPAV?$basic_string@DU?$char_traits@D@std@@V?$allocator@D@2@@2@PAV32@IABV32@@Z 00430130 f i torq.obj
 0001:0002f190       ?_Xlen@?$vector@V?$basic_string@DU?$char_traits@D@std@@V?$allocator@D@2@@std@@V?$allocator@V?$basic_string@DU?$char_traits@D@std@@V?$allocator@D@2@@std@@@2@@std@@IBEXXZ 00430190 f i torq.obj
 0001:0002f220       ??0?$_Vector_val@V?$basic_string@DU?$char_traits@D@std@@V?$allocator@D@2@@std@@V?$allocator@V?$basic_string@DU?$char_traits@D@std@@V?$allocator@D@2@@std@@@2@@std@@IAE@V?$allocator@V?$basic_string@DU?$char_traits@D@std@@V?$allocator@D@2@@std@@@1@@Z 00430220 f i torq.obj
 0001:0002f270       ??0?$allocator@V?$basic_string@DU?$char_traits@D@std@@V?$allocator@D@2@@std@@@std@@QAE@XZ 00430270 f i torq.obj
 0001:0002f2a0       ??0?$allocator@V?$basic_string@DU?$char_traits@D@std@@V?$allocator@D@2@@std@@@std@@QAE@ABV01@@Z 004302a0 f i torq.obj
 0001:0002f2d0       ?deallocate@?$allocator@V?$basic_string@DU?$char_traits@D@std@@V?$allocator@D@2@@std@@@std@@QAEXPAV?$basic_string@DU?$char_traits@D@std@@V?$allocator@D@2@@2@I@Z 004302d0 f i torq.obj
 0001:0002f320       ?allocate@?$allocator@V?$basic_string@DU?$char_traits@D@std@@V?$allocator@D@2@@std@@@std@@QAEPAV?$basic_string@DU?$char_traits@D@std@@V?$allocator@D@2@@2@I@Z 00430320 f i torq.obj
 0001:0002f370       ?begin@?$vector@PBDV?$allocator@PBD@std@@@std@@QAE?AViterator@12@XZ 00430370 f i torq.obj
 0001:0002f3c0       ?resize@?$vector@PBDV?$allocator@PBD@std@@@std@@QAEXIPBD@Z 004303c0 f i torq.obj
 0001:0002f490       ?_Buy@?$vector@PBDV?$allocator@PBD@std@@@std@@IAE_NI@Z 00430490 f i torq.obj
 0001:0002f540       ?_Tidy@?$vector@PBDV?$allocator@PBD@std@@@std@@IAEXXZ 00430540 f i torq.obj
 0001:0002f5e0       ??0?$_Vector_val@PBDV?$allocator@PBD@std@@@std@@IAE@V?$allocator@PBD@1@@Z 004305e0 f i torq.obj
 0001:0002f630       ??0?$allocator@PBD@std@@QAE@XZ 00430630 f i torq.obj
 0001:0002f660       ?resize@?$vector@HV?$allocator@H@std@@@std@@QAEXIH@Z 00430660 f i torq.obj
 0001:0002f730       ?begin@?$vector@DV?$allocator@D@std@@@std@@QAE?AViterator@12@XZ 00430730 f i torq.obj
 0001:0002f780       ?resize@?$vector@DV?$allocator@D@std@@@std@@QAEXID@Z 00430780 f i torq.obj
 0001:0002f850       ?_Buy@?$vector@DV?$allocator@D@std@@@std@@IAE_NI@Z 00430850 f i torq.obj
 0001:0002f900       ?_Tidy@?$vector@DV?$allocator@D@std@@@std@@IAEXXZ 00430900 f i torq.obj
 0001:0002f990       ??0?$_Vector_val@DV?$allocator@D@std@@@std@@IAE@V?$allocator@D@1@@Z 00430990 f i torq.obj
 0001:0002f9e0       ?lower_bound@?$_Hash@V?$_Hmap_traits@HV?$basic_string@DU?$char_traits@D@std@@V?$allocator@D@2@@std@@V?$hash_compare@HU?$less@H@std@@@stdext@@V?$allocator@U?$pair@$$CBHV?$basic_string@DU?$char_traits@D@std@@V?$allocator@D@2@@std@@@std@@@2@$0A@@stdext@@@stdext@@QBE?AVconst_iterator@?$list@U?$pair@$$CBHV?$basic_string@DU?$char_traits@D@std@@V?$allocator@D@2@@std@@@std@@V?$allocator@U?$pair@$$CBHV?$basic_string@DU?$char_traits@D@std@@V?$allocator@D@2@@std@@@std@@@2@@std@@ABH@Z 004309e0 f i torq.obj
 0001:0002fb40       ?end@?$list@U?$pair@$$CBHV?$basic_string@DU?$char_traits@D@std@@V?$allocator@D@2@@std@@@std@@V?$allocator@U?$pair@$$CBHV?$basic_string@DU?$char_traits@D@std@@V?$allocator@D@2@@std@@@std@@@2@@std@@QBE?AVconst_iterator@12@XZ 00430b40 f i torq.obj
 0001:0002fb90       ??Dconst_iterator@?$list@U?$pair@$$CBHV?$basic_string@DU?$char_traits@D@std@@V?$allocator@D@2@@std@@@std@@V?$allocator@U?$pair@$$CBHV?$basic_string@DU?$char_traits@D@std@@V?$allocator@D@2@@std@@@std@@@2@@std@@QBEABU?$pair@$$CBHV?$basic_string@DU?$char_traits@D@std@@V?$allocator@D@2@@std@@@2@XZ 00430b90 f i torq.obj
 0001:0002fbe0       ??8const_iterator@?$list@U?$pair@$$CBHV?$basic_string@DU?$char_traits@D@std@@V?$allocator@D@2@@std@@@std@@V?$allocator@U?$pair@$$CBHV?$basic_string@DU?$char_traits@D@std@@V?$allocator@D@2@@std@@@std@@@2@@std@@QBE_NABV012@@Z 00430be0 f i torq.obj
 0001:0002fc20       ?_Tidy@?$vector@U?$format_item@DU?$char_traits@D@std@@V?$allocator@D@2@@detail@io@boost@@V?$allocator@U?$format_item@DU?$char_traits@D@std@@V?$allocator@D@2@@detail@io@boost@@@std@@@std@@IAEXXZ 00430c20 f i torq.obj
 0001:0002fcc0       ?capacity@?$vector@UTOKEN@@V?$allocator@UTOKEN@@@std@@@std@@QBEIXZ 00430cc0 f i torq.obj
 0001:0002fd20       ?begin@?$vector@UTOKEN@@V?$allocator@UTOKEN@@@std@@@std@@QAE?AViterator@12@XZ 00430d20 f i torq.obj
 0001:0002fd70       ?begin@?$vector@UTOKEN@@V?$allocator@UTOKEN@@@std@@@std@@QBE?AVconst_iterator@12@XZ 00430d70 f i torq.obj
 0001:0002fdc0       ?end@?$vector@UTOKEN@@V?$allocator@UTOKEN@@@std@@@std@@QAE?AViterator@12@XZ 00430dc0 f i torq.obj
 0001:0002fe10       ?end@?$vector@UTOKEN@@V?$allocator@UTOKEN@@@std@@@std@@QBE?AVconst_iterator@12@XZ 00430e10 f i torq.obj
 0001:0002fe60       ?insert@?$vector@UTOKEN@@V?$allocator@UTOKEN@@@std@@@std@@QAE?AViterator@12@V312@ABUTOKEN@@@Z 00430e60 f i torq.obj
 0001:0002ff10       ?_Buy@?$vector@UTOKEN@@V?$allocator@UTOKEN@@@std@@@std@@IAE_NI@Z 00430f10 f i torq.obj
 0001:0002ffc0       ?_Destroy@?$vector@UTOKEN@@V?$allocator@UTOKEN@@@std@@@std@@IAEXPAUTOKEN@@0@Z 00430fc0 f i torq.obj
 0001:00030010       ?_Tidy@?$vector@UTOKEN@@V?$allocator@UTOKEN@@@std@@@std@@IAEXXZ 00431010 f i torq.obj
 0001:000300b0       ?_Ufill@?$vector@UTOKEN@@V?$allocator@UTOKEN@@@std@@@std@@IAEPAUTOKEN@@PAU3@IABU3@@Z 004310b0 f i torq.obj
 0001:00030110       ??0?$_Vector_val@UTOKEN@@V?$allocator@UTOKEN@@@std@@@std@@IAE@V?$allocator@UTOKEN@@@1@@Z 00431110 f i torq.obj
 0001:00030160       ??0?$allocator@UTOKEN@@@std@@QAE@XZ 00431160 f i torq.obj
 0001:00030190       ??0?$allocator@UTOKEN@@@std@@QAE@ABV01@@Z 00431190 f i torq.obj
 0001:000301c0       ?deallocate@?$allocator@UTOKEN@@@std@@QAEXPAUTOKEN@@I@Z 004311c0 f i torq.obj
 0001:00030210       ??Diterator@?$vector@HV?$allocator@H@std@@@std@@QBEAAHXZ 00431210 f i torq.obj
 0001:00030250       ??Giterator@?$vector@HV?$allocator@H@std@@@std@@QBE?AV012@H@Z 00431250 f i torq.obj
 0001:000302e0       ??Yconst_iterator@?$vector@HV?$allocator@H@std@@@std@@QAEAAV012@H@Z 004312e0 f i torq.obj
 0001:00030320       ?capacity@?$vector@UTRACE_ITEM@@V?$allocator@UTRACE_ITEM@@@std@@@std@@QBEIXZ 00431320 f i torq.obj
 0001:00030380       ?begin@?$vector@UTRACE_ITEM@@V?$allocator@UTRACE_ITEM@@@std@@@std@@QAE?AViterator@12@XZ 00431380 f i torq.obj
 0001:000303d0       ?begin@?$vector@UTRACE_ITEM@@V?$allocator@UTRACE_ITEM@@@std@@@std@@QBE?AVconst_iterator@12@XZ 004313d0 f i torq.obj
 0001:00030420       ?end@?$vector@UTRACE_ITEM@@V?$allocator@UTRACE_ITEM@@@std@@@std@@QAE?AViterator@12@XZ 00431420 f i torq.obj
 0001:00030470       ?end@?$vector@UTRACE_ITEM@@V?$allocator@UTRACE_ITEM@@@std@@@std@@QBE?AVconst_iterator@12@XZ 00431470 f i torq.obj
 0001:000304c0       ?max_size@?$vector@UTRACE_ITEM@@V?$allocator@UTRACE_ITEM@@@std@@@std@@QBEIXZ 004314c0 f i torq.obj
 0001:00030500       ?empty@?$vector@UTRACE_ITEM@@V?$allocator@UTRACE_ITEM@@@std@@@std@@QBE_NXZ 00431500 f i torq.obj
 0001:00030550       ?insert@?$vector@UTRACE_ITEM@@V?$allocator@UTRACE_ITEM@@@std@@@std@@QAE?AViterator@12@V312@ABUTRACE_ITEM@@@Z 00431550 f i torq.obj
 0001:00030600       ?clear@?$vector@UTRACE_ITEM@@V?$allocator@UTRACE_ITEM@@@std@@@std@@QAEXXZ 00431600 f i torq.obj
 0001:00030640       ?_Buy@?$vector@UTRACE_ITEM@@V?$allocator@UTRACE_ITEM@@@std@@@std@@IAE_NI@Z 00431640 f i torq.obj
 0001:000306f0       ?_Destroy@?$vector@UTRACE_ITEM@@V?$allocator@UTRACE_ITEM@@@std@@@std@@IAEXPAUTRACE_ITEM@@0@Z 004316f0 f i torq.obj
 0001:00030740       ?_Tidy@?$vector@UTRACE_ITEM@@V?$allocator@UTRACE_ITEM@@@std@@@std@@IAEXXZ 00431740 f i torq.obj
 0001:000307e0       ?_Ufill@?$vector@UTRACE_ITEM@@V?$allocator@UTRACE_ITEM@@@std@@@std@@IAEPAUTRACE_ITEM@@PAU3@IABU3@@Z 004317e0 f i torq.obj
 0001:00030840       ?_Xlen@?$vector@UTRACE_ITEM@@V?$allocator@UTRACE_ITEM@@@std@@@std@@IBEXXZ 00431840 f i torq.obj
 0001:000308d0       ??0?$_Vector_val@UTRACE_ITEM@@V?$allocator@UTRACE_ITEM@@@std@@@std@@IAE@V?$allocator@UTRACE_ITEM@@@1@@Z 004318d0 f i torq.obj
 0001:00030920       ??0?$allocator@UTRACE_ITEM@@@std@@QAE@XZ 00431920 f i torq.obj
 0001:00030950       ??0?$allocator@UTRACE_ITEM@@@std@@QAE@ABV01@@Z 00431950 f i torq.obj
 0001:00030980       ?deallocate@?$allocator@UTRACE_ITEM@@@std@@QAEXPAUTRACE_ITEM@@I@Z 00431980 f i torq.obj
 0001:000309d0       ?allocate@?$allocator@UTRACE_ITEM@@@std@@QAEPAUTRACE_ITEM@@I@Z 004319d0 f i torq.obj
 0001:00030a20       ?capacity@?$vector@JV?$allocator@J@std@@@std@@QBEIXZ 00431a20 f i torq.obj
 0001:00030a80       ?begin@?$vector@JV?$allocator@J@std@@@std@@QAE?AViterator@12@XZ 00431a80 f i torq.obj
 0001:00030ad0       ?begin@?$vector@JV?$allocator@J@std@@@std@@QBE?AVconst_iterator@12@XZ 00431ad0 f i torq.obj
 0001:00030b20       ?end@?$vector@JV?$allocator@J@std@@@std@@QAE?AViterator@12@XZ 00431b20 f i torq.obj
 0001:00030b70       ?end@?$vector@JV?$allocator@J@std@@@std@@QBE?AVconst_iterator@12@XZ 00431b70 f i torq.obj
 0001:00030bc0       ?resize@?$vector@JV?$allocator@J@std@@@std@@QAEXIJ@Z 00431bc0 f i torq.obj
 0001:00030c90       ?empty@?$vector@JV?$allocator@J@std@@@std@@QBE_NXZ 00431c90 f i torq.obj
 0001:00030ce0       ?insert@?$vector@JV?$allocator@J@std@@@std@@QAE?AViterator@12@V312@ABJ@Z 00431ce0 f i torq.obj
 0001:00030d90       ?clear@?$vector@JV?$allocator@J@std@@@std@@QAEXXZ 00431d90 f i torq.obj
 0001:00030dd0       ?_Buy@?$vector@JV?$allocator@J@std@@@std@@IAE_NI@Z 00431dd0 f i torq.obj
 0001:00030e80       ?_Destroy@?$vector@JV?$allocator@J@std@@@std@@IAEXPAJ0@Z 00431e80 f i torq.obj
 0001:00030ed0       ?_Tidy@?$vector@JV?$allocator@J@std@@@std@@IAEXXZ 00431ed0 f i torq.obj
 0001:00030f70       ?_Ufill@?$vector@JV?$allocator@J@std@@@std@@IAEPAJPAJIABJ@Z 00431f70 f i torq.obj
 0001:00030fd0       ??0?$_Vector_val@JV?$allocator@J@std@@@std@@IAE@V?$allocator@J@1@@Z 00431fd0 f i torq.obj
 0001:00031020       ??0?$allocator@J@std@@QAE@XZ 00432020 f i torq.obj
 0001:00031050       ??0?$allocator@J@std@@QAE@ABV01@@Z 00432050 f i torq.obj
 0001:00031080       ?deallocate@?$allocator@J@std@@QAEXPAJI@Z 00432080 f i torq.obj
 0001:000310d0       ??0?$vector@PAUToken@text@@V?$allocator@PAUToken@text@@@std@@@std@@QAE@ABV01@@Z 004320d0 f i torq.obj
 0001:000311e0       ??4?$vector@PAUToken@text@@V?$allocator@PAUToken@text@@@std@@@std@@QAEAAV01@ABV01@@Z 004321e0 f i torq.obj
 0001:00031390       ?end@?$vector@PAUToken@text@@V?$allocator@PAUToken@text@@@std@@@std@@QBE?AVconst_iterator@12@XZ 00432390 f i torq.obj
 0001:000313e0       ?insert@?$vector@PAUToken@text@@V?$allocator@PAUToken@text@@@std@@@std@@QAE?AViterator@12@V312@ABQAUToken@text@@@Z 004323e0 f i torq.obj
 0001:00031490       ??0?$_Hash@V?$_Hmap_traits@JUNodeFormat@Helper@text@@V?$hash_compare@JU?$less@J@std@@@stdext@@V?$allocator@U?$pair@$$CBJUNodeFormat@Helper@text@@@std@@@std@@$0A@@stdext@@@stdext@@QAE@ABV?$hash_compare@JU?$less@J@std@@@1@ABV?$allocator@U?$pair@$$CBJUNodeFormat@Helper@text@@@std@@@std@@@Z 00432490 f i torq.obj
 0001:00031560       ?end@?$_Hash@V?$_Hmap_traits@JUNodeFormat@Helper@text@@V?$hash_compare@JU?$less@J@std@@@stdext@@V?$allocator@U?$pair@$$CBJUNodeFormat@Helper@text@@@std@@@std@@$0A@@stdext@@@stdext@@QAE?AViterator@?$list@U?$pair@$$CBJUNodeFormat@Helper@text@@@std@@V?$allocator@U?$pair@$$CBJUNodeFormat@Helper@text@@@std@@@2@@std@@XZ 00432560 f i torq.obj
 0001:000315b0       ?insert@?$_Hash@V?$_Hmap_traits@JUNodeFormat@Helper@text@@V?$hash_compare@JU?$less@J@std@@@stdext@@V?$allocator@U?$pair@$$CBJUNodeFormat@Helper@text@@@std@@@std@@$0A@@stdext@@@stdext@@QAE?AU?$pair@Viterator@?$list@U?$pair@$$CBJUNodeFormat@Helper@text@@@std@@V?$allocator@U?$pair@$$CBJUNodeFormat@Helper@text@@@std@@@2@@std@@_N@std@@ABU?$pair@$$CBJUNodeFormat@Helper@text@@@4@@Z 004325b0 f i torq.obj
 0001:00031a60       ?lower_bound@?$_Hash@V?$_Hmap_traits@JUNodeFormat@Helper@text@@V?$hash_compare@JU?$less@J@std@@@stdext@@V?$allocator@U?$pair@$$CBJUNodeFormat@Helper@text@@@std@@@std@@$0A@@stdext@@@stdext@@QAE?AViterator@?$list@U?$pair@$$CBJUNodeFormat@Helper@text@@@std@@V?$allocator@U?$pair@$$CBJUNodeFormat@Helper@text@@@std@@@2@@std@@ABJ@Z 00432a60 f i torq.obj
 0001:00031bc0       ??0?$allocator@U?$pair@$$CBJUNodeFormat@Helper@text@@@std@@@std@@QAE@XZ 00432bc0 f i torq.obj
 0001:00031bf0       ??0?$hash_compare@JU?$less@J@std@@@stdext@@QAE@XZ 00432bf0 f i torq.obj
 0001:00031c20       ??R?$less@J@std@@QBE_NABJ0@Z 00432c20 f i torq.obj
 0001:00031c60       ?_Nextnode@?$list@U?$pair@$$CBJUNodeFormat@Helper@text@@@std@@V?$allocator@U?$pair@$$CBJUNodeFormat@Helper@text@@@std@@@2@@std@@KAAAPAU_Node@?$_List_nod@U?$pair@$$CBJUNodeFormat@Helper@text@@@std@@V?$allocator@U?$pair@$$CBJUNodeFormat@Helper@text@@@std@@@2@@2@PAU342@@Z 00432c60 f i torq.obj
 0001:00031c90       ??1?$list@U?$pair@$$CBJUNodeFormat@Helper@text@@@std@@V?$allocator@U?$pair@$$CBJUNodeFormat@Helper@text@@@std@@@2@@std@@QAE@XZ 00432c90 f i torq.obj
 0001:00031cd0       ?begin@?$list@U?$pair@$$CBJUNodeFormat@Helper@text@@@std@@V?$allocator@U?$pair@$$CBJUNodeFormat@Helper@text@@@std@@@2@@std@@QBE?AVconst_iterator@12@XZ 00432cd0 f i torq.obj
 0001:00031d30       ?end@?$list@U?$pair@$$CBJUNodeFormat@Helper@text@@@std@@V?$allocator@U?$pair@$$CBJUNodeFormat@Helper@text@@@std@@@2@@std@@QBE?AVconst_iterator@12@XZ 00432d30 f i torq.obj
 0001:00031d80       ??1?$vector@Viterator@?$list@U?$pair@$$CBJUNodeFormat@Helper@text@@@std@@V?$allocator@U?$pair@$$CBJUNodeFormat@Helper@text@@@std@@@2@@std@@V?$allocator@Viterator@?$list@U?$pair@$$CBJUNodeFormat@Helper@text@@@std@@V?$allocator@U?$pair@$$CBJUNodeFormat@Helper@text@@@std@@@2@@std@@@3@@std@@QAE@XZ 00432d80 f i torq.obj
 0001:00031dc0       ??Dconst_iterator@?$list@U?$pair@$$CBJUNodeFormat@Helper@text@@@std@@V?$allocator@U?$pair@$$CBJUNodeFormat@Helper@text@@@std@@@2@@std@@QBEABU?$pair@$$CBJUNodeFormat@Helper@text@@@2@XZ 00432dc0 f i torq.obj
 0001:00031e10       ??8const_iterator@?$list@U?$pair@$$CBJUNodeFormat@Helper@text@@@std@@V?$allocator@U?$pair@$$CBJUNodeFormat@Helper@text@@@std@@@2@@std@@QBE_NABV012@@Z 00432e10 f i torq.obj
 0001:00031e50       ??0?$pair@$$CBJUNodeFormat@Helper@text@@@std@@QAE@ABJABUNodeFormat@Helper@text@@@Z 00432e50 f i torq.obj
 0001:00031eb0       ??0NodeFormat@Helper@text@@QAE@ABU012@@Z 00432eb0 f i torq.obj
 0001:00031f50       ?begin@?$vector@U?$pair@_NUNodeFormatI@Helper@text@@@std@@V?$allocator@U?$pair@_NUNodeFormatI@Helper@text@@@std@@@2@@std@@QAE?AViterator@12@XZ 00432f50 f i torq.obj
 0001:00031fa0       ?begin@?$vector@U?$pair@_NUNodeFormatI@Helper@text@@@std@@V?$allocator@U?$pair@_NUNodeFormatI@Helper@text@@@std@@@2@@std@@QBE?AVconst_iterator@12@XZ 00432fa0 f i torq.obj
 0001:00031ff0       ?resize@?$vector@U?$pair@_NUNodeFormatI@Helper@text@@@std@@V?$allocator@U?$pair@_NUNodeFormatI@Helper@text@@@std@@@2@@std@@QAEXIU?$pair@_NUNodeFormatI@Helper@text@@@2@@Z 00432ff0 f i torq.obj
 0001:000320f0       ??1?$pair@_NUNodeFormatI@Helper@text@@@std@@QAE@XZ 004330f0 f i torq.obj
 0001:00032140       ?_Buy@?$vector@U?$pair@_NUNodeFormatI@Helper@text@@@std@@V?$allocator@U?$pair@_NUNodeFormatI@Helper@text@@@std@@@2@@std@@IAE_NI@Z 00433140 f i torq.obj
 0001:000321f0       ?_Tidy@?$vector@U?$pair@_NUNodeFormatI@Helper@text@@@std@@V?$allocator@U?$pair@_NUNodeFormatI@Helper@text@@@std@@@2@@std@@IAEXXZ 004331f0 f i torq.obj
 0001:00032290       ??0?$_Vector_val@U?$pair@_NUNodeFormatI@Helper@text@@@std@@V?$allocator@U?$pair@_NUNodeFormatI@Helper@text@@@std@@@2@@std@@IAE@V?$allocator@U?$pair@_NUNodeFormatI@Helper@text@@@std@@@1@@Z 00433290 f i torq.obj
 0001:000322e0       ??0?$allocator@U?$pair@_NUNodeFormatI@Helper@text@@@std@@@std@@QAE@XZ 004332e0 f i torq.obj
 0001:00032310       ??0?$pair@_NUNodeFormatI@Helper@text@@@std@@QAE@XZ 00433310 f i torq.obj
 0001:00032360       ?capacity@?$vector@V?$vector@HV?$allocator@H@std@@@std@@V?$allocator@V?$vector@HV?$allocator@H@std@@@std@@@2@@std@@QBEIXZ 00433360 f i torq.obj
 0001:000323c0       ?begin@?$vector@V?$vector@HV?$allocator@H@std@@@std@@V?$allocator@V?$vector@HV?$allocator@H@std@@@std@@@2@@std@@QAE?AViterator@12@XZ 004333c0 f i torq.obj
 0001:00032410       ?begin@?$vector@V?$vector@HV?$allocator@H@std@@@std@@V?$allocator@V?$vector@HV?$allocator@H@std@@@std@@@2@@std@@QBE?AVconst_iterator@12@XZ 00433410 f i torq.obj
 0001:00032460       ?end@?$vector@V?$vector@HV?$allocator@H@std@@@std@@V?$allocator@V?$vector@HV?$allocator@H@std@@@std@@@2@@std@@QAE?AViterator@12@XZ 00433460 f i torq.obj
 0001:000324b0       ?end@?$vector@V?$vector@HV?$allocator@H@std@@@std@@V?$allocator@V?$vector@HV?$allocator@H@std@@@std@@@2@@std@@QBE?AVconst_iterator@12@XZ 004334b0 f i torq.obj
 0001:00032500       ?insert@?$vector@V?$vector@HV?$allocator@H@std@@@std@@V?$allocator@V?$vector@HV?$allocator@H@std@@@std@@@2@@std@@QAE?AViterator@12@V312@ABV?$vector@HV?$allocator@H@std@@@2@@Z 00433500 f i torq.obj
 0001:000325b0       ?_Buy@?$vector@V?$vector@HV?$allocator@H@std@@@std@@V?$allocator@V?$vector@HV?$allocator@H@std@@@std@@@2@@std@@IAE_NI@Z 004335b0 f i torq.obj
 0001:00032660       ?_Tidy@?$vector@V?$vector@HV?$allocator@H@std@@@std@@V?$allocator@V?$vector@HV?$allocator@H@std@@@std@@@2@@std@@IAEXXZ 00433660 f i torq.obj
 0001:00032700       ?_Ufill@?$vector@V?$vector@HV?$allocator@H@std@@@std@@V?$allocator@V?$vector@HV?$allocator@H@std@@@std@@@2@@std@@IAEPAV?$vector@HV?$allocator@H@std@@@2@PAV32@IABV32@@Z 00433700 f i torq.obj
 0001:00032760       ??0?$_Vector_val@V?$vector@HV?$allocator@H@std@@@std@@V?$allocator@V?$vector@HV?$allocator@H@std@@@std@@@2@@std@@IAE@V?$allocator@V?$vector@HV?$allocator@H@std@@@std@@@1@@Z 00433760 f i torq.obj
 0001:000327b0       ??0?$allocator@V?$vector@HV?$allocator@H@std@@@std@@@std@@QAE@XZ 004337b0 f i torq.obj
 0001:000327e0       ??0?$allocator@V?$vector@HV?$allocator@H@std@@@std@@@std@@QAE@ABV01@@Z 004337e0 f i torq.obj
 0001:00032810       ?_Buy@?$vector@EV?$allocator@E@std@@@std@@IAE_NI@Z 00433810 f i torq.obj
 0001:000328c0       ?_Tidy@?$vector@EV?$allocator@E@std@@@std@@IAEXXZ 004338c0 f i torq.obj
 0001:00032950       ??0?$_Vector_val@EV?$allocator@E@std@@@std@@IAE@V?$allocator@E@1@@Z 00433950 f i torq.obj
 0001:000329a0       ??0?$allocator@E@std@@QAE@XZ 004339a0 f i torq.obj
 0001:000329d0       ?begin@?$vector@UMATCH@Interpreter@@V?$allocator@UMATCH@Interpreter@@@std@@@std@@QAE?AViterator@12@XZ 004339d0 f i torq.obj
 0001:00032a20       ?end@?$vector@UMATCH@Interpreter@@V?$allocator@UMATCH@Interpreter@@@std@@@std@@QAE?AViterator@12@XZ 00433a20 f i torq.obj
 0001:00032a70       ?resize@?$vector@UMATCH@Interpreter@@V?$allocator@UMATCH@Interpreter@@@std@@@std@@QAEXIUMATCH@Interpreter@@@Z 00433a70 f i torq.obj
 0001:00032b40       ?max_size@?$vector@UMATCH@Interpreter@@V?$allocator@UMATCH@Interpreter@@@std@@@std@@QBEIXZ 00433b40 f i torq.obj
 0001:00032b80       ?empty@?$vector@UMATCH@Interpreter@@V?$allocator@UMATCH@Interpreter@@@std@@@std@@QBE_NXZ 00433b80 f i torq.obj
 0001:00032bd0       ?insert@?$vector@UMATCH@Interpreter@@V?$allocator@UMATCH@Interpreter@@@std@@@std@@QAE?AViterator@12@V312@ABUMATCH@Interpreter@@@Z 00433bd0 f i torq.obj
 0001:00032c80       ?_Buy@?$vector@UMATCH@Interpreter@@V?$allocator@UMATCH@Interpreter@@@std@@@std@@IAE_NI@Z 00433c80 f i torq.obj
 0001:00032d30       ?_Destroy@?$vector@UMATCH@Interpreter@@V?$allocator@UMATCH@Interpreter@@@std@@@std@@IAEXPAUMATCH@Interpreter@@0@Z 00433d30 f i torq.obj
 0001:00032d80       ?_Tidy@?$vector@UMATCH@Interpreter@@V?$allocator@UMATCH@Interpreter@@@std@@@std@@IAEXXZ 00433d80 f i torq.obj
 0001:00032e20       ?_Ufill@?$vector@UMATCH@Interpreter@@V?$allocator@UMATCH@Interpreter@@@std@@@std@@IAEPAUMATCH@Interpreter@@PAU34@IABU34@@Z 00433e20 f i torq.obj
 0001:00032e80       ?_Xlen@?$vector@UMATCH@Interpreter@@V?$allocator@UMATCH@Interpreter@@@std@@@std@@IBEXXZ 00433e80 f i torq.obj
 0001:00032f10       ??0?$_Vector_val@UMATCH@Interpreter@@V?$allocator@UMATCH@Interpreter@@@std@@@std@@IAE@V?$allocator@UMATCH@Interpreter@@@1@@Z 00433f10 f i torq.obj
 0001:00032f60       ??0?$allocator@UMATCH@Interpreter@@@std@@QAE@XZ 00433f60 f i torq.obj
 0001:00032f90       ?deallocate@?$allocator@UMATCH@Interpreter@@@std@@QAEXPAUMATCH@Interpreter@@I@Z 00433f90 f i torq.obj
 0001:00032fe0       ?allocate@?$allocator@UMATCH@Interpreter@@@std@@QAEPAUMATCH@Interpreter@@I@Z 00433fe0 f i torq.obj
 0001:00033030       ?_Key@?$_Tree@V?$_Tmap_traits@V?$vector@HV?$allocator@H@std@@@std@@VTokenSequence@text@@U?$less@V?$vector@HV?$allocator@H@std@@@std@@@2@V?$allocator@U?$pair@$$CBV?$vector@HV?$allocator@H@std@@@std@@VTokenSequence@text@@@std@@@2@$0A@@std@@@std@@KAABV?$vector@HV?$allocator@H@std@@@2@PAU_Node@?$_Tree_nod@V?$_Tmap_traits@V?$vector@HV?$allocator@H@std@@@std@@VTokenSequence@text@@U?$less@V?$vector@HV?$allocator@H@std@@@std@@@2@V?$allocator@U?$pair@$$CBV?$vector@HV?$allocator@H@std@@@std@@VTokenSequence@text@@@std@@@2@$0A@@std@@@2@@Z 00434030 f i torq.obj
 0001:00033080       ??0?$_Tree@V?$_Tmap_traits@V?$vector@HV?$allocator@H@std@@@std@@VTokenSequence@text@@U?$less@V?$vector@HV?$allocator@H@std@@@std@@@2@V?$allocator@U?$pair@$$CBV?$vector@HV?$allocator@H@std@@@std@@VTokenSequence@text@@@std@@@2@$0A@@std@@@std@@QAE@ABU?$less@V?$vector@HV?$allocator@H@std@@@std@@@1@ABV?$allocator@U?$pair@$$CBV?$vector@HV?$allocator@H@std@@@std@@VTokenSequence@text@@@std@@@1@@Z 00434080 f i torq.obj
 0001:000330e0       ?insert@?$_Tree@V?$_Tmap_traits@V?$vector@HV?$allocator@H@std@@@std@@VTokenSequence@text@@U?$less@V?$vector@HV?$allocator@H@std@@@std@@@2@V?$allocator@U?$pair@$$CBV?$vector@HV?$allocator@H@std@@@std@@VTokenSequence@text@@@std@@@2@$0A@@std@@@std@@QAE?AViterator@12@V312@ABU?$pair@$$CBV?$vector@HV?$allocator@H@std@@@std@@VTokenSequence@text@@@2@@Z 004340e0 f i torq.obj
 0001:00033710       ?lower_bound@?$_Tree@V?$_Tmap_traits@V?$vector@HV?$allocator@H@std@@@std@@VTokenSequence@text@@U?$less@V?$vector@HV?$allocator@H@std@@@std@@@2@V?$allocator@U?$pair@$$CBV?$vector@HV?$allocator@H@std@@@std@@VTokenSequence@text@@@std@@@2@$0A@@std@@@std@@QAE?AViterator@12@ABV?$vector@HV?$allocator@H@std@@@2@@Z 00434710 f i torq.obj
 0001:00033770       ?_Tidy@?$_Tree@V?$_Tmap_traits@V?$vector@HV?$allocator@H@std@@@std@@VTokenSequence@text@@U?$less@V?$vector@HV?$allocator@H@std@@@std@@@2@V?$allocator@U?$pair@$$CBV?$vector@HV?$allocator@H@std@@@std@@VTokenSequence@text@@@std@@@2@$0A@@std@@@std@@IAEXXZ 00434770 f i torq.obj
 0001:00033860       ??0?$allocator@U?$pair@$$CBV?$vector@HV?$allocator@H@std@@@std@@VTokenSequence@text@@@std@@@std@@QAE@XZ 00434860 f i torq.obj
 0001:00033890       ??R?$less@V?$vector@HV?$allocator@H@std@@@std@@@std@@QBE_NABV?$vector@HV?$allocator@H@std@@@1@0@Z 00434890 f i torq.obj
 0001:000338e0       ?_Key@?$_Tree@V?$_Tmap_traits@V?$vector@HV?$allocator@H@std@@@std@@JU?$less@V?$vector@HV?$allocator@H@std@@@std@@@2@V?$allocator@U?$pair@$$CBV?$vector@HV?$allocator@H@std@@@std@@J@std@@@2@$0A@@std@@@std@@KAABV?$vector@HV?$allocator@H@std@@@2@PAU_Node@?$_Tree_nod@V?$_Tmap_traits@V?$vector@HV?$allocator@H@std@@@std@@JU?$less@V?$vector@HV?$allocator@H@std@@@std@@@2@V?$allocator@U?$pair@$$CBV?$vector@HV?$allocator@H@std@@@std@@J@std@@@2@$0A@@std@@@2@@Z 004348e0 f i torq.obj
 0001:00033930       ??0?$_Tree@V?$_Tmap_traits@V?$vector@HV?$allocator@H@std@@@std@@JU?$less@V?$vector@HV?$allocator@H@std@@@std@@@2@V?$allocator@U?$pair@$$CBV?$vector@HV?$allocator@H@std@@@std@@J@std@@@2@$0A@@std@@@std@@QAE@ABU?$less@V?$vector@HV?$allocator@H@std@@@std@@@1@ABV?$allocator@U?$pair@$$CBV?$vector@HV?$allocator@H@std@@@std@@J@std@@@1@@Z 00434930 f i torq.obj
 0001:00033990       ?insert@?$_Tree@V?$_Tmap_traits@V?$vector@HV?$allocator@H@std@@@std@@JU?$less@V?$vector@HV?$allocator@H@std@@@std@@@2@V?$allocator@U?$pair@$$CBV?$vector@HV?$allocator@H@std@@@std@@J@std@@@2@$0A@@std@@@std@@QAE?AViterator@12@V312@ABU?$pair@$$CBV?$vector@HV?$allocator@H@std@@@std@@J@2@@Z 00434990 f i torq.obj
 0001:00033fc0       ?lower_bound@?$_Tree@V?$_Tmap_traits@V?$vector@HV?$allocator@H@std@@@std@@JU?$less@V?$vector@HV?$allocator@H@std@@@std@@@2@V?$allocator@U?$pair@$$CBV?$vector@HV?$allocator@H@std@@@std@@J@std@@@2@$0A@@std@@@std@@QAE?AViterator@12@ABV?$vector@HV?$allocator@H@std@@@2@@Z 00434fc0 f i torq.obj
 0001:00034020       ?_Tidy@?$_Tree@V?$_Tmap_traits@V?$vector@HV?$allocator@H@std@@@std@@JU?$less@V?$vector@HV?$allocator@H@std@@@std@@@2@V?$allocator@U?$pair@$$CBV?$vector@HV?$allocator@H@std@@@std@@J@std@@@2@$0A@@std@@@std@@IAEXXZ 00435020 f i torq.obj
 0001:00034110       ??0?$allocator@U?$pair@$$CBV?$vector@HV?$allocator@H@std@@@std@@J@std@@@std@@QAE@XZ 00435110 f i torq.obj
 0001:00034140       ?begin@?$vector@UTSL@Interpreter@@V?$allocator@UTSL@Interpreter@@@std@@@std@@QAE?AViterator@12@XZ 00435140 f i torq.obj
 0001:00034190       ?begin@?$vector@UTSL@Interpreter@@V?$allocator@UTSL@Interpreter@@@std@@@std@@QBE?AVconst_iterator@12@XZ 00435190 f i torq.obj
 0001:000341e0       ?resize@?$vector@UTSL@Interpreter@@V?$allocator@UTSL@Interpreter@@@std@@@std@@QAEXIUTSL@Interpreter@@@Z 004351e0 f i torq.obj
 0001:000342e0       ??1TSL@Interpreter@@QAE@XZ 004352e0 f i torq.obj
 0001:00034330       ?_Buy@?$vector@UTSL@Interpreter@@V?$allocator@UTSL@Interpreter@@@std@@@std@@IAE_NI@Z 00435330 f i torq.obj
 0001:000343e0       ?_Tidy@?$vector@UTSL@Interpreter@@V?$allocator@UTSL@Interpreter@@@std@@@std@@IAEXXZ 004353e0 f i torq.obj
 0001:00034480       ??0?$_Vector_val@UTSL@Interpreter@@V?$allocator@UTSL@Interpreter@@@std@@@std@@IAE@V?$allocator@UTSL@Interpreter@@@1@@Z 00435480 f i torq.obj
 0001:000344d0       ??0?$allocator@UTSL@Interpreter@@@std@@QAE@XZ 004354d0 f i torq.obj
 0001:00034500       ??0const_iterator@?$vector@UMATCH@Interpreter@@V?$allocator@UMATCH@Interpreter@@@std@@@std@@QAE@PAUMATCH@Interpreter@@@Z 00435500 f i torq.obj
 0001:00034540       ?_Isnil@?$_Tree@V?$_Tset_traits@JU?$less@J@std@@V?$allocator@J@2@$0A@@std@@@std@@KAAADPAU_Node@?$_Tree_nod@V?$_Tset_traits@JU?$less@J@std@@V?$allocator@J@2@$0A@@std@@@2@@Z 00435540 f i torq.obj
 0001:00034570       ?_Key@?$_Tree@V?$_Tset_traits@JU?$less@J@std@@V?$allocator@J@2@$0A@@std@@@std@@KAABJPAU_Node@?$_Tree_nod@V?$_Tset_traits@JU?$less@J@std@@V?$allocator@J@2@$0A@@std@@@2@@Z 00435570 f i torq.obj
 0001:000345c0       ?_Left@?$_Tree@V?$_Tset_traits@JU?$less@J@std@@V?$allocator@J@2@$0A@@std@@@std@@KAAAPAU_Node@?$_Tree_nod@V?$_Tset_traits@JU?$less@J@std@@V?$allocator@J@2@$0A@@std@@@2@PAU342@@Z 004355c0 f i torq.obj
 0001:000345f0       ?_Right@?$_Tree@V?$_Tset_traits@JU?$less@J@std@@V?$allocator@J@2@$0A@@std@@@std@@KAAAPAU_Node@?$_Tree_nod@V?$_Tset_traits@JU?$less@J@std@@V?$allocator@J@2@$0A@@std@@@2@PAU342@@Z 004355f0 f i torq.obj
 0001:00034620       ?_Myval@?$_Tree@V?$_Tset_traits@JU?$less@J@std@@V?$allocator@J@2@$0A@@std@@@std@@KAAAJPAU_Node@?$_Tree_nod@V?$_Tset_traits@JU?$less@J@std@@V?$allocator@J@2@$0A@@std@@@2@@Z 00435620 f i torq.obj
 0001:00034650       ??0?$_Tree@V?$_Tset_traits@JU?$less@J@std@@V?$allocator@J@2@$0A@@std@@@std@@QAE@ABU?$less@J@1@ABV?$allocator@J@1@@Z 00435650 f i torq.obj
 0001:000346b0       ?lower_bound@?$_Tree@V?$_Tset_traits@JU?$less@J@std@@V?$allocator@J@2@$0A@@std@@@std@@QAE?AViterator@12@ABJ@Z 004356b0 f i torq.obj
 0001:00034710       ?_Insert@?$_Tree@V?$_Tset_traits@JU?$less@J@std@@V?$allocator@J@2@$0A@@std@@@std@@IAE?AViterator@12@_NPAU_Node@?$_Tree_nod@V?$_Tset_traits@JU?$less@J@std@@V?$allocator@J@2@$0A@@std@@@2@ABJ@Z 00435710 f i torq.obj
 0001:00034ba0       ?_Lmost@?$_Tree@V?$_Tset_traits@JU?$less@J@std@@V?$allocator@J@2@$0A@@std@@@std@@IAEAAPAU_Node@?$_Tree_nod@V?$_Tset_traits@JU?$less@J@std@@V?$allocator@J@2@$0A@@std@@@2@XZ 00435ba0 f i torq.obj
 0001:00034bf0       ?_Root@?$_Tree@V?$_Tset_traits@JU?$less@J@std@@V?$allocator@J@2@$0A@@std@@@std@@IAEAAPAU_Node@?$_Tree_nod@V?$_Tset_traits@JU?$less@J@std@@V?$allocator@J@2@$0A@@std@@@2@XZ 00435bf0 f i torq.obj
 0001:00034c40       ?_Tidy@?$_Tree@V?$_Tset_traits@JU?$less@J@std@@V?$allocator@J@2@$0A@@std@@@std@@IAEXXZ 00435c40 f i torq.obj
 0001:00034d30       ?_Kfn@?$_Tset_traits@JU?$less@J@std@@V?$allocator@J@2@$0A@@std@@SAABJABJ@Z 00435d30 f i torq.obj
 0001:00034d60       ??0?$pair@Viterator@?$_Tree@V?$_Tset_traits@JU?$less@J@std@@V?$allocator@J@2@$0A@@std@@@std@@_N@std@@QAE@ABViterator@?$_Tree@V?$_Tset_traits@JU?$less@J@std@@V?$allocator@J@2@$0A@@std@@@1@AB_N@Z 00435d60 f i torq.obj
 0001:00034db0       ??0iterator@?$_Tree@V?$_Tset_traits@JU?$less@J@std@@V?$allocator@J@2@$0A@@std@@@std@@QAE@PAU_Node@?$_Tree_nod@V?$_Tset_traits@JU?$less@J@std@@V?$allocator@J@2@$0A@@std@@@2@@Z 00435db0 f i torq.obj
 0001:00034e00       ??Fiterator@?$_Tree@V?$_Tset_traits@JU?$less@J@std@@V?$allocator@J@2@$0A@@std@@@std@@QAEAAV012@XZ 00435e00 f i torq.obj
 0001:00034e50       ?_Inc@const_iterator@?$_Tree@V?$_Tset_traits@JU?$less@J@std@@V?$allocator@J@2@$0A@@std@@@std@@QAEXXZ 00435e50 f i torq.obj
 0001:00034f30       ?_Mynode@const_iterator@?$_Tree@V?$_Tset_traits@JU?$less@J@std@@V?$allocator@J@2@$0A@@std@@@std@@QBEPAU_Node@?$_Tree_nod@V?$_Tset_traits@JU?$less@J@std@@V?$allocator@J@2@$0A@@std@@@3@XZ 00435f30 f i torq.obj
 0001:00034f60       ?_Isnil@?$_Tree@V?$_Tset_traits@V?$vector@HV?$allocator@H@std@@@std@@U?$less@V?$vector@HV?$allocator@H@std@@@std@@@2@V?$allocator@V?$vector@HV?$allocator@H@std@@@std@@@2@$0A@@std@@@std@@KAAADPAU_Node@?$_Tree_nod@V?$_Tset_traits@V?$vector@HV?$allocator@H@std@@@std@@U?$less@V?$vector@HV?$allocator@H@std@@@std@@@2@V?$allocator@V?$vector@HV?$allocator@H@std@@@std@@@2@$0A@@std@@@2@@Z 00435f60 f i torq.obj
 0001:00034f90       ?_Key@?$_Tree@V?$_Tset_traits@V?$vector@HV?$allocator@H@std@@@std@@U?$less@V?$vector@HV?$allocator@H@std@@@std@@@2@V?$allocator@V?$vector@HV?$allocator@H@std@@@std@@@2@$0A@@std@@@std@@KAABV?$vector@HV?$allocator@H@std@@@2@PAU_Node@?$_Tree_nod@V?$_Tset_traits@V?$vector@HV?$allocator@H@std@@@std@@U?$less@V?$vector@HV?$allocator@H@std@@@std@@@2@V?$allocator@V?$vector@HV?$allocator@H@std@@@std@@@2@$0A@@std@@@2@@Z 00435f90 f i torq.obj
 0001:00034fe0       ?_Left@?$_Tree@V?$_Tset_traits@V?$vector@HV?$allocator@H@std@@@std@@U?$less@V?$vector@HV?$allocator@H@std@@@std@@@2@V?$allocator@V?$vector@HV?$allocator@H@std@@@std@@@2@$0A@@std@@@std@@KAAAPAU_Node@?$_Tree_nod@V?$_Tset_traits@V?$vector@HV?$allocator@H@std@@@std@@U?$less@V?$vector@HV?$allocator@H@std@@@std@@@2@V?$allocator@V?$vector@HV?$allocator@H@std@@@std@@@2@$0A@@std@@@2@PAU342@@Z 00435fe0 f i torq.obj
 0001:00035010       ?_Right@?$_Tree@V?$_Tset_traits@V?$vector@HV?$allocator@H@std@@@std@@U?$less@V?$vector@HV?$allocator@H@std@@@std@@@2@V?$allocator@V?$vector@HV?$allocator@H@std@@@std@@@2@$0A@@std@@@std@@KAAAPAU_Node@?$_Tree_nod@V?$_Tset_traits@V?$vector@HV?$allocator@H@std@@@std@@U?$less@V?$vector@HV?$allocator@H@std@@@std@@@2@V?$allocator@V?$vector@HV?$allocator@H@std@@@std@@@2@$0A@@std@@@2@PAU342@@Z 00436010 f i torq.obj
 0001:00035040       ?_Myval@?$_Tree@V?$_Tset_traits@V?$vector@HV?$allocator@H@std@@@std@@U?$less@V?$vector@HV?$allocator@H@std@@@std@@@2@V?$allocator@V?$vector@HV?$allocator@H@std@@@std@@@2@$0A@@std@@@std@@KAAAV?$vector@HV?$allocator@H@std@@@2@PAU_Node@?$_Tree_nod@V?$_Tset_traits@V?$vector@HV?$allocator@H@std@@@std@@U?$less@V?$vector@HV?$allocator@H@std@@@std@@@2@V?$allocator@V?$vector@HV?$allocator@H@std@@@std@@@2@$0A@@std@@@2@@Z 00436040 f i torq.obj
 0001:00035070       ??0?$_Tree@V?$_Tset_traits@V?$vector@HV?$allocator@H@std@@@std@@U?$less@V?$vector@HV?$allocator@H@std@@@std@@@2@V?$allocator@V?$vector@HV?$allocator@H@std@@@std@@@2@$0A@@std@@@std@@QAE@ABU?$less@V?$vector@HV?$allocator@H@std@@@std@@@1@ABV?$allocator@V?$vector@HV?$allocator@H@std@@@std@@@1@@Z 00436070 f i torq.obj
 0001:000350d0       ?_Insert@?$_Tree@V?$_Tset_traits@V?$vector@HV?$allocator@H@std@@@std@@U?$less@V?$vector@HV?$allocator@H@std@@@std@@@2@V?$allocator@V?$vector@HV?$allocator@H@std@@@std@@@2@$0A@@std@@@std@@IAE?AViterator@12@_NPAU_Node@?$_Tree_nod@V?$_Tset_traits@V?$vector@HV?$allocator@H@std@@@std@@U?$less@V?$vector@HV?$allocator@H@std@@@std@@@2@V?$allocator@V?$vector@HV?$allocator@H@std@@@std@@@2@$0A@@std@@@2@ABV?$vector@HV?$allocator@H@std@@@2@@Z 004360d0 f i torq.obj
 0001:00035560       ?_Lmost@?$_Tree@V?$_Tset_traits@V?$vector@HV?$allocator@H@std@@@std@@U?$less@V?$vector@HV?$allocator@H@std@@@std@@@2@V?$allocator@V?$vector@HV?$allocator@H@std@@@std@@@2@$0A@@std@@@std@@IAEAAPAU_Node@?$_Tree_nod@V?$_Tset_traits@V?$vector@HV?$allocator@H@std@@@std@@U?$less@V?$vector@HV?$allocator@H@std@@@std@@@2@V?$allocator@V?$vector@HV?$allocator@H@std@@@std@@@2@$0A@@std@@@2@XZ 00436560 f i torq.obj
 0001:000355b0       ?_Root@?$_Tree@V?$_Tset_traits@V?$vector@HV?$allocator@H@std@@@std@@U?$less@V?$vector@HV?$allocator@H@std@@@std@@@2@V?$allocator@V?$vector@HV?$allocator@H@std@@@std@@@2@$0A@@std@@@std@@IAEAAPAU_Node@?$_Tree_nod@V?$_Tset_traits@V?$vector@HV?$allocator@H@std@@@std@@U?$less@V?$vector@HV?$allocator@H@std@@@std@@@2@V?$allocator@V?$vector@HV?$allocator@H@std@@@std@@@2@$0A@@std@@@2@XZ 004365b0 f i torq.obj
 0001:00035600       ?_Tidy@?$_Tree@V?$_Tset_traits@V?$vector@HV?$allocator@H@std@@@std@@U?$less@V?$vector@HV?$allocator@H@std@@@std@@@2@V?$allocator@V?$vector@HV?$allocator@H@std@@@std@@@2@$0A@@std@@@std@@IAEXXZ 00436600 f i torq.obj
 0001:000356f0       ?_Kfn@?$_Tset_traits@V?$vector@HV?$allocator@H@std@@@std@@U?$less@V?$vector@HV?$allocator@H@std@@@std@@@2@V?$allocator@V?$vector@HV?$allocator@H@std@@@std@@@2@$0A@@std@@SAABV?$vector@HV?$allocator@H@std@@@2@ABV32@@Z 004366f0 f i torq.obj
 0001:00035720       ??0?$pair@Viterator@?$_Tree@V?$_Tset_traits@V?$vector@HV?$allocator@H@std@@@std@@U?$less@V?$vector@HV?$allocator@H@std@@@std@@@2@V?$allocator@V?$vector@HV?$allocator@H@std@@@std@@@2@$0A@@std@@@std@@_N@std@@QAE@ABViterator@?$_Tree@V?$_Tset_traits@V?$vector@HV?$allocator@H@std@@@std@@U?$less@V?$vector@HV?$allocator@H@std@@@std@@@2@V?$allocator@V?$vector@HV?$allocator@H@std@@@std@@@2@$0A@@std@@@1@AB_N@Z 00436720 f i torq.obj
 0001:00035770       ??0iterator@?$_Tree@V?$_Tset_traits@V?$vector@HV?$allocator@H@std@@@std@@U?$less@V?$vector@HV?$allocator@H@std@@@std@@@2@V?$allocator@V?$vector@HV?$allocator@H@std@@@std@@@2@$0A@@std@@@std@@QAE@PAU_Node@?$_Tree_nod@V?$_Tset_traits@V?$vector@HV?$allocator@H@std@@@std@@U?$less@V?$vector@HV?$allocator@H@std@@@std@@@2@V?$allocator@V?$vector@HV?$allocator@H@std@@@std@@@2@$0A@@std@@@2@@Z 00436770 f i torq.obj
 0001:000357c0       ??Fiterator@?$_Tree@V?$_Tset_traits@V?$vector@HV?$allocator@H@std@@@std@@U?$less@V?$vector@HV?$allocator@H@std@@@std@@@2@V?$allocator@V?$vector@HV?$allocator@H@std@@@std@@@2@$0A@@std@@@std@@QAEAAV012@XZ 004367c0 f i torq.obj
 0001:00035810       ??8const_iterator@?$_Tree@V?$_Tset_traits@V?$vector@HV?$allocator@H@std@@@std@@U?$less@V?$vector@HV?$allocator@H@std@@@std@@@2@V?$allocator@V?$vector@HV?$allocator@H@std@@@std@@@2@$0A@@std@@@std@@QBE_NABV012@@Z 00436810 f i torq.obj
 0001:00035850       ?_Inc@const_iterator@?$_Tree@V?$_Tset_traits@V?$vector@HV?$allocator@H@std@@@std@@U?$less@V?$vector@HV?$allocator@H@std@@@std@@@2@V?$allocator@V?$vector@HV?$allocator@H@std@@@std@@@2@$0A@@std@@@std@@QAEXXZ 00436850 f i torq.obj
 0001:00035930       ?_Mynode@const_iterator@?$_Tree@V?$_Tset_traits@V?$vector@HV?$allocator@H@std@@@std@@U?$less@V?$vector@HV?$allocator@H@std@@@std@@@2@V?$allocator@V?$vector@HV?$allocator@H@std@@@std@@@2@$0A@@std@@@std@@QBEPAU_Node@?$_Tree_nod@V?$_Tset_traits@V?$vector@HV?$allocator@H@std@@@std@@U?$less@V?$vector@HV?$allocator@H@std@@@std@@@2@V?$allocator@V?$vector@HV?$allocator@H@std@@@std@@@2@$0A@@std@@@3@XZ 00436930 f i torq.obj
 0001:00035960       ??0iterator@?$_Tree@V?$_Tmap_traits@V?$vector@HV?$allocator@H@std@@@std@@JU?$less@V?$vector@HV?$allocator@H@std@@@std@@@2@V?$allocator@U?$pair@$$CBV?$vector@HV?$allocator@H@std@@@std@@J@std@@@2@$0A@@std@@@std@@QAE@PAU_Node@?$_Tree_nod@V?$_Tmap_traits@V?$vector@HV?$allocator@H@std@@@std@@JU?$less@V?$vector@HV?$allocator@H@std@@@std@@@2@V?$allocator@U?$pair@$$CBV?$vector@HV?$allocator@H@std@@@std@@J@std@@@2@$0A@@std@@@2@@Z 00436960 f i torq.obj
 0001:000359b0       ??Diterator@?$_Tree@V?$_Tmap_traits@V?$vector@HV?$allocator@H@std@@@std@@JU?$less@V?$vector@HV?$allocator@H@std@@@std@@@2@V?$allocator@U?$pair@$$CBV?$vector@HV?$allocator@H@std@@@std@@J@std@@@2@$0A@@std@@@std@@QBEAAU?$pair@$$CBV?$vector@HV?$allocator@H@std@@@std@@J@2@XZ 004369b0 f i torq.obj
 0001:000359f0       ?_Mynode@const_iterator@?$_Tree@V?$_Tmap_traits@V?$vector@HV?$allocator@H@std@@@std@@JU?$less@V?$vector@HV?$allocator@H@std@@@std@@@2@V?$allocator@U?$pair@$$CBV?$vector@HV?$allocator@H@std@@@std@@J@std@@@2@$0A@@std@@@std@@QBEPAU_Node@?$_Tree_nod@V?$_Tmap_traits@V?$vector@HV?$allocator@H@std@@@std@@JU?$less@V?$vector@HV?$allocator@H@std@@@std@@@2@V?$allocator@U?$pair@$$CBV?$vector@HV?$allocator@H@std@@@std@@J@std@@@2@$0A@@std@@@3@XZ 004369f0 f i torq.obj
 0001:00035a20       ??0?$pair@$$CBV?$vector@HV?$allocator@H@std@@@std@@J@std@@QAE@ABV?$vector@HV?$allocator@H@std@@@1@ABJ@Z 00436a20 f i torq.obj
 0001:00035a80       ??0iterator@?$_Tree@V?$_Tmap_traits@V?$vector@HV?$allocator@H@std@@@std@@VTokenSequence@text@@U?$less@V?$vector@HV?$allocator@H@std@@@std@@@2@V?$allocator@U?$pair@$$CBV?$vector@HV?$allocator@H@std@@@std@@VTokenSequence@text@@@std@@@2@$0A@@std@@@std@@QAE@PAU_Node@?$_Tree_nod@V?$_Tmap_traits@V?$vector@HV?$allocator@H@std@@@std@@VTokenSequence@text@@U?$less@V?$vector@HV?$allocator@H@std@@@std@@@2@V?$allocator@U?$pair@$$CBV?$vector@HV?$allocator@H@std@@@std@@VTokenSequence@text@@@std@@@2@$0A@@std@@@2@@Z 00436a80 f i torq.obj
 0001:00035ad0       ??Diterator@?$_Tree@V?$_Tmap_traits@V?$vector@HV?$allocator@H@std@@@std@@VTokenSequence@text@@U?$less@V?$vector@HV?$allocator@H@std@@@std@@@2@V?$allocator@U?$pair@$$CBV?$vector@HV?$allocator@H@std@@@std@@VTokenSequence@text@@@std@@@2@$0A@@std@@@std@@QBEAAU?$pair@$$CBV?$vector@HV?$allocator@H@std@@@std@@VTokenSequence@text@@@2@XZ 00436ad0 f i torq.obj
 0001:00035b10       ?_Mynode@const_iterator@?$_Tree@V?$_Tmap_traits@V?$vector@HV?$allocator@H@std@@@std@@VTokenSequence@text@@U?$less@V?$vector@HV?$allocator@H@std@@@std@@@2@V?$allocator@U?$pair@$$CBV?$vector@HV?$allocator@H@std@@@std@@VTokenSequence@text@@@std@@@2@$0A@@std@@@std@@QBEPAU_Node@?$_Tree_nod@V?$_Tmap_traits@V?$vector@HV?$allocator@H@std@@@std@@VTokenSequence@text@@U?$less@V?$vector@HV?$allocator@H@std@@@std@@@2@V?$allocator@U?$pair@$$CBV?$vector@HV?$allocator@H@std@@@std@@VTokenSequence@text@@@std@@@2@$0A@@std@@@3@XZ 00436b10 f i torq.obj
 0001:00035b40       ??0?$pair@$$CBV?$vector@HV?$allocator@H@std@@@std@@VTokenSequence@text@@@std@@QAE@ABV?$vector@HV?$allocator@H@std@@@1@ABVTokenSequence@text@@@Z 00436b40 f i torq.obj
 0001:00035bd0       ??0?$basic_filebuf@DU?$char_traits@D@std@@@std@@QAE@PAU_iobuf@@@Z 00436bd0 f i torq.obj
 0001:00035c70       ?is_open@?$basic_filebuf@DU?$char_traits@D@std@@@std@@QBE_NXZ 00436c70 f i torq.obj
 0001:00035cb0       ?open@?$basic_filebuf@DU?$char_traits@D@std@@@std@@QAEPAV12@PBDHH@Z 00436cb0 f i torq.obj
 0001:00035da0       ?close@?$basic_filebuf@DU?$char_traits@D@std@@@std@@QAEPAV12@XZ 00436da0 f i torq.obj
 0001:00035e20       ?_Endwrite@?$basic_filebuf@DU?$char_traits@D@std@@@std@@IAE_NXZ 00436e20 f i torq.obj
 0001:00036070       ?_Initcvt@?$basic_filebuf@DU?$char_traits@D@std@@@std@@IAEXPAV?$codecvt@DDH@2@@Z 00437070 f i torq.obj
 0001:00036170       ??0_DebugHeapString@std@@QAE@XZ 00437170 f i torq.obj
 0001:000361c0       ?always_noconv@codecvt_base@std@@QBE_NXZ 004371c0 f i torq.obj
 0001:00036210       ??0?$basic_string@DU?$char_traits@D@std@@V?$_DebugHeapAllocator@D@2@@std@@QAE@XZ 00437210 f i torq.obj
 0001:00036270       ??0?$_DebugHeapAllocator@D@std@@QAE@XZ 00437270 f i torq.obj
 0001:000362c0       ?_Tidy@?$basic_string@DU?$char_traits@D@std@@V?$_DebugHeapAllocator@D@2@@std@@IAEX_NI@Z 004372c0 f i torq.obj
 0001:00036360       ??0?$_String_val@DV?$_DebugHeapAllocator@D@std@@@std@@IAE@V?$_DebugHeapAllocator@D@1@@Z 00437360 f i torq.obj
 0001:000363b0       ??0?$_DebugHeapAllocator@D@std@@QAE@ABV01@@Z 004373b0 f i torq.obj
 0001:00036400       ??0?$fpos@H@std@@QAE@J@Z   00437400 f i torq.obj
 0001:00036460       ??0?$fpos@H@std@@QAE@H_J@Z 00437460 f i torq.obj
 0001:000364b0       ?state@?$fpos@H@std@@QBEHXZ 004374b0 f i torq.obj
 0001:000364e0       ?seekpos@?$fpos@H@std@@QBE_JXZ 004374e0 f i torq.obj
 0001:00036520       ?_Key@?$_Tree@V?$_Tmap_traits@V?$vector@HV?$allocator@H@std@@@std@@UNodeFormat@Helper@text@@U?$less@V?$vector@HV?$allocator@H@std@@@std@@@2@V?$allocator@U?$pair@$$CBV?$vector@HV?$allocator@H@std@@@std@@UNodeFormat@Helper@text@@@std@@@2@$0A@@std@@@std@@KAABV?$vector@HV?$allocator@H@std@@@2@PAU_Node@?$_Tree_nod@V?$_Tmap_traits@V?$vector@HV?$allocator@H@std@@@std@@UNodeFormat@Helper@text@@U?$less@V?$vector@HV?$allocator@H@std@@@std@@@2@V?$allocator@U?$pair@$$CBV?$vector@HV?$allocator@H@std@@@std@@UNodeFormat@Helper@text@@@std@@@2@$0A@@std@@@2@@Z 00437520 f i torq.obj
 0001:00036570       ??0?$_Tree@V?$_Tmap_traits@V?$vector@HV?$allocator@H@std@@@std@@UNodeFormat@Helper@text@@U?$less@V?$vector@HV?$allocator@H@std@@@std@@@2@V?$allocator@U?$pair@$$CBV?$vector@HV?$allocator@H@std@@@std@@UNodeFormat@Helper@text@@@std@@@2@$0A@@std@@@std@@QAE@ABU?$less@V?$vector@HV?$allocator@H@std@@@std@@@1@ABV?$allocator@U?$pair@$$CBV?$vector@HV?$allocator@H@std@@@std@@UNodeFormat@Helper@text@@@std@@@1@@Z 00437570 f i torq.obj
 0001:000365d0       ?insert@?$_Tree@V?$_Tmap_traits@V?$vector@HV?$allocator@H@std@@@std@@UNodeFormat@Helper@text@@U?$less@V?$vector@HV?$allocator@H@std@@@std@@@2@V?$allocator@U?$pair@$$CBV?$vector@HV?$allocator@H@std@@@std@@UNodeFormat@Helper@text@@@std@@@2@$0A@@std@@@std@@QAE?AViterator@12@V312@ABU?$pair@$$CBV?$vector@HV?$allocator@H@std@@@std@@UNodeFormat@Helper@text@@@2@@Z 004375d0 f i torq.obj
 0001:00036c00       ?lower_bound@?$_Tree@V?$_Tmap_traits@V?$vector@HV?$allocator@H@std@@@std@@UNodeFormat@Helper@text@@U?$less@V?$vector@HV?$allocator@H@std@@@std@@@2@V?$allocator@U?$pair@$$CBV?$vector@HV?$allocator@H@std@@@std@@UNodeFormat@Helper@text@@@std@@@2@$0A@@std@@@std@@QAE?AViterator@12@ABV?$vector@HV?$allocator@H@std@@@2@@Z 00437c00 f i torq.obj
 0001:00036c60       ?lower_bound@?$_Tree@V?$_Tmap_traits@V?$vector@HV?$allocator@H@std@@@std@@UNodeFormat@Helper@text@@U?$less@V?$vector@HV?$allocator@H@std@@@std@@@2@V?$allocator@U?$pair@$$CBV?$vector@HV?$allocator@H@std@@@std@@UNodeFormat@Helper@text@@@std@@@2@$0A@@std@@@std@@QBE?AVconst_iterator@12@ABV?$vector@HV?$allocator@H@std@@@2@@Z 00437c60 f i torq.obj
 0001:00036cc0       ?_Erase@?$_Tree@V?$_Tmap_traits@V?$vector@HV?$allocator@H@std@@@std@@UNodeFormat@Helper@text@@U?$less@V?$vector@HV?$allocator@H@std@@@std@@@2@V?$allocator@U?$pair@$$CBV?$vector@HV?$allocator@H@std@@@std@@UNodeFormat@Helper@text@@@std@@@2@$0A@@std@@@std@@IAEXPAU_Node@?$_Tree_nod@V?$_Tmap_traits@V?$vector@HV?$allocator@H@std@@@std@@UNodeFormat@Helper@text@@U?$less@V?$vector@HV?$allocator@H@std@@@std@@@2@V?$allocator@U?$pair@$$CBV?$vector@HV?$allocator@H@std@@@std@@UNodeFormat@Helper@text@@@std@@@2@$0A@@std@@@2@@Z 00437cc0 f i torq.obj
 0001:00036d70       ?_Lmost@?$_Tree@V?$_Tmap_traits@V?$vector@HV?$allocator@H@std@@@std@@UNodeFormat@Helper@text@@U?$less@V?$vector@HV?$allocator@H@std@@@std@@@2@V?$allocator@U?$pair@$$CBV?$vector@HV?$allocator@H@std@@@std@@UNodeFormat@Helper@text@@@std@@@2@$0A@@std@@@std@@IAEAAPAU_Node@?$_Tree_nod@V?$_Tmap_traits@V?$vector@HV?$allocator@H@std@@@std@@UNodeFormat@Helper@text@@U?$less@V?$vector@HV?$allocator@H@std@@@std@@@2@V?$allocator@U?$pair@$$CBV?$vector@HV?$allocator@H@std@@@std@@UNodeFormat@Helper@text@@@std@@@2@$0A@@std@@@2@XZ 00437d70 f i torq.obj
 0001:00036dc0       ?_Rmost@?$_Tree@V?$_Tmap_traits@V?$vector@HV?$allocator@H@std@@@std@@UNodeFormat@Helper@text@@U?$less@V?$vector@HV?$allocator@H@std@@@std@@@2@V?$allocator@U?$pair@$$CBV?$vector@HV?$allocator@H@std@@@std@@UNodeFormat@Helper@text@@@std@@@2@$0A@@std@@@std@@IAEAAPAU_Node@?$_Tree_nod@V?$_Tmap_traits@V?$vector@HV?$allocator@H@std@@@std@@UNodeFormat@Helper@text@@U?$less@V?$vector@HV?$allocator@H@std@@@std@@@2@V?$allocator@U?$pair@$$CBV?$vector@HV?$allocator@H@std@@@std@@UNodeFormat@Helper@text@@@std@@@2@$0A@@std@@@2@XZ 00437dc0 f i torq.obj
 0001:00036e10       ?_Root@?$_Tree@V?$_Tmap_traits@V?$vector@HV?$allocator@H@std@@@std@@UNodeFormat@Helper@text@@U?$less@V?$vector@HV?$allocator@H@std@@@std@@@2@V?$allocator@U?$pair@$$CBV?$vector@HV?$allocator@H@std@@@std@@UNodeFormat@Helper@text@@@std@@@2@$0A@@std@@@std@@IAEAAPAU_Node@?$_Tree_nod@V?$_Tmap_traits@V?$vector@HV?$allocator@H@std@@@std@@UNodeFormat@Helper@text@@U?$less@V?$vector@HV?$allocator@H@std@@@std@@@2@V?$allocator@U?$pair@$$CBV?$vector@HV?$allocator@H@std@@@std@@UNodeFormat@Helper@text@@@std@@@2@$0A@@std@@@2@XZ 00437e10 f i torq.obj
 0001:00036e60       ?_Tidy@?$_Tree@V?$_Tmap_traits@V?$vector@HV?$allocator@H@std@@@std@@UNodeFormat@Helper@text@@U?$less@V?$vector@HV?$allocator@H@std@@@std@@@2@V?$allocator@U?$pair@$$CBV?$vector@HV?$allocator@H@std@@@std@@UNodeFormat@Helper@text@@@std@@@2@$0A@@std@@@std@@IAEXXZ 00437e60 f i torq.obj
 0001:00036f50       ??0?$allocator@U?$pair@$$CBV?$vector@HV?$allocator@H@std@@@std@@UNodeFormat@Helper@text@@@std@@@std@@QAE@XZ 00437f50 f i torq.obj
 0001:00036f80       ??0const_iterator@?$_Tree@V?$_Tmap_traits@V?$vector@HV?$allocator@H@std@@@std@@UNodeFormat@Helper@text@@U?$less@V?$vector@HV?$allocator@H@std@@@std@@@2@V?$allocator@U?$pair@$$CBV?$vector@HV?$allocator@H@std@@@std@@UNodeFormat@Helper@text@@@std@@@2@$0A@@std@@@std@@QAE@PAU_Node@?$_Tree_nod@V?$_Tmap_traits@V?$vector@HV?$allocator@H@std@@@std@@UNodeFormat@Helper@text@@U?$less@V?$vector@HV?$allocator@H@std@@@std@@@2@V?$allocator@U?$pair@$$CBV?$vector@HV?$allocator@H@std@@@std@@UNodeFormat@Helper@text@@@std@@@2@$0A@@std@@@2@@Z 00437f80 f i torq.obj
 0001:00036fc0       ??Dconst_iterator@?$_Tree@V?$_Tmap_traits@V?$vector@HV?$allocator@H@std@@@std@@UNodeFormat@Helper@text@@U?$less@V?$vector@HV?$allocator@H@std@@@std@@@2@V?$allocator@U?$pair@$$CBV?$vector@HV?$allocator@H@std@@@std@@UNodeFormat@Helper@text@@@std@@@2@$0A@@std@@@std@@QBEABU?$pair@$$CBV?$vector@HV?$allocator@H@std@@@std@@UNodeFormat@Helper@text@@@2@XZ 00437fc0 f i torq.obj
 0001:00037010       ??Econst_iterator@?$_Tree@V?$_Tmap_traits@V?$vector@HV?$allocator@H@std@@@std@@UNodeFormat@Helper@text@@U?$less@V?$vector@HV?$allocator@H@std@@@std@@@2@V?$allocator@U?$pair@$$CBV?$vector@HV?$allocator@H@std@@@std@@UNodeFormat@Helper@text@@@std@@@2@$0A@@std@@@std@@QAEAAV012@XZ 00438010 f i torq.obj
 0001:00037060       ?_Mynode@const_iterator@?$_Tree@V?$_Tmap_traits@V?$vector@HV?$allocator@H@std@@@std@@UNodeFormat@Helper@text@@U?$less@V?$vector@HV?$allocator@H@std@@@std@@@2@V?$allocator@U?$pair@$$CBV?$vector@HV?$allocator@H@std@@@std@@UNodeFormat@Helper@text@@@std@@@2@$0A@@std@@@std@@QBEPAU_Node@?$_Tree_nod@V?$_Tmap_traits@V?$vector@HV?$allocator@H@std@@@std@@UNodeFormat@Helper@text@@U?$less@V?$vector@HV?$allocator@H@std@@@std@@@2@V?$allocator@U?$pair@$$CBV?$vector@HV?$allocator@H@std@@@std@@UNodeFormat@Helper@text@@@std@@@2@$0A@@std@@@3@XZ 00438060 f i torq.obj
 0001:00037090       ??0?$pair@$$CBV?$vector@HV?$allocator@H@std@@@std@@UNodeFormat@Helper@text@@@std@@QAE@ABV?$vector@HV?$allocator@H@std@@@1@ABUNodeFormat@Helper@text@@@Z 00438090 f i torq.obj
 0001:00037120       ?_Key@?$_Tree@V?$_Tmap_traits@JV?$vector@HV?$allocator@H@std@@@std@@U?$less@J@2@V?$allocator@U?$pair@$$CBJV?$vector@HV?$allocator@H@std@@@std@@@std@@@2@$0A@@std@@@std@@KAABJPAU_Node@?$_Tree_nod@V?$_Tmap_traits@JV?$vector@HV?$allocator@H@std@@@std@@U?$less@J@2@V?$allocator@U?$pair@$$CBJV?$vector@HV?$allocator@H@std@@@std@@@std@@@2@$0A@@std@@@2@@Z 00438120 f i torq.obj
 0001:00037170       ??0?$_Tree@V?$_Tmap_traits@JV?$vector@HV?$allocator@H@std@@@std@@U?$less@J@2@V?$allocator@U?$pair@$$CBJV?$vector@HV?$allocator@H@std@@@std@@@std@@@2@$0A@@std@@@std@@QAE@ABU?$less@J@1@ABV?$allocator@U?$pair@$$CBJV?$vector@HV?$allocator@H@std@@@std@@@std@@@1@@Z 00438170 f i torq.obj
 0001:000371d0       ??0?$_Tree@V?$_Tmap_traits@JV?$vector@HV?$allocator@H@std@@@std@@U?$less@J@2@V?$allocator@U?$pair@$$CBJV?$vector@HV?$allocator@H@std@@@std@@@std@@@2@$0A@@std@@@std@@QAE@ABV01@@Z 004381d0 f i torq.obj
 0001:00037290       ??4?$_Tree@V?$_Tmap_traits@JV?$vector@HV?$allocator@H@std@@@std@@U?$less@J@2@V?$allocator@U?$pair@$$CBJV?$vector@HV?$allocator@H@std@@@std@@@std@@@2@$0A@@std@@@std@@QAEAAV01@ABV01@@Z 00438290 f i torq.obj
 0001:00037320       ?get_allocator@?$_Tree@V?$_Tmap_traits@JV?$vector@HV?$allocator@H@std@@@std@@U?$less@J@2@V?$allocator@U?$pair@$$CBJV?$vector@HV?$allocator@H@std@@@std@@@std@@@2@$0A@@std@@@std@@QBE?AV?$allocator@U?$pair@$$CBJV?$vector@HV?$allocator@H@std@@@std@@@std@@@2@XZ 00438320 f i torq.obj
 0001:00037370       ?insert@?$_Tree@V?$_Tmap_traits@JV?$vector@HV?$allocator@H@std@@@std@@U?$less@J@2@V?$allocator@U?$pair@$$CBJV?$vector@HV?$allocator@H@std@@@std@@@std@@@2@$0A@@std@@@std@@QAE?AViterator@12@V312@ABU?$pair@$$CBJV?$vector@HV?$allocator@H@std@@@std@@@2@@Z 00438370 f i torq.obj
 0001:000379a0       ?lower_bound@?$_Tree@V?$_Tmap_traits@JV?$vector@HV?$allocator@H@std@@@std@@U?$less@J@2@V?$allocator@U?$pair@$$CBJV?$vector@HV?$allocator@H@std@@@std@@@std@@@2@$0A@@std@@@std@@QAE?AViterator@12@ABJ@Z 004389a0 f i torq.obj
 0001:00037a00       ?_Lmost@?$_Tree@V?$_Tmap_traits@JV?$vector@HV?$allocator@H@std@@@std@@U?$less@J@2@V?$allocator@U?$pair@$$CBJV?$vector@HV?$allocator@H@std@@@std@@@std@@@2@$0A@@std@@@std@@IAEAAPAU_Node@?$_Tree_nod@V?$_Tmap_traits@JV?$vector@HV?$allocator@H@std@@@std@@U?$less@J@2@V?$allocator@U?$pair@$$CBJV?$vector@HV?$allocator@H@std@@@std@@@std@@@2@$0A@@std@@@2@XZ 00438a00 f i torq.obj
 0001:00037a50       ?_Tidy@?$_Tree@V?$_Tmap_traits@JV?$vector@HV?$allocator@H@std@@@std@@U?$less@J@2@V?$allocator@U?$pair@$$CBJV?$vector@HV?$allocator@H@std@@@std@@@std@@@2@$0A@@std@@@std@@IAEXXZ 00438a50 f i torq.obj
 0001:00037b40       ??0?$allocator@U?$pair@$$CBJV?$vector@HV?$allocator@H@std@@@std@@@std@@@std@@QAE@XZ 00438b40 f i torq.obj
 0001:00037b70       ??Dconst_iterator@?$_Tree@V?$_Tmap_traits@JV?$vector@HV?$allocator@H@std@@@std@@U?$less@J@2@V?$allocator@U?$pair@$$CBJV?$vector@HV?$allocator@H@std@@@std@@@std@@@2@$0A@@std@@@std@@QBEABU?$pair@$$CBJV?$vector@HV?$allocator@H@std@@@std@@@2@XZ 00438b70 f i torq.obj
 0001:00037bc0       ??8const_iterator@?$_Tree@V?$_Tmap_traits@JV?$vector@HV?$allocator@H@std@@@std@@U?$less@J@2@V?$allocator@U?$pair@$$CBJV?$vector@HV?$allocator@H@std@@@std@@@std@@@2@$0A@@std@@@std@@QBE_NABV012@@Z 00438bc0 f i torq.obj
 0001:00037c00       ?_Inc@const_iterator@?$_Tree@V?$_Tmap_traits@JV?$vector@HV?$allocator@H@std@@@std@@U?$less@J@2@V?$allocator@U?$pair@$$CBJV?$vector@HV?$allocator@H@std@@@std@@@std@@@2@$0A@@std@@@std@@QAEXXZ 00438c00 f i torq.obj
 0001:00037ce0       ?_Mynode@const_iterator@?$_Tree@V?$_Tmap_traits@JV?$vector@HV?$allocator@H@std@@@std@@U?$less@J@2@V?$allocator@U?$pair@$$CBJV?$vector@HV?$allocator@H@std@@@std@@@std@@@2@$0A@@std@@@std@@QBEPAU_Node@?$_Tree_nod@V?$_Tmap_traits@JV?$vector@HV?$allocator@H@std@@@std@@U?$less@J@2@V?$allocator@U?$pair@$$CBJV?$vector@HV?$allocator@H@std@@@std@@@std@@@2@$0A@@std@@@3@XZ 00438ce0 f i torq.obj
 0001:00037d10       ??0iterator@?$_Tree@V?$_Tmap_traits@JV?$vector@HV?$allocator@H@std@@@std@@U?$less@J@2@V?$allocator@U?$pair@$$CBJV?$vector@HV?$allocator@H@std@@@std@@@std@@@2@$0A@@std@@@std@@QAE@PAU_Node@?$_Tree_nod@V?$_Tmap_traits@JV?$vector@HV?$allocator@H@std@@@std@@U?$less@J@2@V?$allocator@U?$pair@$$CBJV?$vector@HV?$allocator@H@std@@@std@@@std@@@2@$0A@@std@@@2@@Z 00438d10 f i torq.obj
 0001:00037d60       ??Diterator@?$_Tree@V?$_Tmap_traits@JV?$vector@HV?$allocator@H@std@@@std@@U?$less@J@2@V?$allocator@U?$pair@$$CBJV?$vector@HV?$allocator@H@std@@@std@@@std@@@2@$0A@@std@@@std@@QBEAAU?$pair@$$CBJV?$vector@HV?$allocator@H@std@@@std@@@2@XZ 00438d60 f i torq.obj
 0001:00037da0       ??0?$pair@$$CBJV?$vector@HV?$allocator@H@std@@@std@@@std@@QAE@ABJABV?$vector@HV?$allocator@H@std@@@1@@Z 00438da0 f i torq.obj
 0001:00037e00       ??0iterator@?$vector@V?$basic_string@DU?$char_traits@D@std@@V?$allocator@D@2@@std@@V?$allocator@V?$basic_string@DU?$char_traits@D@std@@V?$allocator@D@2@@std@@@2@@std@@QAE@PAV?$basic_string@DU?$char_traits@D@std@@V?$allocator@D@2@@2@@Z 00438e00 f i torq.obj
 0001:00037e50       ??Diterator@?$vector@V?$basic_string@DU?$char_traits@D@std@@V?$allocator@D@2@@std@@V?$allocator@V?$basic_string@DU?$char_traits@D@std@@V?$allocator@D@2@@std@@@2@@std@@QBEAAV?$basic_string@DU?$char_traits@D@std@@V?$allocator@D@2@@2@XZ 00438e50 f i torq.obj
 0001:00037e90       ??Hiterator@?$vector@V?$basic_string@DU?$char_traits@D@std@@V?$allocator@D@2@@std@@V?$allocator@V?$basic_string@DU?$char_traits@D@std@@V?$allocator@D@2@@std@@@2@@std@@QBE?AV012@H@Z 00438e90 f i torq.obj
 0001:00037f20       ??Dconst_iterator@?$vector@V?$basic_string@DU?$char_traits@D@std@@V?$allocator@D@2@@std@@V?$allocator@V?$basic_string@DU?$char_traits@D@std@@V?$allocator@D@2@@std@@@2@@std@@QBEABV?$basic_string@DU?$char_traits@D@std@@V?$allocator@D@2@@2@XZ 00438f20 f i torq.obj
 0001:00037f50       ??Hconst_iterator@?$vector@V?$basic_string@DU?$char_traits@D@std@@V?$allocator@D@2@@std@@V?$allocator@V?$basic_string@DU?$char_traits@D@std@@V?$allocator@D@2@@std@@@2@@std@@QBE?AV012@H@Z 00438f50 f i torq.obj
 0001:00037fe0       ??0iterator@?$_Tree@V?$_Tmap_traits@V?$vector@HV?$allocator@H@std@@@std@@UNodeFormat@Helper@text@@U?$less@V?$vector@HV?$allocator@H@std@@@std@@@2@V?$allocator@U?$pair@$$CBV?$vector@HV?$allocator@H@std@@@std@@UNodeFormat@Helper@text@@@std@@@2@$0A@@std@@@std@@QAE@PAU_Node@?$_Tree_nod@V?$_Tmap_traits@V?$vector@HV?$allocator@H@std@@@std@@UNodeFormat@Helper@text@@U?$less@V?$vector@HV?$allocator@H@std@@@std@@@2@V?$allocator@U?$pair@$$CBV?$vector@HV?$allocator@H@std@@@std@@UNodeFormat@Helper@text@@@std@@@2@$0A@@std@@@2@@Z 00438fe0 f i torq.obj
 0001:00038030       ??Diterator@?$_Tree@V?$_Tmap_traits@V?$vector@HV?$allocator@H@std@@@std@@UNodeFormat@Helper@text@@U?$less@V?$vector@HV?$allocator@H@std@@@std@@@2@V?$allocator@U?$pair@$$CBV?$vector@HV?$allocator@H@std@@@std@@UNodeFormat@Helper@text@@@std@@@2@$0A@@std@@@std@@QBEAAU?$pair@$$CBV?$vector@HV?$allocator@H@std@@@std@@UNodeFormat@Helper@text@@@2@XZ 00439030 f i torq.obj
 0001:00038070       ??Diterator@?$basic_string@DU?$char_traits@D@std@@V?$allocator@D@2@@std@@QBEAADXZ 00439070 f i torq.obj
 0001:000380b0       ??0sentry@?$basic_ostream@DU?$char_traits@D@std@@@std@@QAE@AAV12@@Z 004390b0 f i torq.obj
 0001:00038190       ??1sentry@?$basic_ostream@DU?$char_traits@D@std@@@std@@QAE@XZ 00439190 f i torq.obj
 0001:00038220       ??Bsentry@?$basic_ostream@DU?$char_traits@D@std@@@std@@QBE_NXZ 00439220 f i torq.obj
 0001:00038250       ?put@?$num_put@DV?$ostreambuf_iterator@DU?$char_traits@D@std@@@std@@@std@@QBE?AV?$ostreambuf_iterator@DU?$char_traits@D@std@@@2@V32@AAVios_base@2@DJ@Z 00439250 f i torq.obj
 0001:000382c0       ?put@?$num_put@DV?$ostreambuf_iterator@DU?$char_traits@D@std@@@std@@@std@@QBE?AV?$ostreambuf_iterator@DU?$char_traits@D@std@@@2@V32@AAVios_base@2@DK@Z 004392c0 f i torq.obj
 0001:00038330       ??0?$ostreambuf_iterator@DU?$char_traits@D@std@@@std@@QAE@PAV?$basic_streambuf@DU?$char_traits@D@std@@@1@@Z 00439330 f i torq.obj
 0001:00038370       ?failed@?$ostreambuf_iterator@DU?$char_traits@D@std@@@std@@QBE_NXZ 00439370 f i torq.obj
 0001:000383a0       ??Diterator@?$vector@PBDV?$allocator@PBD@std@@@std@@QBEAAPBDXZ 004393a0 f i torq.obj
 0001:000383e0       ??Hiterator@?$vector@PBDV?$allocator@PBD@std@@@std@@QBE?AV012@H@Z 004393e0 f i torq.obj
 0001:00038470       ??Diterator@?$vector@DV?$allocator@D@std@@@std@@QBEAADXZ 00439470 f i torq.obj
 0001:000384b0       ??Hiterator@?$vector@DV?$allocator@D@std@@@std@@QBE?AV012@H@Z 004394b0 f i torq.obj
 0001:00038540       ??Dconst_iterator@?$vector@UTOKEN@@V?$allocator@UTOKEN@@@std@@@std@@QBEABUTOKEN@@XZ 00439540 f i torq.obj
 0001:00038570       ??Hconst_iterator@?$vector@UTOKEN@@V?$allocator@UTOKEN@@@std@@@std@@QBE?AV012@H@Z 00439570 f i torq.obj
 0001:00038600       ??Diterator@?$vector@UTOKEN@@V?$allocator@UTOKEN@@@std@@@std@@QBEAAUTOKEN@@XZ 00439600 f i torq.obj
 0001:00038640       ??Hiterator@?$vector@UTOKEN@@V?$allocator@UTOKEN@@@std@@@std@@QBE?AV012@H@Z 00439640 f i torq.obj
 0001:000386d0       ??Dconst_iterator@?$vector@UTRACE_ITEM@@V?$allocator@UTRACE_ITEM@@@std@@@std@@QBEABUTRACE_ITEM@@XZ 004396d0 f i torq.obj
 0001:00038700       ??Hconst_iterator@?$vector@UTRACE_ITEM@@V?$allocator@UTRACE_ITEM@@@std@@@std@@QBE?AV012@H@Z 00439700 f i torq.obj
 0001:00038790       ??Diterator@?$vector@UTRACE_ITEM@@V?$allocator@UTRACE_ITEM@@@std@@@std@@QBEAAUTRACE_ITEM@@XZ 00439790 f i torq.obj
 0001:000387d0       ??Hiterator@?$vector@UTRACE_ITEM@@V?$allocator@UTRACE_ITEM@@@std@@@std@@QBE?AV012@H@Z 004397d0 f i torq.obj
 0001:00038860       ??Giterator@?$vector@UTRACE_ITEM@@V?$allocator@UTRACE_ITEM@@@std@@@std@@QBE?AV012@H@Z 00439860 f i torq.obj
 0001:000388f0       ??Dconst_iterator@?$vector@JV?$allocator@J@std@@@std@@QBEABJXZ 004398f0 f i torq.obj
 0001:00038920       ??Hconst_iterator@?$vector@JV?$allocator@J@std@@@std@@QBE?AV012@H@Z 00439920 f i torq.obj
 0001:000389b0       ??Diterator@?$vector@JV?$allocator@J@std@@@std@@QBEAAJXZ 004399b0 f i torq.obj
 0001:000389f0       ??Hiterator@?$vector@JV?$allocator@J@std@@@std@@QBE?AV012@H@Z 004399f0 f i torq.obj
 0001:00038a80       ??Giterator@?$vector@JV?$allocator@J@std@@@std@@QBE?AV012@H@Z 00439a80 f i torq.obj
 0001:00038b10       ??Gconst_iterator@?$vector@PAUToken@text@@V?$allocator@PAUToken@text@@@std@@@std@@QBE?AV012@H@Z 00439b10 f i torq.obj
 0001:00038ba0       ??Hconst_iterator@?$vector@U?$pair@V?$vector@HV?$allocator@H@std@@@std@@UGeneratedToken@text@@@std@@V?$allocator@U?$pair@V?$vector@HV?$allocator@H@std@@@std@@UGeneratedToken@text@@@std@@@2@@std@@QBE?AV012@H@Z 00439ba0 f i torq.obj
 0001:00038c30       ??Diterator@?$list@U?$pair@$$CBJUNodeFormat@Helper@text@@@std@@V?$allocator@U?$pair@$$CBJUNodeFormat@Helper@text@@@std@@@2@@std@@QBEAAU?$pair@$$CBJUNodeFormat@Helper@text@@@2@XZ 00439c30 f i torq.obj
 0001:00038c70       ??Dconst_iterator@?$vector@U?$pair@_NUNodeFormatI@Helper@text@@@std@@V?$allocator@U?$pair@_NUNodeFormatI@Helper@text@@@std@@@2@@std@@QBEABU?$pair@_NUNodeFormatI@Helper@text@@@2@XZ 00439c70 f i torq.obj
 0001:00038ca0       ??Hconst_iterator@?$vector@U?$pair@_NUNodeFormatI@Helper@text@@@std@@V?$allocator@U?$pair@_NUNodeFormatI@Helper@text@@@std@@@2@@std@@QBE?AV012@H@Z 00439ca0 f i torq.obj
 0001:00038d30       ??Diterator@?$vector@U?$pair@_NUNodeFormatI@Helper@text@@@std@@V?$allocator@U?$pair@_NUNodeFormatI@Helper@text@@@std@@@2@@std@@QBEAAU?$pair@_NUNodeFormatI@Helper@text@@@2@XZ 00439d30 f i torq.obj
 0001:00038d70       ??Hiterator@?$vector@U?$pair@_NUNodeFormatI@Helper@text@@@std@@V?$allocator@U?$pair@_NUNodeFormatI@Helper@text@@@std@@@2@@std@@QBE?AV012@H@Z 00439d70 f i torq.obj
 0001:00038e00       ??Dconst_iterator@?$vector@V?$vector@HV?$allocator@H@std@@@std@@V?$allocator@V?$vector@HV?$allocator@H@std@@@std@@@2@@std@@QBEABV?$vector@HV?$allocator@H@std@@@2@XZ 00439e00 f i torq.obj
 0001:00038e30       ??Hconst_iterator@?$vector@V?$vector@HV?$allocator@H@std@@@std@@V?$allocator@V?$vector@HV?$allocator@H@std@@@std@@@2@@std@@QBE?AV012@H@Z 00439e30 f i torq.obj
 0001:00038ec0       ??Diterator@?$vector@V?$vector@HV?$allocator@H@std@@@std@@V?$allocator@V?$vector@HV?$allocator@H@std@@@std@@@2@@std@@QBEAAV?$vector@HV?$allocator@H@std@@@2@XZ 00439ec0 f i torq.obj
 0001:00038f00       ??Hiterator@?$vector@V?$vector@HV?$allocator@H@std@@@std@@V?$allocator@V?$vector@HV?$allocator@H@std@@@std@@@2@@std@@QBE?AV012@H@Z 00439f00 f i torq.obj
 0001:00038f90       ??Diterator@?$vector@UMATCH@Interpreter@@V?$allocator@UMATCH@Interpreter@@@std@@@std@@QBEAAUMATCH@Interpreter@@XZ 00439f90 f i torq.obj
 0001:00038fd0       ??Hiterator@?$vector@UMATCH@Interpreter@@V?$allocator@UMATCH@Interpreter@@@std@@@std@@QBE?AV012@H@Z 00439fd0 f i torq.obj
 0001:00039060       ??Giterator@?$vector@UMATCH@Interpreter@@V?$allocator@UMATCH@Interpreter@@@std@@@std@@QBE?AV012@H@Z 0043a060 f i torq.obj
 0001:000390f0       ??Dconst_iterator@?$vector@UTSL@Interpreter@@V?$allocator@UTSL@Interpreter@@@std@@@std@@QBEABUTSL@Interpreter@@XZ 0043a0f0 f i torq.obj
 0001:00039120       ??Hconst_iterator@?$vector@UTSL@Interpreter@@V?$allocator@UTSL@Interpreter@@@std@@@std@@QBE?AV012@H@Z 0043a120 f i torq.obj
 0001:000391b0       ??Diterator@?$vector@UTSL@Interpreter@@V?$allocator@UTSL@Interpreter@@@std@@@std@@QBEAAUTSL@Interpreter@@XZ 0043a1b0 f i torq.obj
 0001:000391f0       ??Hiterator@?$vector@UTSL@Interpreter@@V?$allocator@UTSL@Interpreter@@@std@@@std@@QBE?AV012@H@Z 0043a1f0 f i torq.obj
 0001:00039280       ?in@?$codecvt@DDH@std@@QBEHAAHPBD1AAPBDPAD3AAPAD@Z 0043a280 f i torq.obj
 0001:000392f0       ?out@?$codecvt@DDH@std@@QBEHAAHPBD1AAPBDPAD3AAPAD@Z 0043a2f0 f i torq.obj
 0001:00039360       ??Diterator@?$basic_string@DU?$char_traits@D@std@@V?$_DebugHeapAllocator@D@2@@std@@QBEAADXZ 0043a360 f i torq.obj
 0001:000393a0       ??0?$basic_win32handle_ostreambuf@DU?$char_traits@D@std@@@win32@@QAE@PAX@Z 0043a3a0 f i torq.obj
 0001:00039430       ?overflow@?$basic_win32handle_ostreambuf@DU?$char_traits@D@std@@@win32@@MAEHH@Z 0043a430 f i torq.obj
 0001:000394b0       ?sync@?$basic_win32handle_ostreambuf@DU?$char_traits@D@std@@@win32@@MAEHXZ 0043a4b0 f i torq.obj
 0001:00039500       ??_G?$basic_win32handle_ostreambuf@DU?$char_traits@D@std@@@win32@@UAEPAXI@Z 0043a500 f i torq.obj
 0001:00039500       ??_E?$basic_win32handle_ostreambuf@DU?$char_traits@D@std@@@win32@@UAEPAXI@Z 0043a500 f i torq.obj
 0001:00039560       ?append@?$basic_string@DU?$char_traits@D@std@@V?$allocator@D@2@@std@@QAEAAV12@ABV12@II@Z 0043a560 f i torq.obj
 0001:00039640       ?append@?$basic_string@DU?$char_traits@D@std@@V?$allocator@D@2@@std@@QAEAAV12@PBDI@Z 0043a640 f i torq.obj
 0001:00039720       ?assign@?$basic_string@DU?$char_traits@D@std@@V?$allocator@D@2@@std@@QAEAAV12@ID@Z 0043a720 f i torq.obj
 0001:000397b0       ?_Eos@?$basic_string@DU?$char_traits@D@std@@V?$_DebugHeapAllocator@D@2@@std@@IAEXI@Z 0043a7b0 f i torq.obj
 0001:00039820       ?_Grow@?$basic_string@DU?$char_traits@D@std@@V?$_DebugHeapAllocator@D@2@@std@@IAE_NI_N@Z 0043a820 f i torq.obj
 0001:000398f0       ?_Myptr@?$basic_string@DU?$char_traits@D@std@@V?$_DebugHeapAllocator@D@2@@std@@QAEPADXZ 0043a8f0 f i torq.obj
 0001:00039950       ?deallocate@?$_DebugHeapAllocator@D@std@@QAEXPADI@Z 0043a950 f i torq.obj
 0001:000399a0       ?_Osfx@?$basic_ostream@DU?$char_traits@D@std@@@std@@QAEXXZ 0043a9a0 f i torq.obj
 0001:00039a00       ?tie@?$basic_ios@DU?$char_traits@D@std@@@std@@QBEPAV?$basic_ostream@DU?$char_traits@D@std@@@2@XZ 0043aa00 f i torq.obj
 0001:00039a30       ?init@?$basic_ios@DU?$char_traits@D@std@@@std@@IAEXPAV?$basic_streambuf@DU?$char_traits@D@std@@@2@_N@Z 0043aa30 f i torq.obj
 0001:00039ad0       ??0?$basic_streambuf@DU?$char_traits@D@std@@@std@@IAE@XZ 0043aad0 f i torq.obj
 0001:00039b70       ?getloc@?$basic_streambuf@DU?$char_traits@D@std@@@std@@QBE?AVlocale@2@XZ 0043ab70 f i torq.obj
 0001:00039be0       ?_Lock@?$basic_streambuf@DU?$char_traits@D@std@@@std@@QAEXXZ 0043abe0 f i torq.obj
 0001:00039c30       ?_Lock@_Mutex@std@@QAEXXZ  0043ac30 f i torq.obj
 0001:00039c60       ?_Init@?$basic_streambuf@DU?$char_traits@D@std@@@std@@IAEXXZ 0043ac60 f i torq.obj
 0001:00039d00       ?destroy@?$optional_base@Vlocale@std@@@optional_detail@boost@@IAEXXZ 0043ad00 f i torq.obj
 0001:00039d50       ?_Tidy@?$vector@IV?$allocator@I@std@@@std@@IAEXXZ 0043ad50 f i torq.obj
 0001:00039df0       ?_Insert_n@?$vector@V?$basic_string@DU?$char_traits@D@std@@V?$allocator@D@2@@std@@V?$allocator@V?$basic_string@DU?$char_traits@D@std@@V?$allocator@D@2@@std@@@2@@std@@IAEXViterator@12@IABV?$basic_string@DU?$char_traits@D@std@@V?$allocator@D@2@@2@@Z 0043adf0 f i torq.obj
 0001:0003a1a0       ?max_size@?$allocator@V?$basic_string@DU?$char_traits@D@std@@V?$allocator@D@2@@std@@@std@@QBEIXZ 0043b1a0 f i torq.obj
 0001:0003a200       ?end@?$vector@PBDV?$allocator@PBD@std@@@std@@QAE?AViterator@12@XZ 0043b200 f i torq.obj
 0001:0003a250       ?size@?$vector@PBDV?$allocator@PBD@std@@@std@@QBEIXZ 0043b250 f i torq.obj
 0001:0003a2b0       ?max_size@?$vector@PBDV?$allocator@PBD@std@@@std@@QBEIXZ 0043b2b0 f i torq.obj
 0001:0003a2f0       ?erase@?$vector@PBDV?$allocator@PBD@std@@@std@@QAE?AViterator@12@V312@0@Z 0043b2f0 f i torq.obj
 0001:0003a380       ?_Destroy@?$vector@PBDV?$allocator@PBD@std@@@std@@IAEXPAPBD0@Z 0043b380 f i torq.obj
 0001:0003a3d0       ?_Insert_n@?$vector@PBDV?$allocator@PBD@std@@@std@@IAEXViterator@12@IABQBD@Z 0043b3d0 f i torq.obj
 0001:0003a750       ?_Xlen@?$vector@PBDV?$allocator@PBD@std@@@std@@IBEXXZ 0043b750 f i torq.obj
 0001:0003a7e0       ??0?$allocator@PBD@std@@QAE@ABV01@@Z 0043b7e0 f i torq.obj
 0001:0003a810       ?deallocate@?$allocator@PBD@std@@QAEXPAPBDI@Z 0043b810 f i torq.obj
 0001:0003a860       ?allocate@?$allocator@PBD@std@@QAEPAPBDI@Z 0043b860 f i torq.obj
 0001:0003a8b0       ?erase@?$vector@HV?$allocator@H@std@@@std@@QAE?AViterator@12@V312@0@Z 0043b8b0 f i torq.obj
 0001:0003a940       ?end@?$vector@DV?$allocator@D@std@@@std@@QAE?AViterator@12@XZ 0043b940 f i torq.obj
 0001:0003a990       ?max_size@?$vector@DV?$allocator@D@std@@@std@@QBEIXZ 0043b990 f i torq.obj
 0001:0003a9d0       ?erase@?$vector@DV?$allocator@D@std@@@std@@QAE?AViterator@12@V312@0@Z 0043b9d0 f i torq.obj
 0001:0003aa60       ?_Destroy@?$vector@DV?$allocator@D@std@@@std@@IAEXPAD0@Z 0043ba60 f i torq.obj
 0001:0003aab0       ?_Insert_n@?$vector@DV?$allocator@D@std@@@std@@IAEXViterator@12@IABD@Z 0043bab0 f i torq.obj
 0001:0003ae10       ?_Ufill@?$vector@DV?$allocator@D@std@@@std@@IAEPADPADIABD@Z 0043be10 f i torq.obj
 0001:0003ae70       ?_Xlen@?$vector@DV?$allocator@D@std@@@std@@IBEXXZ 0043be70 f i torq.obj
 0001:0003af00       ??Dconst_iterator@?$basic_string@DU?$char_traits@D@std@@V?$allocator@D@2@@std@@QBEABDXZ 0043bf00 f i torq.obj
 0001:0003af30       ?_Hashval@?$_Hash@V?$_Hmap_traits@HV?$basic_string@DU?$char_traits@D@std@@V?$allocator@D@2@@std@@V?$hash_compare@HU?$less@H@std@@@stdext@@V?$allocator@U?$pair@$$CBHV?$basic_string@DU?$char_traits@D@std@@V?$allocator@D@2@@std@@@std@@@2@$0A@@stdext@@@stdext@@IBEIABH@Z 0043bf30 f i torq.obj
 0001:0003afa0       ?_Kfn@?$_Hmap_traits@HV?$basic_string@DU?$char_traits@D@std@@V?$allocator@D@2@@std@@V?$hash_compare@HU?$less@H@std@@@stdext@@V?$allocator@U?$pair@$$CBHV?$basic_string@DU?$char_traits@D@std@@V?$allocator@D@2@@std@@@std@@@2@$0A@@stdext@@SAABHABU?$pair@$$CBHV?$basic_string@DU?$char_traits@D@std@@V?$allocator@D@2@@std@@@std@@@Z 0043bfa0 f i torq.obj
 0001:0003afd0       ??R?$hash_compare@HU?$less@H@std@@@stdext@@QBE_NABH0@Z 0043bfd0 f i torq.obj
 0001:0003b020       ?_Myval@?$list@U?$pair@$$CBHV?$basic_string@DU?$char_traits@D@std@@V?$allocator@D@2@@std@@@std@@V?$allocator@U?$pair@$$CBHV?$basic_string@DU?$char_traits@D@std@@V?$allocator@D@2@@std@@@std@@@2@@std@@KAAAU?$pair@$$CBHV?$basic_string@DU?$char_traits@D@std@@V?$allocator@D@2@@std@@@2@PAU_Node@?$_List_nod@U?$pair@$$CBHV?$basic_string@DU?$char_traits@D@std@@V?$allocator@D@2@@std@@@std@@V?$allocator@U?$pair@$$CBHV?$basic_string@DU?$char_traits@D@std@@V?$allocator@D@2@@std@@@std@@@2@@2@@Z 0043c020 f i torq.obj
 0001:0003b050       ??A?$vector@Viterator@?$list@U?$pair@$$CBHV?$basic_string@DU?$char_traits@D@std@@V?$allocator@D@2@@std@@@std@@V?$allocator@U?$pair@$$CBHV?$basic_string@DU?$char_traits@D@std@@V?$allocator@D@2@@std@@@std@@@2@@std@@V?$allocator@Viterator@?$list@U?$pair@$$CBHV?$basic_string@DU?$char_traits@D@std@@V?$allocator@D@2@@std@@@std@@V?$allocator@U?$pair@$$CBHV?$basic_string@DU?$char_traits@D@std@@V?$allocator@D@2@@std@@@std@@@2@@std@@@3@@std@@QBEABViterator@?$list@U?$pair@$$CBHV?$basic_string@DU?$char_traits@D@std@@V?$allocator@D@2@@std@@@std@@V?$allocator@U?$pair@$$CBHV?$basic_string@DU?$char_traits@D@std@@V?$allocator@D@2@@std@@@std@@@2@@1@I@Z 0043c050 f i torq.obj
 0001:0003b0c0       ??0const_iterator@?$list@U?$pair@$$CBHV?$basic_string@DU?$char_traits@D@std@@V?$allocator@D@2@@std@@@std@@V?$allocator@U?$pair@$$CBHV?$basic_string@DU?$char_traits@D@std@@V?$allocator@D@2@@std@@@std@@@2@@std@@QAE@XZ 0043c0c0 f i torq.obj
 0001:0003b100       ??0const_iterator@?$list@U?$pair@$$CBHV?$basic_string@DU?$char_traits@D@std@@V?$allocator@D@2@@std@@@std@@V?$allocator@U?$pair@$$CBHV?$basic_string@DU?$char_traits@D@std@@V?$allocator@D@2@@std@@@std@@@2@@std@@QAE@PAU_Node@?$_List_nod@U?$pair@$$CBHV?$basic_string@DU?$char_traits@D@std@@V?$allocator@D@2@@std@@@std@@V?$allocator@U?$pair@$$CBHV?$basic_string@DU?$char_traits@D@std@@V?$allocator@D@2@@std@@@std@@@2@@2@@Z 0043c100 f i torq.obj
 0001:0003b140       ??Econst_iterator@?$list@U?$pair@$$CBHV?$basic_string@DU?$char_traits@D@std@@V?$allocator@D@2@@std@@@std@@V?$allocator@U?$pair@$$CBHV?$basic_string@DU?$char_traits@D@std@@V?$allocator@D@2@@std@@@std@@@2@@std@@QAEAAV012@XZ 0043c140 f i torq.obj
 0001:0003b190       ?_Destroy@?$vector@U?$format_item@DU?$char_traits@D@std@@V?$allocator@D@2@@detail@io@boost@@V?$allocator@U?$format_item@DU?$char_traits@D@std@@V?$allocator@D@2@@detail@io@boost@@@std@@@std@@IAEXPAU?$format_item@DU?$char_traits@D@std@@V?$allocator@D@2@@detail@io@boost@@0@Z 0043c190 f i torq.obj
 0001:0003b1e0       ?deallocate@?$allocator@U?$format_item@DU?$char_traits@D@std@@V?$allocator@D@2@@detail@io@boost@@@std@@QAEXPAU?$format_item@DU?$char_traits@D@std@@V?$allocator@D@2@@detail@io@boost@@I@Z 0043c1e0 f i torq.obj
 0001:0003b230       ?max_size@?$vector@UTOKEN@@V?$allocator@UTOKEN@@@std@@@std@@QBEIXZ 0043c230 f i torq.obj
 0001:0003b270       ?_Insert_n@?$vector@UTOKEN@@V?$allocator@UTOKEN@@@std@@@std@@IAEXViterator@12@IABUTOKEN@@@Z 0043c270 f i torq.obj
 0001:0003b610       ?_Xlen@?$vector@UTOKEN@@V?$allocator@UTOKEN@@@std@@@std@@IBEXXZ 0043c610 f i torq.obj
 0001:0003b6a0       ?allocate@?$allocator@UTOKEN@@@std@@QAEPAUTOKEN@@I@Z 0043c6a0 f i torq.obj
 0001:0003b6f0       ??Ziterator@?$vector@HV?$allocator@H@std@@@std@@QAEAAV012@H@Z 0043c6f0 f i torq.obj
 0001:0003b740       ?_Insert_n@?$vector@UTRACE_ITEM@@V?$allocator@UTRACE_ITEM@@@std@@@std@@IAEXViterator@12@IABUTRACE_ITEM@@@Z 0043c740 f i torq.obj
 0001:0003bae0       ??0TRACE_ITEM@@QAE@ABU0@@Z 0043cae0 f i torq.obj
 0001:0003bb60       ?max_size@?$allocator@UTRACE_ITEM@@@std@@QBEIXZ 0043cb60 f i torq.obj
 0001:0003bbc0       ?max_size@?$vector@JV?$allocator@J@std@@@std@@QBEIXZ 0043cbc0 f i torq.obj
 0001:0003bc00       ?erase@?$vector@JV?$allocator@J@std@@@std@@QAE?AViterator@12@V312@0@Z 0043cc00 f i torq.obj
 0001:0003bc90       ?_Insert_n@?$vector@JV?$allocator@J@std@@@std@@IAEXViterator@12@IABJ@Z 0043cc90 f i torq.obj
 0001:0003c010       ?_Xlen@?$vector@JV?$allocator@J@std@@@std@@IBEXXZ 0043d010 f i torq.obj
 0001:0003c0a0       ?allocate@?$allocator@J@std@@QAEPAJI@Z 0043d0a0 f i torq.obj
 0001:0003c0f0       ?clear@?$vector@PAUToken@text@@V?$allocator@PAUToken@text@@@std@@@std@@QAEXXZ 0043d0f0 f i torq.obj
 0001:0003c130       ?size@?$_Hash@V?$_Hmap_traits@JUNodeFormat@Helper@text@@V?$hash_compare@JU?$less@J@std@@@stdext@@V?$allocator@U?$pair@$$CBJUNodeFormat@Helper@text@@@std@@@std@@$0A@@stdext@@@stdext@@QBEIXZ 0043d130 f i torq.obj
 0001:0003c180       ?_Hashval@?$_Hash@V?$_Hmap_traits@JUNodeFormat@Helper@text@@V?$hash_compare@JU?$less@J@std@@@stdext@@V?$allocator@U?$pair@$$CBJUNodeFormat@Helper@text@@@std@@@std@@$0A@@stdext@@@stdext@@IBEIABJ@Z 0043d180 f i torq.obj
 0001:0003c1f0       ??0?$_Hmap_traits@JUNodeFormat@Helper@text@@V?$hash_compare@JU?$less@J@std@@@stdext@@V?$allocator@U?$pair@$$CBJUNodeFormat@Helper@text@@@std@@@std@@$0A@@stdext@@QAE@ABV?$hash_compare@JU?$less@J@std@@@1@@Z 0043d1f0 f i torq.obj
 0001:0003c230       ?_Kfn@?$_Hmap_traits@JUNodeFormat@Helper@text@@V?$hash_compare@JU?$less@J@std@@@stdext@@V?$allocator@U?$pair@$$CBJUNodeFormat@Helper@text@@@std@@@std@@$0A@@stdext@@SAABJABU?$pair@$$CBJUNodeFormat@Helper@text@@@std@@@Z 0043d230 f i torq.obj
 0001:0003c260       ??R?$hash_compare@JU?$less@J@std@@@stdext@@QBEIABJ@Z 0043d260 f i torq.obj
 0001:0003c2b0       ??R?$hash_compare@JU?$less@J@std@@@stdext@@QBE_NABJ0@Z 0043d2b0 f i torq.obj
 0001:0003c300       ?_Myval@?$list@U?$pair@$$CBJUNodeFormat@Helper@text@@@std@@V?$allocator@U?$pair@$$CBJUNodeFormat@Helper@text@@@std@@@2@@std@@KAAAU?$pair@$$CBJUNodeFormat@Helper@text@@@2@PAU_Node@?$_List_nod@U?$pair@$$CBJUNodeFormat@Helper@text@@@std@@V?$allocator@U?$pair@$$CBJUNodeFormat@Helper@text@@@std@@@2@@2@@Z 0043d300 f i torq.obj
 0001:0003c330       ??0?$list@U?$pair@$$CBJUNodeFormat@Helper@text@@@std@@V?$allocator@U?$pair@$$CBJUNodeFormat@Helper@text@@@std@@@2@@std@@QAE@ABV?$allocator@U?$pair@$$CBJUNodeFormat@Helper@text@@@std@@@1@@Z 0043d330 f i torq.obj
 0001:0003c3a0       ?end@?$list@U?$pair@$$CBJUNodeFormat@Helper@text@@@std@@V?$allocator@U?$pair@$$CBJUNodeFormat@Helper@text@@@std@@@2@@std@@QAE?AViterator@12@XZ 0043d3a0 f i torq.obj
 0001:0003c3f0       ?insert@?$list@U?$pair@$$CBJUNodeFormat@Helper@text@@@std@@V?$allocator@U?$pair@$$CBJUNodeFormat@Helper@text@@@std@@@2@@std@@QAE?AViterator@12@V312@ABU?$pair@$$CBJUNodeFormat@Helper@text@@@2@@Z 0043d3f0 f i torq.obj
 0001:0003c450       ?_Splice@?$list@U?$pair@$$CBJUNodeFormat@Helper@text@@@std@@V?$allocator@U?$pair@$$CBJUNodeFormat@Helper@text@@@std@@@2@@std@@QAEXViterator@12@AAV12@00I@Z 0043d450 f i torq.obj
 0001:0003c5f0       ?_Tidy@?$list@U?$pair@$$CBJUNodeFormat@Helper@text@@@std@@V?$allocator@U?$pair@$$CBJUNodeFormat@Helper@text@@@std@@@2@@std@@IAEXXZ 0043d5f0 f i torq.obj
 0001:0003c680       ??0?$vector@Viterator@?$list@U?$pair@$$CBJUNodeFormat@Helper@text@@@std@@V?$allocator@U?$pair@$$CBJUNodeFormat@Helper@text@@@std@@@2@@std@@V?$allocator@Viterator@?$list@U?$pair@$$CBJUNodeFormat@Helper@text@@@std@@V?$allocator@U?$pair@$$CBJUNodeFormat@Helper@text@@@std@@@2@@std@@@3@@std@@QAE@IABViterator@?$list@U?$pair@$$CBJUNodeFormat@Helper@text@@@std@@V?$allocator@U?$pair@$$CBJUNodeFormat@Helper@text@@@std@@@2@@1@ABV?$allocator@Viterator@?$list@U?$pair@$$CBJUNodeFormat@Helper@text@@@std@@V?$allocator@U?$pair@$$CBJUNodeFormat@Helper@text@@@std@@@2@@std@@@1@@Z 0043d680 f i torq.obj
 0001:0003c6e0       ?resize@?$vector@Viterator@?$list@U?$pair@$$CBJUNodeFormat@Helper@text@@@std@@V?$allocator@U?$pair@$$CBJUNodeFormat@Helper@text@@@std@@@2@@std@@V?$allocator@Viterator@?$list@U?$pair@$$CBJUNodeFormat@Helper@text@@@std@@V?$allocator@U?$pair@$$CBJUNodeFormat@Helper@text@@@std@@@2@@std@@@3@@std@@QAEXIViterator@?$list@U?$pair@$$CBJUNodeFormat@Helper@text@@@std@@V?$allocator@U?$pair@$$CBJUNodeFormat@Helper@text@@@std@@@2@@2@@Z 0043d6e0 f i torq.obj
 0001:0003c7b0       ?size@?$vector@Viterator@?$list@U?$pair@$$CBJUNodeFormat@Helper@text@@@std@@V?$allocator@U?$pair@$$CBJUNodeFormat@Helper@text@@@std@@@2@@std@@V?$allocator@Viterator@?$list@U?$pair@$$CBJUNodeFormat@Helper@text@@@std@@V?$allocator@U?$pair@$$CBJUNodeFormat@Helper@text@@@std@@@2@@std@@@3@@std@@QBEIXZ 0043d7b0 f i torq.obj
 0001:0003c810       ??A?$vector@Viterator@?$list@U?$pair@$$CBJUNodeFormat@Helper@text@@@std@@V?$allocator@U?$pair@$$CBJUNodeFormat@Helper@text@@@std@@@2@@std@@V?$allocator@Viterator@?$list@U?$pair@$$CBJUNodeFormat@Helper@text@@@std@@V?$allocator@U?$pair@$$CBJUNodeFormat@Helper@text@@@std@@@2@@std@@@3@@std@@QAEAAViterator@?$list@U?$pair@$$CBJUNodeFormat@Helper@text@@@std@@V?$allocator@U?$pair@$$CBJUNodeFormat@Helper@text@@@std@@@2@@1@I@Z 0043d810 f i torq.obj
 0001:0003c880       ?_Tidy@?$vector@Viterator@?$list@U?$pair@$$CBJUNodeFormat@Helper@text@@@std@@V?$allocator@U?$pair@$$CBJUNodeFormat@Helper@text@@@std@@@2@@std@@V?$allocator@Viterator@?$list@U?$pair@$$CBJUNodeFormat@Helper@text@@@std@@V?$allocator@U?$pair@$$CBJUNodeFormat@Helper@text@@@std@@@2@@std@@@3@@std@@IAEXXZ 0043d880 f i torq.obj
 0001:0003c920       ??0const_iterator@?$list@U?$pair@$$CBJUNodeFormat@Helper@text@@@std@@V?$allocator@U?$pair@$$CBJUNodeFormat@Helper@text@@@std@@@2@@std@@QAE@PAU_Node@?$_List_nod@U?$pair@$$CBJUNodeFormat@Helper@text@@@std@@V?$allocator@U?$pair@$$CBJUNodeFormat@Helper@text@@@std@@@2@@2@@Z 0043d920 f i torq.obj
 0001:0003c960       ?end@?$vector@U?$pair@_NUNodeFormatI@Helper@text@@@std@@V?$allocator@U?$pair@_NUNodeFormatI@Helper@text@@@std@@@2@@std@@QAE?AViterator@12@XZ 0043d960 f i torq.obj
 0001:0003c9b0       ?max_size@?$vector@U?$pair@_NUNodeFormatI@Helper@text@@@std@@V?$allocator@U?$pair@_NUNodeFormatI@Helper@text@@@std@@@2@@std@@QBEIXZ 0043d9b0 f i torq.obj
 0001:0003c9f0       ?erase@?$vector@U?$pair@_NUNodeFormatI@Helper@text@@@std@@V?$allocator@U?$pair@_NUNodeFormatI@Helper@text@@@std@@@2@@std@@QAE?AViterator@12@V312@0@Z 0043d9f0 f i torq.obj
 0001:0003ca80       ?_Destroy@?$vector@U?$pair@_NUNodeFormatI@Helper@text@@@std@@V?$allocator@U?$pair@_NUNodeFormatI@Helper@text@@@std@@@2@@std@@IAEXPAU?$pair@_NUNodeFormatI@Helper@text@@@2@0@Z 0043da80 f i torq.obj
 0001:0003cad0       ?_Insert_n@?$vector@U?$pair@_NUNodeFormatI@Helper@text@@@std@@V?$allocator@U?$pair@_NUNodeFormatI@Helper@text@@@std@@@2@@std@@IAEXViterator@12@IABU?$pair@_NUNodeFormatI@Helper@text@@@2@@Z 0043dad0 f i torq.obj
 0001:0003ce90       ?_Xlen@?$vector@U?$pair@_NUNodeFormatI@Helper@text@@@std@@V?$allocator@U?$pair@_NUNodeFormatI@Helper@text@@@std@@@2@@std@@IBEXXZ 0043de90 f i torq.obj
 0001:0003cf20       ??0?$allocator@U?$pair@_NUNodeFormatI@Helper@text@@@std@@@std@@QAE@ABV01@@Z 0043df20 f i torq.obj
 0001:0003cf50       ?deallocate@?$allocator@U?$pair@_NUNodeFormatI@Helper@text@@@std@@@std@@QAEXPAU?$pair@_NUNodeFormatI@Helper@text@@@2@I@Z 0043df50 f i torq.obj
 0001:0003cfa0       ?allocate@?$allocator@U?$pair@_NUNodeFormatI@Helper@text@@@std@@@std@@QAEPAU?$pair@_NUNodeFormatI@Helper@text@@@2@I@Z 0043dfa0 f i torq.obj
 0001:0003cff0       ?max_size@?$vector@V?$vector@HV?$allocator@H@std@@@std@@V?$allocator@V?$vector@HV?$allocator@H@std@@@std@@@2@@std@@QBEIXZ 0043dff0 f i torq.obj
 0001:0003d030       ?_Destroy@?$vector@V?$vector@HV?$allocator@H@std@@@std@@V?$allocator@V?$vector@HV?$allocator@H@std@@@std@@@2@@std@@IAEXPAV?$vector@HV?$allocator@H@std@@@2@0@Z 0043e030 f i torq.obj
 0001:0003d080       ?_Insert_n@?$vector@V?$vector@HV?$allocator@H@std@@@std@@V?$allocator@V?$vector@HV?$allocator@H@std@@@std@@@2@@std@@IAEXViterator@12@IABV?$vector@HV?$allocator@H@std@@@2@@Z 0043e080 f i torq.obj
 0001:0003d420       ?_Xlen@?$vector@V?$vector@HV?$allocator@H@std@@@std@@V?$allocator@V?$vector@HV?$allocator@H@std@@@std@@@2@@std@@IBEXXZ 0043e420 f i torq.obj
 0001:0003d4b0       ?deallocate@?$allocator@V?$vector@HV?$allocator@H@std@@@std@@@std@@QAEXPAV?$vector@HV?$allocator@H@std@@@2@I@Z 0043e4b0 f i torq.obj
 0001:0003d500       ?allocate@?$allocator@V?$vector@HV?$allocator@H@std@@@std@@@std@@QAEPAV?$vector@HV?$allocator@H@std@@@2@I@Z 0043e500 f i torq.obj
 0001:0003d550       ?max_size@?$vector@EV?$allocator@E@std@@@std@@QBEIXZ 0043e550 f i torq.obj
 0001:0003d590       ?_Destroy@?$vector@EV?$allocator@E@std@@@std@@IAEXPAE0@Z 0043e590 f i torq.obj
 0001:0003d5e0       ?_Xlen@?$vector@EV?$allocator@E@std@@@std@@IBEXXZ 0043e5e0 f i torq.obj
 0001:0003d670       ??0?$allocator@E@std@@QAE@ABV01@@Z 0043e670 f i torq.obj
 0001:0003d6a0       ?deallocate@?$allocator@E@std@@QAEXPAEI@Z 0043e6a0 f i torq.obj
 0001:0003d6f0       ?allocate@?$allocator@E@std@@QAEPAEI@Z 0043e6f0 f i torq.obj
 0001:0003d740       ?erase@?$vector@UMATCH@Interpreter@@V?$allocator@UMATCH@Interpreter@@@std@@@std@@QAE?AViterator@12@V312@0@Z 0043e740 f i torq.obj
 0001:0003d7d0       ?_Insert_n@?$vector@UMATCH@Interpreter@@V?$allocator@UMATCH@Interpreter@@@std@@@std@@IAEXViterator@12@IABUMATCH@Interpreter@@@Z 0043e7d0 f i torq.obj
 0001:0003db50       ??0?$allocator@UMATCH@Interpreter@@@std@@QAE@ABV01@@Z 0043eb50 f i torq.obj
 0001:0003db80       ?max_size@?$allocator@UMATCH@Interpreter@@@std@@QBEIXZ 0043eb80 f i torq.obj
 0001:0003dbe0       ?_Isnil@?$_Tree@V?$_Tmap_traits@V?$vector@HV?$allocator@H@std@@@std@@VTokenSequence@text@@U?$less@V?$vector@HV?$allocator@H@std@@@std@@@2@V?$allocator@U?$pair@$$CBV?$vector@HV?$allocator@H@std@@@std@@VTokenSequence@text@@@std@@@2@$0A@@std@@@std@@KAAADPAU_Node@?$_Tree_nod@V?$_Tmap_traits@V?$vector@HV?$allocator@H@std@@@std@@VTokenSequence@text@@U?$less@V?$vector@HV?$allocator@H@std@@@std@@@2@V?$allocator@U?$pair@$$CBV?$vector@HV?$allocator@H@std@@@std@@VTokenSequence@text@@@std@@@2@$0A@@std@@@2@@Z 0043ebe0 f i torq.obj
 0001:0003dc10       ?_Left@?$_Tree@V?$_Tmap_traits@V?$vector@HV?$allocator@H@std@@@std@@VTokenSequence@text@@U?$less@V?$vector@HV?$allocator@H@std@@@std@@@2@V?$allocator@U?$pair@$$CBV?$vector@HV?$allocator@H@std@@@std@@VTokenSequence@text@@@std@@@2@$0A@@std@@@std@@KAAAPAU_Node@?$_Tree_nod@V?$_Tmap_traits@V?$vector@HV?$allocator@H@std@@@std@@VTokenSequence@text@@U?$less@V?$vector@HV?$allocator@H@std@@@std@@@2@V?$allocator@U?$pair@$$CBV?$vector@HV?$allocator@H@std@@@std@@VTokenSequence@text@@@std@@@2@$0A@@std@@@2@PAU342@@Z 0043ec10 f i torq.obj
 0001:0003dc40       ?_Parent@?$_Tree@V?$_Tmap_traits@V?$vector@HV?$allocator@H@std@@@std@@VTokenSequence@text@@U?$less@V?$vector@HV?$allocator@H@std@@@std@@@2@V?$allocator@U?$pair@$$CBV?$vector@HV?$allocator@H@std@@@std@@VTokenSequence@text@@@std@@@2@$0A@@std@@@std@@KAAAPAU_Node@?$_Tree_nod@V?$_Tmap_traits@V?$vector@HV?$allocator@H@std@@@std@@VTokenSequence@text@@U?$less@V?$vector@HV?$allocator@H@std@@@std@@@2@V?$allocator@U?$pair@$$CBV?$vector@HV?$allocator@H@std@@@std@@VTokenSequence@text@@@std@@@2@$0A@@std@@@2@PAU342@@Z 0043ec40 f i torq.obj
 0001:0003dc70       ?_Right@?$_Tree@V?$_Tmap_traits@V?$vector@HV?$allocator@H@std@@@std@@VTokenSequence@text@@U?$less@V?$vector@HV?$allocator@H@std@@@std@@@2@V?$allocator@U?$pair@$$CBV?$vector@HV?$allocator@H@std@@@std@@VTokenSequence@text@@@std@@@2@$0A@@std@@@std@@KAAAPAU_Node@?$_Tree_nod@V?$_Tmap_traits@V?$vector@HV?$allocator@H@std@@@std@@VTokenSequence@text@@U?$less@V?$vector@HV?$allocator@H@std@@@std@@@2@V?$allocator@U?$pair@$$CBV?$vector@HV?$allocator@H@std@@@std@@VTokenSequence@text@@@std@@@2@$0A@@std@@@2@PAU342@@Z 0043ec70 f i torq.obj
 0001:0003dca0       ?_Myval@?$_Tree@V?$_Tmap_traits@V?$vector@HV?$allocator@H@std@@@std@@VTokenSequence@text@@U?$less@V?$vector@HV?$allocator@H@std@@@std@@@2@V?$allocator@U?$pair@$$CBV?$vector@HV?$allocator@H@std@@@std@@VTokenSequence@text@@@std@@@2@$0A@@std@@@std@@KAAAU?$pair@$$CBV?$vector@HV?$allocator@H@std@@@std@@VTokenSequence@text@@@2@PAU_Node@?$_Tree_nod@V?$_Tmap_traits@V?$vector@HV?$allocator@H@std@@@std@@VTokenSequence@text@@U?$less@V?$vector@HV?$allocator@H@std@@@std@@@2@V?$allocator@U?$pair@$$CBV?$vector@HV?$allocator@H@std@@@std@@VTokenSequence@text@@@std@@@2@$0A@@std@@@2@@Z 0043eca0 f i torq.obj
 0001:0003dcd0       ?begin@?$_Tree@V?$_Tmap_traits@V?$vector@HV?$allocator@H@std@@@std@@VTokenSequence@text@@U?$less@V?$vector@HV?$allocator@H@std@@@std@@@2@V?$allocator@U?$pair@$$CBV?$vector@HV?$allocator@H@std@@@std@@VTokenSequence@text@@@std@@@2@$0A@@std@@@std@@QAE?AViterator@12@XZ 0043ecd0 f i torq.obj
 0001:0003dd20       ?size@?$_Tree@V?$_Tmap_traits@V?$vector@HV?$allocator@H@std@@@std@@VTokenSequence@text@@U?$less@V?$vector@HV?$allocator@H@std@@@std@@@2@V?$allocator@U?$pair@$$CBV?$vector@HV?$allocator@H@std@@@std@@VTokenSequence@text@@@std@@@2@$0A@@std@@@std@@QBEIXZ 0043ed20 f i torq.obj
 0001:0003dd50       ?insert@?$_Tree@V?$_Tmap_traits@V?$vector@HV?$allocator@H@std@@@std@@VTokenSequence@text@@U?$less@V?$vector@HV?$allocator@H@std@@@std@@@2@V?$allocator@U?$pair@$$CBV?$vector@HV?$allocator@H@std@@@std@@VTokenSequence@text@@@std@@@2@$0A@@std@@@std@@QAE?AU?$pair@Viterator@?$_Tree@V?$_Tmap_traits@V?$vector@HV?$allocator@H@std@@@std@@VTokenSequence@text@@U?$less@V?$vector@HV?$allocator@H@std@@@std@@@2@V?$allocator@U?$pair@$$CBV?$vector@HV?$allocator@H@std@@@std@@VTokenSequence@text@@@std@@@2@$0A@@std@@@std@@_N@2@ABU?$pair@$$CBV?$vector@HV?$allocator@H@std@@@std@@VTokenSequence@text@@@2@@Z 0043ed50 f i torq.obj
 0001:0003df80       ?erase@?$_Tree@V?$_Tmap_traits@V?$vector@HV?$allocator@H@std@@@std@@VTokenSequence@text@@U?$less@V?$vector@HV?$allocator@H@std@@@std@@@2@V?$allocator@U?$pair@$$CBV?$vector@HV?$allocator@H@std@@@std@@VTokenSequence@text@@@std@@@2@$0A@@std@@@std@@QAE?AViterator@12@V312@0@Z 0043ef80 f i torq.obj
 0001:0003e060       ?_Init@?$_Tree@V?$_Tmap_traits@V?$vector@HV?$allocator@H@std@@@std@@VTokenSequence@text@@U?$less@V?$vector@HV?$allocator@H@std@@@std@@@2@V?$allocator@U?$pair@$$CBV?$vector@HV?$allocator@H@std@@@std@@VTokenSequence@text@@@std@@@2@$0A@@std@@@std@@IAEXXZ 0043f060 f i torq.obj
 0001:0003e100       ?_Insert@?$_Tree@V?$_Tmap_traits@V?$vector@HV?$allocator@H@std@@@std@@VTokenSequence@text@@U?$less@V?$vector@HV?$allocator@H@std@@@std@@@2@V?$allocator@U?$pair@$$CBV?$vector@HV?$allocator@H@std@@@std@@VTokenSequence@text@@@std@@@2@$0A@@std@@@std@@IAE?AViterator@12@_NPAU_Node@?$_Tree_nod@V?$_Tmap_traits@V?$vector@HV?$allocator@H@std@@@std@@VTokenSequence@text@@U?$less@V?$vector@HV?$allocator@H@std@@@std@@@2@V?$allocator@U?$pair@$$CBV?$vector@HV?$allocator@H@std@@@std@@VTokenSequence@text@@@std@@@2@$0A@@std@@@2@ABU?$pair@$$CBV?$vector@HV?$allocator@H@std@@@std@@VTokenSequence@text@@@2@@Z 0043f100 f i torq.obj
 0001:0003e590       ?_Lbound@?$_Tree@V?$_Tmap_traits@V?$vector@HV?$allocator@H@std@@@std@@VTokenSequence@text@@U?$less@V?$vector@HV?$allocator@H@std@@@std@@@2@V?$allocator@U?$pair@$$CBV?$vector@HV?$allocator@H@std@@@std@@VTokenSequence@text@@@std@@@2@$0A@@std@@@std@@IBEPAU_Node@?$_Tree_nod@V?$_Tmap_traits@V?$vector@HV?$allocator@H@std@@@std@@VTokenSequence@text@@U?$less@V?$vector@HV?$allocator@H@std@@@std@@@2@V?$allocator@U?$pair@$$CBV?$vector@HV?$allocator@H@std@@@std@@VTokenSequence@text@@@std@@@2@$0A@@std@@@2@ABV?$vector@HV?$allocator@H@std@@@2@@Z 0043f590 f i torq.obj
 0001:0003e650       ?_Rmost@?$_Tree@V?$_Tmap_traits@V?$vector@HV?$allocator@H@std@@@std@@VTokenSequence@text@@U?$less@V?$vector@HV?$allocator@H@std@@@std@@@2@V?$allocator@U?$pair@$$CBV?$vector@HV?$allocator@H@std@@@std@@VTokenSequence@text@@@std@@@2@$0A@@std@@@std@@IAEAAPAU_Node@?$_Tree_nod@V?$_Tmap_traits@V?$vector@HV?$allocator@H@std@@@std@@VTokenSequence@text@@U?$less@V?$vector@HV?$allocator@H@std@@@std@@@2@V?$allocator@U?$pair@$$CBV?$vector@HV?$allocator@H@std@@@std@@VTokenSequence@text@@@std@@@2@$0A@@std@@@2@XZ 0043f650 f i torq.obj
 0001:0003e6a0       ??0?$_Tree_val@V?$_Tmap_traits@V?$vector@HV?$allocator@H@std@@@std@@VTokenSequence@text@@U?$less@V?$vector@HV?$allocator@H@std@@@std@@@2@V?$allocator@U?$pair@$$CBV?$vector@HV?$allocator@H@std@@@std@@VTokenSequence@text@@@std@@@2@$0A@@std@@@std@@IAE@ABU?$less@V?$vector@HV?$allocator@H@std@@@std@@@1@V?$allocator@U?$pair@$$CBV?$vector@HV?$allocator@H@std@@@std@@VTokenSequence@text@@@std@@@1@@Z 0043f6a0 f i torq.obj
 0001:0003e710       ?_Kfn@?$_Tmap_traits@V?$vector@HV?$allocator@H@std@@@std@@VTokenSequence@text@@U?$less@V?$vector@HV?$allocator@H@std@@@std@@@2@V?$allocator@U?$pair@$$CBV?$vector@HV?$allocator@H@std@@@std@@VTokenSequence@text@@@std@@@2@$0A@@std@@SAABV?$vector@HV?$allocator@H@std@@@2@ABU?$pair@$$CBV?$vector@HV?$allocator@H@std@@@std@@VTokenSequence@text@@@2@@Z 0043f710 f i torq.obj
 0001:0003e740       ??0?$allocator@U?$pair@$$CBV?$vector@HV?$allocator@H@std@@@std@@VTokenSequence@text@@@std@@@std@@QAE@ABV01@@Z 0043f740 f i torq.obj
 0001:0003e770       ?deallocate@?$allocator@U_Node@?$_Tree_nod@V?$_Tmap_traits@V?$vector@HV?$allocator@H@std@@@std@@VTokenSequence@text@@U?$less@V?$vector@HV?$allocator@H@std@@@std@@@2@V?$allocator@U?$pair@$$CBV?$vector@HV?$allocator@H@std@@@std@@VTokenSequence@text@@@std@@@2@$0A@@std@@@std@@@std@@QAEXPAU_Node@?$_Tree_nod@V?$_Tmap_traits@V?$vector@HV?$allocator@H@std@@@std@@VTokenSequence@text@@U?$less@V?$vector@HV?$allocator@H@std@@@std@@@2@V?$allocator@U?$pair@$$CBV?$vector@HV?$allocator@H@std@@@std@@VTokenSequence@text@@@std@@@2@$0A@@std@@@2@I@Z 0043f770 f i torq.obj
 0001:0003e7c0       ?destroy@?$allocator@PAU_Node@?$_Tree_nod@V?$_Tmap_traits@V?$vector@HV?$allocator@H@std@@@std@@VTokenSequence@text@@U?$less@V?$vector@HV?$allocator@H@std@@@std@@@2@V?$allocator@U?$pair@$$CBV?$vector@HV?$allocator@H@std@@@std@@VTokenSequence@text@@@std@@@2@$0A@@std@@@std@@@std@@QAEXPAPAU_Node@?$_Tree_nod@V?$_Tmap_traits@V?$vector@HV?$allocator@H@std@@@std@@VTokenSequence@text@@U?$less@V?$vector@HV?$allocator@H@std@@@std@@@2@V?$allocator@U?$pair@$$CBV?$vector@HV?$allocator@H@std@@@std@@VTokenSequence@text@@@std@@@2@$0A@@std@@@2@@Z 0043f7c0 f i torq.obj
 0001:0003e810       ?_Isnil@?$_Tree@V?$_Tmap_traits@V?$vector@HV?$allocator@H@std@@@std@@JU?$less@V?$vector@HV?$allocator@H@std@@@std@@@2@V?$allocator@U?$pair@$$CBV?$vector@HV?$allocator@H@std@@@std@@J@std@@@2@$0A@@std@@@std@@KAAADPAU_Node@?$_Tree_nod@V?$_Tmap_traits@V?$vector@HV?$allocator@H@std@@@std@@JU?$less@V?$vector@HV?$allocator@H@std@@@std@@@2@V?$allocator@U?$pair@$$CBV?$vector@HV?$allocator@H@std@@@std@@J@std@@@2@$0A@@std@@@2@@Z 0043f810 f i torq.obj
 0001:0003e840       ?_Left@?$_Tree@V?$_Tmap_traits@V?$vector@HV?$allocator@H@std@@@std@@JU?$less@V?$vector@HV?$allocator@H@std@@@std@@@2@V?$allocator@U?$pair@$$CBV?$vector@HV?$allocator@H@std@@@std@@J@std@@@2@$0A@@std@@@std@@KAAAPAU_Node@?$_Tree_nod@V?$_Tmap_traits@V?$vector@HV?$allocator@H@std@@@std@@JU?$less@V?$vector@HV?$allocator@H@std@@@std@@@2@V?$allocator@U?$pair@$$CBV?$vector@HV?$allocator@H@std@@@std@@J@std@@@2@$0A@@std@@@2@PAU342@@Z 0043f840 f i torq.obj
 0001:0003e870       ?_Parent@?$_Tree@V?$_Tmap_traits@V?$vector@HV?$allocator@H@std@@@std@@JU?$less@V?$vector@HV?$allocator@H@std@@@std@@@2@V?$allocator@U?$pair@$$CBV?$vector@HV?$allocator@H@std@@@std@@J@std@@@2@$0A@@std@@@std@@KAAAPAU_Node@?$_Tree_nod@V?$_Tmap_traits@V?$vector@HV?$allocator@H@std@@@std@@JU?$less@V?$vector@HV?$allocator@H@std@@@std@@@2@V?$allocator@U?$pair@$$CBV?$vector@HV?$allocator@H@std@@@std@@J@std@@@2@$0A@@std@@@2@PAU342@@Z 0043f870 f i torq.obj
 0001:0003e8a0       ?_Right@?$_Tree@V?$_Tmap_traits@V?$vector@HV?$allocator@H@std@@@std@@JU?$less@V?$vector@HV?$allocator@H@std@@@std@@@2@V?$allocator@U?$pair@$$CBV?$vector@HV?$allocator@H@std@@@std@@J@std@@@2@$0A@@std@@@std@@KAAAPAU_Node@?$_Tree_nod@V?$_Tmap_traits@V?$vector@HV?$allocator@H@std@@@std@@JU?$less@V?$vector@HV?$allocator@H@std@@@std@@@2@V?$allocator@U?$pair@$$CBV?$vector@HV?$allocator@H@std@@@std@@J@std@@@2@$0A@@std@@@2@PAU342@@Z 0043f8a0 f i torq.obj
 0001:0003e8d0       ?_Myval@?$_Tree@V?$_Tmap_traits@V?$vector@HV?$allocator@H@std@@@std@@JU?$less@V?$vector@HV?$allocator@H@std@@@std@@@2@V?$allocator@U?$pair@$$CBV?$vector@HV?$allocator@H@std@@@std@@J@std@@@2@$0A@@std@@@std@@KAAAU?$pair@$$CBV?$vector@HV?$allocator@H@std@@@std@@J@2@PAU_Node@?$_Tree_nod@V?$_Tmap_traits@V?$vector@HV?$allocator@H@std@@@std@@JU?$less@V?$vector@HV?$allocator@H@std@@@std@@@2@V?$allocator@U?$pair@$$CBV?$vector@HV?$allocator@H@std@@@std@@J@std@@@2@$0A@@std@@@2@@Z 0043f8d0 f i torq.obj
 0001:0003e900       ?begin@?$_Tree@V?$_Tmap_traits@V?$vector@HV?$allocator@H@std@@@std@@JU?$less@V?$vector@HV?$allocator@H@std@@@std@@@2@V?$allocator@U?$pair@$$CBV?$vector@HV?$allocator@H@std@@@std@@J@std@@@2@$0A@@std@@@std@@QAE?AViterator@12@XZ 0043f900 f i torq.obj
 0001:0003e950       ?insert@?$_Tree@V?$_Tmap_traits@V?$vector@HV?$allocator@H@std@@@std@@JU?$less@V?$vector@HV?$allocator@H@std@@@std@@@2@V?$allocator@U?$pair@$$CBV?$vector@HV?$allocator@H@std@@@std@@J@std@@@2@$0A@@std@@@std@@QAE?AU?$pair@Viterator@?$_Tree@V?$_Tmap_traits@V?$vector@HV?$allocator@H@std@@@std@@JU?$less@V?$vector@HV?$allocator@H@std@@@std@@@2@V?$allocator@U?$pair@$$CBV?$vector@HV?$allocator@H@std@@@std@@J@std@@@2@$0A@@std@@@std@@_N@2@ABU?$pair@$$CBV?$vector@HV?$allocator@H@std@@@std@@J@2@@Z 0043f950 f i torq.obj
 0001:0003eb80       ?erase@?$_Tree@V?$_Tmap_traits@V?$vector@HV?$allocator@H@std@@@std@@JU?$less@V?$vector@HV?$allocator@H@std@@@std@@@2@V?$allocator@U?$pair@$$CBV?$vector@HV?$allocator@H@std@@@std@@J@std@@@2@$0A@@std@@@std@@QAE?AViterator@12@V312@0@Z 0043fb80 f i torq.obj
 0001:0003ec60       ?_Init@?$_Tree@V?$_Tmap_traits@V?$vector@HV?$allocator@H@std@@@std@@JU?$less@V?$vector@HV?$allocator@H@std@@@std@@@2@V?$allocator@U?$pair@$$CBV?$vector@HV?$allocator@H@std@@@std@@J@std@@@2@$0A@@std@@@std@@IAEXXZ 0043fc60 f i torq.obj
 0001:0003ed00       ?_Insert@?$_Tree@V?$_Tmap_traits@V?$vector@HV?$allocator@H@std@@@std@@JU?$less@V?$vector@HV?$allocator@H@std@@@std@@@2@V?$allocator@U?$pair@$$CBV?$vector@HV?$allocator@H@std@@@std@@J@std@@@2@$0A@@std@@@std@@IAE?AViterator@12@_NPAU_Node@?$_Tree_nod@V?$_Tmap_traits@V?$vector@HV?$allocator@H@std@@@std@@JU?$less@V?$vector@HV?$allocator@H@std@@@std@@@2@V?$allocator@U?$pair@$$CBV?$vector@HV?$allocator@H@std@@@std@@J@std@@@2@$0A@@std@@@2@ABU?$pair@$$CBV?$vector@HV?$allocator@H@std@@@std@@J@2@@Z 0043fd00 f i torq.obj
 0001:0003f190       ?_Lbound@?$_Tree@V?$_Tmap_traits@V?$vector@HV?$allocator@H@std@@@std@@JU?$less@V?$vector@HV?$allocator@H@std@@@std@@@2@V?$allocator@U?$pair@$$CBV?$vector@HV?$allocator@H@std@@@std@@J@std@@@2@$0A@@std@@@std@@IBEPAU_Node@?$_Tree_nod@V?$_Tmap_traits@V?$vector@HV?$allocator@H@std@@@std@@JU?$less@V?$vector@HV?$allocator@H@std@@@std@@@2@V?$allocator@U?$pair@$$CBV?$vector@HV?$allocator@H@std@@@std@@J@std@@@2@$0A@@std@@@2@ABV?$vector@HV?$allocator@H@std@@@2@@Z 00440190 f i torq.obj
 0001:0003f250       ?_Rmost@?$_Tree@V?$_Tmap_traits@V?$vector@HV?$allocator@H@std@@@std@@JU?$less@V?$vector@HV?$allocator@H@std@@@std@@@2@V?$allocator@U?$pair@$$CBV?$vector@HV?$allocator@H@std@@@std@@J@std@@@2@$0A@@std@@@std@@IAEAAPAU_Node@?$_Tree_nod@V?$_Tmap_traits@V?$vector@HV?$allocator@H@std@@@std@@JU?$less@V?$vector@HV?$allocator@H@std@@@std@@@2@V?$allocator@U?$pair@$$CBV?$vector@HV?$allocator@H@std@@@std@@J@std@@@2@$0A@@std@@@2@XZ 00440250 f i torq.obj
 0001:0003f2a0       ??0?$_Tree_val@V?$_Tmap_traits@V?$vector@HV?$allocator@H@std@@@std@@JU?$less@V?$vector@HV?$allocator@H@std@@@std@@@2@V?$allocator@U?$pair@$$CBV?$vector@HV?$allocator@H@std@@@std@@J@std@@@2@$0A@@std@@@std@@IAE@ABU?$less@V?$vector@HV?$allocator@H@std@@@std@@@1@V?$allocator@U?$pair@$$CBV?$vector@HV?$allocator@H@std@@@std@@J@std@@@1@@Z 004402a0 f i torq.obj
 0001:0003f310       ?_Kfn@?$_Tmap_traits@V?$vector@HV?$allocator@H@std@@@std@@JU?$less@V?$vector@HV?$allocator@H@std@@@std@@@2@V?$allocator@U?$pair@$$CBV?$vector@HV?$allocator@H@std@@@std@@J@std@@@2@$0A@@std@@SAABV?$vector@HV?$allocator@H@std@@@2@ABU?$pair@$$CBV?$vector@HV?$allocator@H@std@@@std@@J@2@@Z 00440310 f i torq.obj
 0001:0003f340       ??0?$allocator@U?$pair@$$CBV?$vector@HV?$allocator@H@std@@@std@@J@std@@@std@@QAE@ABV01@@Z 00440340 f i torq.obj
 0001:0003f370       ?deallocate@?$allocator@U_Node@?$_Tree_nod@V?$_Tmap_traits@V?$vector@HV?$allocator@H@std@@@std@@JU?$less@V?$vector@HV?$allocator@H@std@@@std@@@2@V?$allocator@U?$pair@$$CBV?$vector@HV?$allocator@H@std@@@std@@J@std@@@2@$0A@@std@@@std@@@std@@QAEXPAU_Node@?$_Tree_nod@V?$_Tmap_traits@V?$vector@HV?$allocator@H@std@@@std@@JU?$less@V?$vector@HV?$allocator@H@std@@@std@@@2@V?$allocator@U?$pair@$$CBV?$vector@HV?$allocator@H@std@@@std@@J@std@@@2@$0A@@std@@@2@I@Z 00440370 f i torq.obj
 0001:0003f3c0       ?destroy@?$allocator@PAU_Node@?$_Tree_nod@V?$_Tmap_traits@V?$vector@HV?$allocator@H@std@@@std@@JU?$less@V?$vector@HV?$allocator@H@std@@@std@@@2@V?$allocator@U?$pair@$$CBV?$vector@HV?$allocator@H@std@@@std@@J@std@@@2@$0A@@std@@@std@@@std@@QAEXPAPAU_Node@?$_Tree_nod@V?$_Tmap_traits@V?$vector@HV?$allocator@H@std@@@std@@JU?$less@V?$vector@HV?$allocator@H@std@@@std@@@2@V?$allocator@U?$pair@$$CBV?$vector@HV?$allocator@H@std@@@std@@J@std@@@2@$0A@@std@@@2@@Z 004403c0 f i torq.obj
 0001:0003f410       ?end@?$vector@UTSL@Interpreter@@V?$allocator@UTSL@Interpreter@@@std@@@std@@QAE?AViterator@12@XZ 00440410 f i torq.obj
 0001:0003f460       ?max_size@?$vector@UTSL@Interpreter@@V?$allocator@UTSL@Interpreter@@@std@@@std@@QBEIXZ 00440460 f i torq.obj
 0001:0003f4a0       ?erase@?$vector@UTSL@Interpreter@@V?$allocator@UTSL@Interpreter@@@std@@@std@@QAE?AViterator@12@V312@0@Z 004404a0 f i torq.obj
 0001:0003f530       ?_Destroy@?$vector@UTSL@Interpreter@@V?$allocator@UTSL@Interpreter@@@std@@@std@@IAEXPAUTSL@Interpreter@@0@Z 00440530 f i torq.obj
 0001:0003f580       ?_Insert_n@?$vector@UTSL@Interpreter@@V?$allocator@UTSL@Interpreter@@@std@@@std@@IAEXViterator@12@IABUTSL@Interpreter@@@Z 00440580 f i torq.obj
 0001:0003f940       ??0TSL@Interpreter@@QAE@ABU01@@Z 00440940 f i torq.obj
 0001:0003f9c0       ??0TokenStringTableItem@Interpreter@@QAE@ABU01@@Z 004409c0 f i torq.obj
 0001:0003fa30       ?_Xlen@?$vector@UTSL@Interpreter@@V?$allocator@UTSL@Interpreter@@@std@@@std@@IBEXXZ 00440a30 f i torq.obj
 0001:0003fac0       ??0?$allocator@UTSL@Interpreter@@@std@@QAE@ABV01@@Z 00440ac0 f i torq.obj
 0001:0003faf0       ?deallocate@?$allocator@UTSL@Interpreter@@@std@@QAEXPAUTSL@Interpreter@@I@Z 00440af0 f i torq.obj
 0001:0003fb40       ?allocate@?$allocator@UTSL@Interpreter@@@std@@QAEPAUTSL@Interpreter@@I@Z 00440b40 f i torq.obj
 0001:0003fb90       ?_Color@?$_Tree@V?$_Tset_traits@JU?$less@J@std@@V?$allocator@J@2@$0A@@std@@@std@@KAAADPAU_Node@?$_Tree_nod@V?$_Tset_traits@JU?$less@J@std@@V?$allocator@J@2@$0A@@std@@@2@@Z 00440b90 f i torq.obj
 0001:0003fbc0       ?_Parent@?$_Tree@V?$_Tset_traits@JU?$less@J@std@@V?$allocator@J@2@$0A@@std@@@std@@KAAAPAU_Node@?$_Tree_nod@V?$_Tset_traits@JU?$less@J@std@@V?$allocator@J@2@$0A@@std@@@2@PAU342@@Z 00440bc0 f i torq.obj
 0001:0003fbf0       ?max_size@?$_Tree@V?$_Tset_traits@JU?$less@J@std@@V?$allocator@J@2@$0A@@std@@@std@@QBEIXZ 00440bf0 f i torq.obj
 0001:0003fc40       ?erase@?$_Tree@V?$_Tset_traits@JU?$less@J@std@@V?$allocator@J@2@$0A@@std@@@std@@QAE?AViterator@12@V312@0@Z 00440c40 f i torq.obj
 0001:0003fd20       ?_Init@?$_Tree@V?$_Tset_traits@JU?$less@J@std@@V?$allocator@J@2@$0A@@std@@@std@@IAEXXZ 00440d20 f i torq.obj
 0001:0003fdc0       ?_Lbound@?$_Tree@V?$_Tset_traits@JU?$less@J@std@@V?$allocator@J@2@$0A@@std@@@std@@IBEPAU_Node@?$_Tree_nod@V?$_Tset_traits@JU?$less@J@std@@V?$allocator@J@2@$0A@@std@@@2@ABJ@Z 00440dc0 f i torq.obj
 0001:0003fe80       ?_Lrotate@?$_Tree@V?$_Tset_traits@JU?$less@J@std@@V?$allocator@J@2@$0A@@std@@@std@@IAEXPAU_Node@?$_Tree_nod@V?$_Tset_traits@JU?$less@J@std@@V?$allocator@J@2@$0A@@std@@@2@@Z 00440e80 f i torq.obj
 0001:0003ffe0       ?_Min@?$_Tree@V?$_Tset_traits@JU?$less@J@std@@V?$allocator@J@2@$0A@@std@@@std@@KAPAU_Node@?$_Tree_nod@V?$_Tset_traits@JU?$less@J@std@@V?$allocator@J@2@$0A@@std@@@2@PAU342@@Z 00440fe0 f i torq.obj
 0001:00040050       ?_Rmost@?$_Tree@V?$_Tset_traits@JU?$less@J@std@@V?$allocator@J@2@$0A@@std@@@std@@IAEAAPAU_Node@?$_Tree_nod@V?$_Tset_traits@JU?$less@J@std@@V?$allocator@J@2@$0A@@std@@@2@XZ 00441050 f i torq.obj
 0001:000400a0       ?_Rrotate@?$_Tree@V?$_Tset_traits@JU?$less@J@std@@V?$allocator@J@2@$0A@@std@@@std@@IAEXPAU_Node@?$_Tree_nod@V?$_Tset_traits@JU?$less@J@std@@V?$allocator@J@2@$0A@@std@@@2@@Z 004410a0 f i torq.obj
 0001:00040200       ?_Buynode@?$_Tree@V?$_Tset_traits@JU?$less@J@std@@V?$allocator@J@2@$0A@@std@@@std@@IAEPAU_Node@?$_Tree_nod@V?$_Tset_traits@JU?$less@J@std@@V?$allocator@J@2@$0A@@std@@@2@PAU342@00ABJD@Z 00441200 f i torq.obj
 0001:00040310       ??0?$_Tree_val@V?$_Tset_traits@JU?$less@J@std@@V?$allocator@J@2@$0A@@std@@@std@@IAE@ABU?$less@J@1@V?$allocator@J@1@@Z 00441310 f i torq.obj
 0001:00040380       ?deallocate@?$allocator@U_Node@?$_Tree_nod@V?$_Tset_traits@JU?$less@J@std@@V?$allocator@J@2@$0A@@std@@@std@@@std@@QAEXPAU_Node@?$_Tree_nod@V?$_Tset_traits@JU?$less@J@std@@V?$allocator@J@2@$0A@@std@@@2@I@Z 00441380 f i torq.obj
 0001:000403d0       ?destroy@?$allocator@PAU_Node@?$_Tree_nod@V?$_Tset_traits@JU?$less@J@std@@V?$allocator@J@2@$0A@@std@@@std@@@std@@QAEXPAPAU_Node@?$_Tree_nod@V?$_Tset_traits@JU?$less@J@std@@V?$allocator@J@2@$0A@@std@@@2@@Z 004413d0 f i torq.obj
 0001:00040420       ??0const_iterator@?$_Tree@V?$_Tset_traits@JU?$less@J@std@@V?$allocator@J@2@$0A@@std@@@std@@QAE@PAU_Node@?$_Tree_nod@V?$_Tset_traits@JU?$less@J@std@@V?$allocator@J@2@$0A@@std@@@2@@Z 00441420 f i torq.obj
 0001:00040460       ??Fconst_iterator@?$_Tree@V?$_Tset_traits@JU?$less@J@std@@V?$allocator@J@2@$0A@@std@@@std@@QAEAAV012@XZ 00441460 f i torq.obj
 0001:000404b0       ?_Color@?$_Tree@V?$_Tset_traits@V?$vector@HV?$allocator@H@std@@@std@@U?$less@V?$vector@HV?$allocator@H@std@@@std@@@2@V?$allocator@V?$vector@HV?$allocator@H@std@@@std@@@2@$0A@@std@@@std@@KAAADPAU_Node@?$_Tree_nod@V?$_Tset_traits@V?$vector@HV?$allocator@H@std@@@std@@U?$less@V?$vector@HV?$allocator@H@std@@@std@@@2@V?$allocator@V?$vector@HV?$allocator@H@std@@@std@@@2@$0A@@std@@@2@@Z 004414b0 f i torq.obj
 0001:000404e0       ?_Parent@?$_Tree@V?$_Tset_traits@V?$vector@HV?$allocator@H@std@@@std@@U?$less@V?$vector@HV?$allocator@H@std@@@std@@@2@V?$allocator@V?$vector@HV?$allocator@H@std@@@std@@@2@$0A@@std@@@std@@KAAAPAU_Node@?$_Tree_nod@V?$_Tset_traits@V?$vector@HV?$allocator@H@std@@@std@@U?$less@V?$vector@HV?$allocator@H@std@@@std@@@2@V?$allocator@V?$vector@HV?$allocator@H@std@@@std@@@2@$0A@@std@@@2@PAU342@@Z 004414e0 f i torq.obj
 0001:00040510       ?max_size@?$_Tree@V?$_Tset_traits@V?$vector@HV?$allocator@H@std@@@std@@U?$less@V?$vector@HV?$allocator@H@std@@@std@@@2@V?$allocator@V?$vector@HV?$allocator@H@std@@@std@@@2@$0A@@std@@@std@@QBEIXZ 00441510 f i torq.obj
 0001:00040560       ?erase@?$_Tree@V?$_Tset_traits@V?$vector@HV?$allocator@H@std@@@std@@U?$less@V?$vector@HV?$allocator@H@std@@@std@@@2@V?$allocator@V?$vector@HV?$allocator@H@std@@@std@@@2@$0A@@std@@@std@@QAE?AViterator@12@V312@0@Z 00441560 f i torq.obj
 0001:00040640       ?_Init@?$_Tree@V?$_Tset_traits@V?$vector@HV?$allocator@H@std@@@std@@U?$less@V?$vector@HV?$allocator@H@std@@@std@@@2@V?$allocator@V?$vector@HV?$allocator@H@std@@@std@@@2@$0A@@std@@@std@@IAEXXZ 00441640 f i torq.obj
 0001:000406e0       ?_Lrotate@?$_Tree@V?$_Tset_traits@V?$vector@HV?$allocator@H@std@@@std@@U?$less@V?$vector@HV?$allocator@H@std@@@std@@@2@V?$allocator@V?$vector@HV?$allocator@H@std@@@std@@@2@$0A@@std@@@std@@IAEXPAU_Node@?$_Tree_nod@V?$_Tset_traits@V?$vector@HV?$allocator@H@std@@@std@@U?$less@V?$vector@HV?$allocator@H@std@@@std@@@2@V?$allocator@V?$vector@HV?$allocator@H@std@@@std@@@2@$0A@@std@@@2@@Z 004416e0 f i torq.obj
 0001:00040840       ?_Min@?$_Tree@V?$_Tset_traits@V?$vector@HV?$allocator@H@std@@@std@@U?$less@V?$vector@HV?$allocator@H@std@@@std@@@2@V?$allocator@V?$vector@HV?$allocator@H@std@@@std@@@2@$0A@@std@@@std@@KAPAU_Node@?$_Tree_nod@V?$_Tset_traits@V?$vector@HV?$allocator@H@std@@@std@@U?$less@V?$vector@HV?$allocator@H@std@@@std@@@2@V?$allocator@V?$vector@HV?$allocator@H@std@@@std@@@2@$0A@@std@@@2@PAU342@@Z 00441840 f i torq.obj
 0001:000408b0       ?_Rmost@?$_Tree@V?$_Tset_traits@V?$vector@HV?$allocator@H@std@@@std@@U?$less@V?$vector@HV?$allocator@H@std@@@std@@@2@V?$allocator@V?$vector@HV?$allocator@H@std@@@std@@@2@$0A@@std@@@std@@IAEAAPAU_Node@?$_Tree_nod@V?$_Tset_traits@V?$vector@HV?$allocator@H@std@@@std@@U?$less@V?$vector@HV?$allocator@H@std@@@std@@@2@V?$allocator@V?$vector@HV?$allocator@H@std@@@std@@@2@$0A@@std@@@2@XZ 004418b0 f i torq.obj
 0001:00040900       ?_Rrotate@?$_Tree@V?$_Tset_traits@V?$vector@HV?$allocator@H@std@@@std@@U?$less@V?$vector@HV?$allocator@H@std@@@std@@@2@V?$allocator@V?$vector@HV?$allocator@H@std@@@std@@@2@$0A@@std@@@std@@IAEXPAU_Node@?$_Tree_nod@V?$_Tset_traits@V?$vector@HV?$allocator@H@std@@@std@@U?$less@V?$vector@HV?$allocator@H@std@@@std@@@2@V?$allocator@V?$vector@HV?$allocator@H@std@@@std@@@2@$0A@@std@@@2@@Z 00441900 f i torq.obj
 0001:00040a60       ?_Buynode@?$_Tree@V?$_Tset_traits@V?$vector@HV?$allocator@H@std@@@std@@U?$less@V?$vector@HV?$allocator@H@std@@@std@@@2@V?$allocator@V?$vector@HV?$allocator@H@std@@@std@@@2@$0A@@std@@@std@@IAEPAU_Node@?$_Tree_nod@V?$_Tset_traits@V?$vector@HV?$allocator@H@std@@@std@@U?$less@V?$vector@HV?$allocator@H@std@@@std@@@2@V?$allocator@V?$vector@HV?$allocator@H@std@@@std@@@2@$0A@@std@@@2@PAU342@00ABV?$vector@HV?$allocator@H@std@@@2@D@Z 00441a60 f i torq.obj
 0001:00040b70       ??0?$_Tree_val@V?$_Tset_traits@V?$vector@HV?$allocator@H@std@@@std@@U?$less@V?$vector@HV?$allocator@H@std@@@std@@@2@V?$allocator@V?$vector@HV?$allocator@H@std@@@std@@@2@$0A@@std@@@std@@IAE@ABU?$less@V?$vector@HV?$allocator@H@std@@@std@@@1@V?$allocator@V?$vector@HV?$allocator@H@std@@@std@@@1@@Z 00441b70 f i torq.obj
 0001:00040be0       ?deallocate@?$allocator@U_Node@?$_Tree_nod@V?$_Tset_traits@V?$vector@HV?$allocator@H@std@@@std@@U?$less@V?$vector@HV?$allocator@H@std@@@std@@@2@V?$allocator@V?$vector@HV?$allocator@H@std@@@std@@@2@$0A@@std@@@std@@@std@@QAEXPAU_Node@?$_Tree_nod@V?$_Tset_traits@V?$vector@HV?$allocator@H@std@@@std@@U?$less@V?$vector@HV?$allocator@H@std@@@std@@@2@V?$allocator@V?$vector@HV?$allocator@H@std@@@std@@@2@$0A@@std@@@2@I@Z 00441be0 f i torq.obj
 0001:00040c30       ?destroy@?$allocator@PAU_Node@?$_Tree_nod@V?$_Tset_traits@V?$vector@HV?$allocator@H@std@@@std@@U?$less@V?$vector@HV?$allocator@H@std@@@std@@@2@V?$allocator@V?$vector@HV?$allocator@H@std@@@std@@@2@$0A@@std@@@std@@@std@@QAEXPAPAU_Node@?$_Tree_nod@V?$_Tset_traits@V?$vector@HV?$allocator@H@std@@@std@@U?$less@V?$vector@HV?$allocator@H@std@@@std@@@2@V?$allocator@V?$vector@HV?$allocator@H@std@@@std@@@2@$0A@@std@@@2@@Z 00441c30 f i torq.obj
 0001:00040c80       ??0const_iterator@?$_Tree@V?$_Tset_traits@V?$vector@HV?$allocator@H@std@@@std@@U?$less@V?$vector@HV?$allocator@H@std@@@std@@@2@V?$allocator@V?$vector@HV?$allocator@H@std@@@std@@@2@$0A@@std@@@std@@QAE@PAU_Node@?$_Tree_nod@V?$_Tset_traits@V?$vector@HV?$allocator@H@std@@@std@@U?$less@V?$vector@HV?$allocator@H@std@@@std@@@2@V?$allocator@V?$vector@HV?$allocator@H@std@@@std@@@2@$0A@@std@@@2@@Z 00441c80 f i torq.obj
 0001:00040cc0       ??Fconst_iterator@?$_Tree@V?$_Tset_traits@V?$vector@HV?$allocator@H@std@@@std@@U?$less@V?$vector@HV?$allocator@H@std@@@std@@@2@V?$allocator@V?$vector@HV?$allocator@H@std@@@std@@@2@$0A@@std@@@std@@QAEAAV012@XZ 00441cc0 f i torq.obj
 0001:00040d10       ??0iterator@?$_Tree@V?$_Tmap_traits@V?$vector@HV?$allocator@H@std@@@std@@JU?$less@V?$vector@HV?$allocator@H@std@@@std@@@2@V?$allocator@U?$pair@$$CBV?$vector@HV?$allocator@H@std@@@std@@J@std@@@2@$0A@@std@@@std@@QAE@XZ 00441d10 f i torq.obj
 0001:00040d60       ??Eiterator@?$_Tree@V?$_Tmap_traits@V?$vector@HV?$allocator@H@std@@@std@@JU?$less@V?$vector@HV?$allocator@H@std@@@std@@@2@V?$allocator@U?$pair@$$CBV?$vector@HV?$allocator@H@std@@@std@@J@std@@@2@$0A@@std@@@std@@QAEAAV012@XZ 00441d60 f i torq.obj
 0001:00040db0       ??Fiterator@?$_Tree@V?$_Tmap_traits@V?$vector@HV?$allocator@H@std@@@std@@JU?$less@V?$vector@HV?$allocator@H@std@@@std@@@2@V?$allocator@U?$pair@$$CBV?$vector@HV?$allocator@H@std@@@std@@J@std@@@2@$0A@@std@@@std@@QAEAAV012@XZ 00441db0 f i torq.obj
 0001:00040e00       ??0const_iterator@?$_Tree@V?$_Tmap_traits@V?$vector@HV?$allocator@H@std@@@std@@JU?$less@V?$vector@HV?$allocator@H@std@@@std@@@2@V?$allocator@U?$pair@$$CBV?$vector@HV?$allocator@H@std@@@std@@J@std@@@2@$0A@@std@@@std@@QAE@PAU_Node@?$_Tree_nod@V?$_Tmap_traits@V?$vector@HV?$allocator@H@std@@@std@@JU?$less@V?$vector@HV?$allocator@H@std@@@std@@@2@V?$allocator@U?$pair@$$CBV?$vector@HV?$allocator@H@std@@@std@@J@std@@@2@$0A@@std@@@2@@Z 00441e00 f i torq.obj
 0001:00040e40       ??Dconst_iterator@?$_Tree@V?$_Tmap_traits@V?$vector@HV?$allocator@H@std@@@std@@JU?$less@V?$vector@HV?$allocator@H@std@@@std@@@2@V?$allocator@U?$pair@$$CBV?$vector@HV?$allocator@H@std@@@std@@J@std@@@2@$0A@@std@@@std@@QBEABU?$pair@$$CBV?$vector@HV?$allocator@H@std@@@std@@J@2@XZ 00441e40 f i torq.obj
 0001:00040e90       ??0iterator@?$_Tree@V?$_Tmap_traits@V?$vector@HV?$allocator@H@std@@@std@@VTokenSequence@text@@U?$less@V?$vector@HV?$allocator@H@std@@@std@@@2@V?$allocator@U?$pair@$$CBV?$vector@HV?$allocator@H@std@@@std@@VTokenSequence@text@@@std@@@2@$0A@@std@@@std@@QAE@XZ 00441e90 f i torq.obj
 0001:00040ee0       ??Eiterator@?$_Tree@V?$_Tmap_traits@V?$vector@HV?$allocator@H@std@@@std@@VTokenSequence@text@@U?$less@V?$vector@HV?$allocator@H@std@@@std@@@2@V?$allocator@U?$pair@$$CBV?$vector@HV?$allocator@H@std@@@std@@VTokenSequence@text@@@std@@@2@$0A@@std@@@std@@QAEAAV012@XZ 00441ee0 f i torq.obj
 0001:00040f30       ??Fiterator@?$_Tree@V?$_Tmap_traits@V?$vector@HV?$allocator@H@std@@@std@@VTokenSequence@text@@U?$less@V?$vector@HV?$allocator@H@std@@@std@@@2@V?$allocator@U?$pair@$$CBV?$vector@HV?$allocator@H@std@@@std@@VTokenSequence@text@@@std@@@2@$0A@@std@@@std@@QAEAAV012@XZ 00441f30 f i torq.obj
 0001:00040f80       ??0const_iterator@?$_Tree@V?$_Tmap_traits@V?$vector@HV?$allocator@H@std@@@std@@VTokenSequence@text@@U?$less@V?$vector@HV?$allocator@H@std@@@std@@@2@V?$allocator@U?$pair@$$CBV?$vector@HV?$allocator@H@std@@@std@@VTokenSequence@text@@@std@@@2@$0A@@std@@@std@@QAE@PAU_Node@?$_Tree_nod@V?$_Tmap_traits@V?$vector@HV?$allocator@H@std@@@std@@VTokenSequence@text@@U?$less@V?$vector@HV?$allocator@H@std@@@std@@@2@V?$allocator@U?$pair@$$CBV?$vector@HV?$allocator@H@std@@@std@@VTokenSequence@text@@@std@@@2@$0A@@std@@@2@@Z 00441f80 f i torq.obj
 0001:00040fc0       ??Dconst_iterator@?$_Tree@V?$_Tmap_traits@V?$vector@HV?$allocator@H@std@@@std@@VTokenSequence@text@@U?$less@V?$vector@HV?$allocator@H@std@@@std@@@2@V?$allocator@U?$pair@$$CBV?$vector@HV?$allocator@H@std@@@std@@VTokenSequence@text@@@std@@@2@$0A@@std@@@std@@QBEABU?$pair@$$CBV?$vector@HV?$allocator@H@std@@@std@@VTokenSequence@text@@@2@XZ 00441fc0 f i torq.obj
 0001:00041010       ?_Init@?$basic_filebuf@DU?$char_traits@D@std@@@std@@IAEXPAU_iobuf@@W4_Initfl@12@@Z 00442010 f i torq.obj
 0001:000410f0       ?_Isnil@?$_Tree@V?$_Tmap_traits@V?$vector@HV?$allocator@H@std@@@std@@UNodeFormat@Helper@text@@U?$less@V?$vector@HV?$allocator@H@std@@@std@@@2@V?$allocator@U?$pair@$$CBV?$vector@HV?$allocator@H@std@@@std@@UNodeFormat@Helper@text@@@std@@@2@$0A@@std@@@std@@KAAADPAU_Node@?$_Tree_nod@V?$_Tmap_traits@V?$vector@HV?$allocator@H@std@@@std@@UNodeFormat@Helper@text@@U?$less@V?$vector@HV?$allocator@H@std@@@std@@@2@V?$allocator@U?$pair@$$CBV?$vector@HV?$allocator@H@std@@@std@@UNodeFormat@Helper@text@@@std@@@2@$0A@@std@@@2@@Z 004420f0 f i torq.obj
 0001:00041120       ?_Left@?$_Tree@V?$_Tmap_traits@V?$vector@HV?$allocator@H@std@@@std@@UNodeFormat@Helper@text@@U?$less@V?$vector@HV?$allocator@H@std@@@std@@@2@V?$allocator@U?$pair@$$CBV?$vector@HV?$allocator@H@std@@@std@@UNodeFormat@Helper@text@@@std@@@2@$0A@@std@@@std@@KAAAPAU_Node@?$_Tree_nod@V?$_Tmap_traits@V?$vector@HV?$allocator@H@std@@@std@@UNodeFormat@Helper@text@@U?$less@V?$vector@HV?$allocator@H@std@@@std@@@2@V?$allocator@U?$pair@$$CBV?$vector@HV?$allocator@H@std@@@std@@UNodeFormat@Helper@text@@@std@@@2@$0A@@std@@@2@PAU342@@Z 00442120 f i torq.obj
 0001:00041150       ?_Parent@?$_Tree@V?$_Tmap_traits@V?$vector@HV?$allocator@H@std@@@std@@UNodeFormat@Helper@text@@U?$less@V?$vector@HV?$allocator@H@std@@@std@@@2@V?$allocator@U?$pair@$$CBV?$vector@HV?$allocator@H@std@@@std@@UNodeFormat@Helper@text@@@std@@@2@$0A@@std@@@std@@KAAAPAU_Node@?$_Tree_nod@V?$_Tmap_traits@V?$vector@HV?$allocator@H@std@@@std@@UNodeFormat@Helper@text@@U?$less@V?$vector@HV?$allocator@H@std@@@std@@@2@V?$allocator@U?$pair@$$CBV?$vector@HV?$allocator@H@std@@@std@@UNodeFormat@Helper@text@@@std@@@2@$0A@@std@@@2@PAU342@@Z 00442150 f i torq.obj
 0001:00041180       ?_Right@?$_Tree@V?$_Tmap_traits@V?$vector@HV?$allocator@H@std@@@std@@UNodeFormat@Helper@text@@U?$less@V?$vector@HV?$allocator@H@std@@@std@@@2@V?$allocator@U?$pair@$$CBV?$vector@HV?$allocator@H@std@@@std@@UNodeFormat@Helper@text@@@std@@@2@$0A@@std@@@std@@KAAAPAU_Node@?$_Tree_nod@V?$_Tmap_traits@V?$vector@HV?$allocator@H@std@@@std@@UNodeFormat@Helper@text@@U?$less@V?$vector@HV?$allocator@H@std@@@std@@@2@V?$allocator@U?$pair@$$CBV?$vector@HV?$allocator@H@std@@@std@@UNodeFormat@Helper@text@@@std@@@2@$0A@@std@@@2@PAU342@@Z 00442180 f i torq.obj
 0001:000411b0       ?_Myval@?$_Tree@V?$_Tmap_traits@V?$vector@HV?$allocator@H@std@@@std@@UNodeFormat@Helper@text@@U?$less@V?$vector@HV?$allocator@H@std@@@std@@@2@V?$allocator@U?$pair@$$CBV?$vector@HV?$allocator@H@std@@@std@@UNodeFormat@Helper@text@@@std@@@2@$0A@@std@@@std@@KAAAU?$pair@$$CBV?$vector@HV?$allocator@H@std@@@std@@UNodeFormat@Helper@text@@@2@PAU_Node@?$_Tree_nod@V?$_Tmap_traits@V?$vector@HV?$allocator@H@std@@@std@@UNodeFormat@Helper@text@@U?$less@V?$vector@HV?$allocator@H@std@@@std@@@2@V?$allocator@U?$pair@$$CBV?$vector@HV?$allocator@H@std@@@std@@UNodeFormat@Helper@text@@@std@@@2@$0A@@std@@@2@@Z 004421b0 f i torq.obj
 0001:000411e0       ?size@?$_Tree@V?$_Tmap_traits@V?$vector@HV?$allocator@H@std@@@std@@UNodeFormat@Helper@text@@U?$less@V?$vector@HV?$allocator@H@std@@@std@@@2@V?$allocator@U?$pair@$$CBV?$vector@HV?$allocator@H@std@@@std@@UNodeFormat@Helper@text@@@std@@@2@$0A@@std@@@std@@QBEIXZ 004421e0 f i torq.obj
 0001:00041210       ?insert@?$_Tree@V?$_Tmap_traits@V?$vector@HV?$allocator@H@std@@@std@@UNodeFormat@Helper@text@@U?$less@V?$vector@HV?$allocator@H@std@@@std@@@2@V?$allocator@U?$pair@$$CBV?$vector@HV?$allocator@H@std@@@std@@UNodeFormat@Helper@text@@@std@@@2@$0A@@std@@@std@@QAE?AU?$pair@Viterator@?$_Tree@V?$_Tmap_traits@V?$vector@HV?$allocator@H@std@@@std@@UNodeFormat@Helper@text@@U?$less@V?$vector@HV?$allocator@H@std@@@std@@@2@V?$allocator@U?$pair@$$CBV?$vector@HV?$allocator@H@std@@@std@@UNodeFormat@Helper@text@@@std@@@2@$0A@@std@@@std@@_N@2@ABU?$pair@$$CBV?$vector@HV?$allocator@H@std@@@std@@UNodeFormat@Helper@text@@@2@@Z 00442210 f i torq.obj
 0001:00041440       ?erase@?$_Tree@V?$_Tmap_traits@V?$vector@HV?$allocator@H@std@@@std@@UNodeFormat@Helper@text@@U?$less@V?$vector@HV?$allocator@H@std@@@std@@@2@V?$allocator@U?$pair@$$CBV?$vector@HV?$allocator@H@std@@@std@@UNodeFormat@Helper@text@@@std@@@2@$0A@@std@@@std@@QAE?AViterator@12@V312@0@Z 00442440 f i torq.obj
 0001:00041520       ?_Init@?$_Tree@V?$_Tmap_traits@V?$vector@HV?$allocator@H@std@@@std@@UNodeFormat@Helper@text@@U?$less@V?$vector@HV?$allocator@H@std@@@std@@@2@V?$allocator@U?$pair@$$CBV?$vector@HV?$allocator@H@std@@@std@@UNodeFormat@Helper@text@@@std@@@2@$0A@@std@@@std@@IAEXXZ 00442520 f i torq.obj
 0001:000415c0       ?_Insert@?$_Tree@V?$_Tmap_traits@V?$vector@HV?$allocator@H@std@@@std@@UNodeFormat@Helper@text@@U?$less@V?$vector@HV?$allocator@H@std@@@std@@@2@V?$allocator@U?$pair@$$CBV?$vector@HV?$allocator@H@std@@@std@@UNodeFormat@Helper@text@@@std@@@2@$0A@@std@@@std@@IAE?AViterator@12@_NPAU_Node@?$_Tree_nod@V?$_Tmap_traits@V?$vector@HV?$allocator@H@std@@@std@@UNodeFormat@Helper@text@@U?$less@V?$vector@HV?$allocator@H@std@@@std@@@2@V?$allocator@U?$pair@$$CBV?$vector@HV?$allocator@H@std@@@std@@UNodeFormat@Helper@text@@@std@@@2@$0A@@std@@@2@ABU?$pair@$$CBV?$vector@HV?$allocator@H@std@@@std@@UNodeFormat@Helper@text@@@2@@Z 004425c0 f i torq.obj
 0001:00041a50       ?_Lbound@?$_Tree@V?$_Tmap_traits@V?$vector@HV?$allocator@H@std@@@std@@UNodeFormat@Helper@text@@U?$less@V?$vector@HV?$allocator@H@std@@@std@@@2@V?$allocator@U?$pair@$$CBV?$vector@HV?$allocator@H@std@@@std@@UNodeFormat@Helper@text@@@std@@@2@$0A@@std@@@std@@IBEPAU_Node@?$_Tree_nod@V?$_Tmap_traits@V?$vector@HV?$allocator@H@std@@@std@@UNodeFormat@Helper@text@@U?$less@V?$vector@HV?$allocator@H@std@@@std@@@2@V?$allocator@U?$pair@$$CBV?$vector@HV?$allocator@H@std@@@std@@UNodeFormat@Helper@text@@@std@@@2@$0A@@std@@@2@ABV?$vector@HV?$allocator@H@std@@@2@@Z 00442a50 f i torq.obj
 0001:00041b10       ??0?$_Tree_val@V?$_Tmap_traits@V?$vector@HV?$allocator@H@std@@@std@@UNodeFormat@Helper@text@@U?$less@V?$vector@HV?$allocator@H@std@@@std@@@2@V?$allocator@U?$pair@$$CBV?$vector@HV?$allocator@H@std@@@std@@UNodeFormat@Helper@text@@@std@@@2@$0A@@std@@@std@@IAE@ABU?$less@V?$vector@HV?$allocator@H@std@@@std@@@1@V?$allocator@U?$pair@$$CBV?$vector@HV?$allocator@H@std@@@std@@UNodeFormat@Helper@text@@@std@@@1@@Z 00442b10 f i torq.obj
 0001:00041b80       ?_Kfn@?$_Tmap_traits@V?$vector@HV?$allocator@H@std@@@std@@UNodeFormat@Helper@text@@U?$less@V?$vector@HV?$allocator@H@std@@@std@@@2@V?$allocator@U?$pair@$$CBV?$vector@HV?$allocator@H@std@@@std@@UNodeFormat@Helper@text@@@std@@@2@$0A@@std@@SAABV?$vector@HV?$allocator@H@std@@@2@ABU?$pair@$$CBV?$vector@HV?$allocator@H@std@@@std@@UNodeFormat@Helper@text@@@2@@Z 00442b80 f i torq.obj
 0001:00041bb0       ??0?$allocator@U?$pair@$$CBV?$vector@HV?$allocator@H@std@@@std@@UNodeFormat@Helper@text@@@std@@@std@@QAE@ABV01@@Z 00442bb0 f i torq.obj
 0001:00041be0       ?deallocate@?$allocator@U_Node@?$_Tree_nod@V?$_Tmap_traits@V?$vector@HV?$allocator@H@std@@@std@@UNodeFormat@Helper@text@@U?$less@V?$vector@HV?$allocator@H@std@@@std@@@2@V?$allocator@U?$pair@$$CBV?$vector@HV?$allocator@H@std@@@std@@UNodeFormat@Helper@text@@@std@@@2@$0A@@std@@@std@@@std@@QAEXPAU_Node@?$_Tree_nod@V?$_Tmap_traits@V?$vector@HV?$allocator@H@std@@@std@@UNodeFormat@Helper@text@@U?$less@V?$vector@HV?$allocator@H@std@@@std@@@2@V?$allocator@U?$pair@$$CBV?$vector@HV?$allocator@H@std@@@std@@UNodeFormat@Helper@text@@@std@@@2@$0A@@std@@@2@I@Z 00442be0 f i torq.obj
 0001:00041c30       ?destroy@?$allocator@U_Node@?$_Tree_nod@V?$_Tmap_traits@V?$vector@HV?$allocator@H@std@@@std@@UNodeFormat@Helper@text@@U?$less@V?$vector@HV?$allocator@H@std@@@std@@@2@V?$allocator@U?$pair@$$CBV?$vector@HV?$allocator@H@std@@@std@@UNodeFormat@Helper@text@@@std@@@2@$0A@@std@@@std@@@std@@QAEXPAU_Node@?$_Tree_nod@V?$_Tmap_traits@V?$vector@HV?$allocator@H@std@@@std@@UNodeFormat@Helper@text@@U?$less@V?$vector@HV?$allocator@H@std@@@std@@@2@V?$allocator@U?$pair@$$CBV?$vector@HV?$allocator@H@std@@@std@@UNodeFormat@Helper@text@@@std@@@2@$0A@@std@@@2@@Z 00442c30 f i torq.obj
 0001:00041c80       ?destroy@?$allocator@PAU_Node@?$_Tree_nod@V?$_Tmap_traits@V?$vector@HV?$allocator@H@std@@@std@@UNodeFormat@Helper@text@@U?$less@V?$vector@HV?$allocator@H@std@@@std@@@2@V?$allocator@U?$pair@$$CBV?$vector@HV?$allocator@H@std@@@std@@UNodeFormat@Helper@text@@@std@@@2@$0A@@std@@@std@@@std@@QAEXPAPAU_Node@?$_Tree_nod@V?$_Tmap_traits@V?$vector@HV?$allocator@H@std@@@std@@UNodeFormat@Helper@text@@U?$less@V?$vector@HV?$allocator@H@std@@@std@@@2@V?$allocator@U?$pair@$$CBV?$vector@HV?$allocator@H@std@@@std@@UNodeFormat@Helper@text@@@std@@@2@$0A@@std@@@2@@Z 00442c80 f i torq.obj
 0001:00041cd0       ?_Inc@const_iterator@?$_Tree@V?$_Tmap_traits@V?$vector@HV?$allocator@H@std@@@std@@UNodeFormat@Helper@text@@U?$less@V?$vector@HV?$allocator@H@std@@@std@@@2@V?$allocator@U?$pair@$$CBV?$vector@HV?$allocator@H@std@@@std@@UNodeFormat@Helper@text@@@std@@@2@$0A@@std@@@std@@QAEXXZ 00442cd0 f i torq.obj
 0001:00041db0       ?_Isnil@?$_Tree@V?$_Tmap_traits@JV?$vector@HV?$allocator@H@std@@@std@@U?$less@J@2@V?$allocator@U?$pair@$$CBJV?$vector@HV?$allocator@H@std@@@std@@@std@@@2@$0A@@std@@@std@@KAAADPAU_Node@?$_Tree_nod@V?$_Tmap_traits@JV?$vector@HV?$allocator@H@std@@@std@@U?$less@J@2@V?$allocator@U?$pair@$$CBJV?$vector@HV?$allocator@H@std@@@std@@@std@@@2@$0A@@std@@@2@@Z 00442db0 f i torq.obj
 0001:00041de0       ?_Left@?$_Tree@V?$_Tmap_traits@JV?$vector@HV?$allocator@H@std@@@std@@U?$less@J@2@V?$allocator@U?$pair@$$CBJV?$vector@HV?$allocator@H@std@@@std@@@std@@@2@$0A@@std@@@std@@KAAAPAU_Node@?$_Tree_nod@V?$_Tmap_traits@JV?$vector@HV?$allocator@H@std@@@std@@U?$less@J@2@V?$allocator@U?$pair@$$CBJV?$vector@HV?$allocator@H@std@@@std@@@std@@@2@$0A@@std@@@2@PAU342@@Z 00442de0 f i torq.obj
 0001:00041e10       ?_Parent@?$_Tree@V?$_Tmap_traits@JV?$vector@HV?$allocator@H@std@@@std@@U?$less@J@2@V?$allocator@U?$pair@$$CBJV?$vector@HV?$allocator@H@std@@@std@@@std@@@2@$0A@@std@@@std@@KAAAPAU_Node@?$_Tree_nod@V?$_Tmap_traits@JV?$vector@HV?$allocator@H@std@@@std@@U?$less@J@2@V?$allocator@U?$pair@$$CBJV?$vector@HV?$allocator@H@std@@@std@@@std@@@2@$0A@@std@@@2@PAU342@@Z 00442e10 f i torq.obj
 0001:00041e40       ?_Right@?$_Tree@V?$_Tmap_traits@JV?$vector@HV?$allocator@H@std@@@std@@U?$less@J@2@V?$allocator@U?$pair@$$CBJV?$vector@HV?$allocator@H@std@@@std@@@std@@@2@$0A@@std@@@std@@KAAAPAU_Node@?$_Tree_nod@V?$_Tmap_traits@JV?$vector@HV?$allocator@H@std@@@std@@U?$less@J@2@V?$allocator@U?$pair@$$CBJV?$vector@HV?$allocator@H@std@@@std@@@std@@@2@$0A@@std@@@2@PAU342@@Z 00442e40 f i torq.obj
 0001:00041e70       ?_Myval@?$_Tree@V?$_Tmap_traits@JV?$vector@HV?$allocator@H@std@@@std@@U?$less@J@2@V?$allocator@U?$pair@$$CBJV?$vector@HV?$allocator@H@std@@@std@@@std@@@2@$0A@@std@@@std@@KAAAU?$pair@$$CBJV?$vector@HV?$allocator@H@std@@@std@@@2@PAU_Node@?$_Tree_nod@V?$_Tmap_traits@JV?$vector@HV?$allocator@H@std@@@std@@U?$less@J@2@V?$allocator@U?$pair@$$CBJV?$vector@HV?$allocator@H@std@@@std@@@std@@@2@$0A@@std@@@2@@Z 00442e70 f i torq.obj
 0001:00041ea0       ?size@?$_Tree@V?$_Tmap_traits@JV?$vector@HV?$allocator@H@std@@@std@@U?$less@J@2@V?$allocator@U?$pair@$$CBJV?$vector@HV?$allocator@H@std@@@std@@@std@@@2@$0A@@std@@@std@@QBEIXZ 00442ea0 f i torq.obj
 0001:00041ed0       ?key_comp@?$_Tree@V?$_Tmap_traits@JV?$vector@HV?$allocator@H@std@@@std@@U?$less@J@2@V?$allocator@U?$pair@$$CBJV?$vector@HV?$allocator@H@std@@@std@@@std@@@2@$0A@@std@@@std@@QBE?AU?$less@J@2@XZ 00442ed0 f i torq.obj
 0001:00041f00       ?insert@?$_Tree@V?$_Tmap_traits@JV?$vector@HV?$allocator@H@std@@@std@@U?$less@J@2@V?$allocator@U?$pair@$$CBJV?$vector@HV?$allocator@H@std@@@std@@@std@@@2@$0A@@std@@@std@@QAE?AU?$pair@Viterator@?$_Tree@V?$_Tmap_traits@JV?$vector@HV?$allocator@H@std@@@std@@U?$less@J@2@V?$allocator@U?$pair@$$CBJV?$vector@HV?$allocator@H@std@@@std@@@std@@@2@$0A@@std@@@std@@_N@2@ABU?$pair@$$CBJV?$vector@HV?$allocator@H@std@@@std@@@2@@Z 00442f00 f i torq.obj
 0001:00042130       ?erase@?$_Tree@V?$_Tmap_traits@JV?$vector@HV?$allocator@H@std@@@std@@U?$less@J@2@V?$allocator@U?$pair@$$CBJV?$vector@HV?$allocator@H@std@@@std@@@std@@@2@$0A@@std@@@std@@QAE?AViterator@12@V312@0@Z 00443130 f i torq.obj
 0001:00042210       ?_Copy@?$_Tree@V?$_Tmap_traits@JV?$vector@HV?$allocator@H@std@@@std@@U?$less@J@2@V?$allocator@U?$pair@$$CBJV?$vector@HV?$allocator@H@std@@@std@@@std@@@2@$0A@@std@@@std@@IAEXABV12@@Z 00443210 f i torq.obj
 0001:00042300       ?_Init@?$_Tree@V?$_Tmap_traits@JV?$vector@HV?$allocator@H@std@@@std@@U?$less@J@2@V?$allocator@U?$pair@$$CBJV?$vector@HV?$allocator@H@std@@@std@@@std@@@2@$0A@@std@@@std@@IAEXXZ 00443300 f i torq.obj
 0001:000423a0       ?_Insert@?$_Tree@V?$_Tmap_traits@JV?$vector@HV?$allocator@H@std@@@std@@U?$less@J@2@V?$allocator@U?$pair@$$CBJV?$vector@HV?$allocator@H@std@@@std@@@std@@@2@$0A@@std@@@std@@IAE?AViterator@12@_NPAU_Node@?$_Tree_nod@V?$_Tmap_traits@JV?$vector@HV?$allocator@H@std@@@std@@U?$less@J@2@V?$allocator@U?$pair@$$CBJV?$vector@HV?$allocator@H@std@@@std@@@std@@@2@$0A@@std@@@2@ABU?$pair@$$CBJV?$vector@HV?$allocator@H@std@@@std@@@2@@Z 004433a0 f i torq.obj
 0001:00042830       ?_Lbound@?$_Tree@V?$_Tmap_traits@JV?$vector@HV?$allocator@H@std@@@std@@U?$less@J@2@V?$allocator@U?$pair@$$CBJV?$vector@HV?$allocator@H@std@@@std@@@std@@@2@$0A@@std@@@std@@IBEPAU_Node@?$_Tree_nod@V?$_Tmap_traits@JV?$vector@HV?$allocator@H@std@@@std@@U?$less@J@2@V?$allocator@U?$pair@$$CBJV?$vector@HV?$allocator@H@std@@@std@@@std@@@2@$0A@@std@@@2@ABJ@Z 00443830 f i torq.obj
 0001:000428f0       ?_Min@?$_Tree@V?$_Tmap_traits@JV?$vector@HV?$allocator@H@std@@@std@@U?$less@J@2@V?$allocator@U?$pair@$$CBJV?$vector@HV?$allocator@H@std@@@std@@@std@@@2@$0A@@std@@@std@@KAPAU_Node@?$_Tree_nod@V?$_Tmap_traits@JV?$vector@HV?$allocator@H@std@@@std@@U?$less@J@2@V?$allocator@U?$pair@$$CBJV?$vector@HV?$allocator@H@std@@@std@@@std@@@2@$0A@@std@@@2@PAU342@@Z 004438f0 f i torq.obj
 0001:00042960       ?_Rmost@?$_Tree@V?$_Tmap_traits@JV?$vector@HV?$allocator@H@std@@@std@@U?$less@J@2@V?$allocator@U?$pair@$$CBJV?$vector@HV?$allocator@H@std@@@std@@@std@@@2@$0A@@std@@@std@@IAEAAPAU_Node@?$_Tree_nod@V?$_Tmap_traits@JV?$vector@HV?$allocator@H@std@@@std@@U?$less@J@2@V?$allocator@U?$pair@$$CBJV?$vector@HV?$allocator@H@std@@@std@@@std@@@2@$0A@@std@@@2@XZ 00443960 f i torq.obj
 0001:000429b0       ??0?$_Tree_val@V?$_Tmap_traits@JV?$vector@HV?$allocator@H@std@@@std@@U?$less@J@2@V?$allocator@U?$pair@$$CBJV?$vector@HV?$allocator@H@std@@@std@@@std@@@2@$0A@@std@@@std@@IAE@ABU?$less@J@1@V?$allocator@U?$pair@$$CBJV?$vector@HV?$allocator@H@std@@@std@@@std@@@1@@Z 004439b0 f i torq.obj
 0001:00042a20       ?_Kfn@?$_Tmap_traits@JV?$vector@HV?$allocator@H@std@@@std@@U?$less@J@2@V?$allocator@U?$pair@$$CBJV?$vector@HV?$allocator@H@std@@@std@@@std@@@2@$0A@@std@@SAABJABU?$pair@$$CBJV?$vector@HV?$allocator@H@std@@@std@@@2@@Z 00443a20 f i torq.obj
 0001:00042a50       ??0?$allocator@U?$pair@$$CBJV?$vector@HV?$allocator@H@std@@@std@@@std@@@std@@QAE@ABV01@@Z 00443a50 f i torq.obj
 0001:00042a80       ?deallocate@?$allocator@U_Node@?$_Tree_nod@V?$_Tmap_traits@JV?$vector@HV?$allocator@H@std@@@std@@U?$less@J@2@V?$allocator@U?$pair@$$CBJV?$vector@HV?$allocator@H@std@@@std@@@std@@@2@$0A@@std@@@std@@@std@@QAEXPAU_Node@?$_Tree_nod@V?$_Tmap_traits@JV?$vector@HV?$allocator@H@std@@@std@@U?$less@J@2@V?$allocator@U?$pair@$$CBJV?$vector@HV?$allocator@H@std@@@std@@@std@@@2@$0A@@std@@@2@I@Z 00443a80 f i torq.obj
 0001:00042ad0       ?destroy@?$allocator@PAU_Node@?$_Tree_nod@V?$_Tmap_traits@JV?$vector@HV?$allocator@H@std@@@std@@U?$less@J@2@V?$allocator@U?$pair@$$CBJV?$vector@HV?$allocator@H@std@@@std@@@std@@@2@$0A@@std@@@std@@@std@@QAEXPAPAU_Node@?$_Tree_nod@V?$_Tmap_traits@JV?$vector@HV?$allocator@H@std@@@std@@U?$less@J@2@V?$allocator@U?$pair@$$CBJV?$vector@HV?$allocator@H@std@@@std@@@std@@@2@$0A@@std@@@2@@Z 00443ad0 f i torq.obj
 0001:00042b20       ??0const_iterator@?$_Tree@V?$_Tmap_traits@JV?$vector@HV?$allocator@H@std@@@std@@U?$less@J@2@V?$allocator@U?$pair@$$CBJV?$vector@HV?$allocator@H@std@@@std@@@std@@@2@$0A@@std@@@std@@QAE@PAU_Node@?$_Tree_nod@V?$_Tmap_traits@JV?$vector@HV?$allocator@H@std@@@std@@U?$less@J@2@V?$allocator@U?$pair@$$CBJV?$vector@HV?$allocator@H@std@@@std@@@std@@@2@$0A@@std@@@2@@Z 00443b20 f i torq.obj
 0001:00042b60       ??0iterator@?$_Tree@V?$_Tmap_traits@JV?$vector@HV?$allocator@H@std@@@std@@U?$less@J@2@V?$allocator@U?$pair@$$CBJV?$vector@HV?$allocator@H@std@@@std@@@std@@@2@$0A@@std@@@std@@QAE@XZ 00443b60 f i torq.obj
 0001:00042bb0       ??Eiterator@?$_Tree@V?$_Tmap_traits@JV?$vector@HV?$allocator@H@std@@@std@@U?$less@J@2@V?$allocator@U?$pair@$$CBJV?$vector@HV?$allocator@H@std@@@std@@@std@@@2@$0A@@std@@@std@@QAEAAV012@XZ 00443bb0 f i torq.obj
 0001:00042c00       ??Fiterator@?$_Tree@V?$_Tmap_traits@JV?$vector@HV?$allocator@H@std@@@std@@U?$less@J@2@V?$allocator@U?$pair@$$CBJV?$vector@HV?$allocator@H@std@@@std@@@std@@@2@$0A@@std@@@std@@QAEAAV012@XZ 00443c00 f i torq.obj
 0001:00042c50       ??Yiterator@?$vector@V?$basic_string@DU?$char_traits@D@std@@V?$allocator@D@2@@std@@V?$allocator@V?$basic_string@DU?$char_traits@D@std@@V?$allocator@D@2@@std@@@2@@std@@QAEAAV012@H@Z 00443c50 f i torq.obj
 0001:00042c90       ??Giterator@?$vector@V?$basic_string@DU?$char_traits@D@std@@V?$allocator@D@2@@std@@V?$allocator@V?$basic_string@DU?$char_traits@D@std@@V?$allocator@D@2@@std@@@2@@std@@QBEHABVconst_iterator@12@@Z 00443c90 f i torq.obj
 0001:00042cf0       ??0const_iterator@?$vector@V?$basic_string@DU?$char_traits@D@std@@V?$allocator@D@2@@std@@V?$allocator@V?$basic_string@DU?$char_traits@D@std@@V?$allocator@D@2@@std@@@2@@std@@QAE@PAV?$basic_string@DU?$char_traits@D@std@@V?$allocator@D@2@@2@@Z 00443cf0 f i torq.obj
 0001:00042d30       ??Yconst_iterator@?$vector@V?$basic_string@DU?$char_traits@D@std@@V?$allocator@D@2@@std@@V?$allocator@V?$basic_string@DU?$char_traits@D@std@@V?$allocator@D@2@@std@@@2@@std@@QAEAAV012@H@Z 00443d30 f i torq.obj
 0001:00042d70       ??0iterator@?$_Tree@V?$_Tmap_traits@V?$vector@HV?$allocator@H@std@@@std@@UNodeFormat@Helper@text@@U?$less@V?$vector@HV?$allocator@H@std@@@std@@@2@V?$allocator@U?$pair@$$CBV?$vector@HV?$allocator@H@std@@@std@@UNodeFormat@Helper@text@@@std@@@2@$0A@@std@@@std@@QAE@XZ 00443d70 f i torq.obj
 0001:00042dc0       ??Fiterator@?$_Tree@V?$_Tmap_traits@V?$vector@HV?$allocator@H@std@@@std@@UNodeFormat@Helper@text@@U?$less@V?$vector@HV?$allocator@H@std@@@std@@@2@V?$allocator@U?$pair@$$CBV?$vector@HV?$allocator@H@std@@@std@@UNodeFormat@Helper@text@@@std@@@2@$0A@@std@@@std@@QAEAAV012@XZ 00443dc0 f i torq.obj
 0001:00042e10       ??0iterator@?$basic_string@DU?$char_traits@D@std@@V?$allocator@D@2@@std@@QAE@PAD@Z 00443e10 f i torq.obj
 0001:00042e60       ??0_Sentry_base@?$basic_ostream@DU?$char_traits@D@std@@@std@@QAE@AAV12@@Z 00443e60 f i torq.obj
 0001:00042ee0       ??1_Sentry_base@?$basic_ostream@DU?$char_traits@D@std@@@std@@QAE@XZ 00443ee0 f i torq.obj
 0001:00042f50       ??0iterator@?$vector@PBDV?$allocator@PBD@std@@@std@@QAE@PAPBD@Z 00443f50 f i torq.obj
 0001:00042fa0       ??Yiterator@?$vector@PBDV?$allocator@PBD@std@@@std@@QAEAAV012@H@Z 00443fa0 f i torq.obj
 0001:00042fe0       ??Dconst_iterator@?$vector@PBDV?$allocator@PBD@std@@@std@@QBEABQBDXZ 00443fe0 f i torq.obj
 0001:00043010       ??0iterator@?$vector@DV?$allocator@D@std@@@std@@QAE@PAD@Z 00444010 f i torq.obj
 0001:00043060       ??Yiterator@?$vector@DV?$allocator@D@std@@@std@@QAEAAV012@H@Z 00444060 f i torq.obj
 0001:000430a0       ??Dconst_iterator@?$vector@DV?$allocator@D@std@@@std@@QBEABDXZ 004440a0 f i torq.obj
 0001:000430d0       ??0const_iterator@?$vector@UTOKEN@@V?$allocator@UTOKEN@@@std@@@std@@QAE@PAUTOKEN@@@Z 004440d0 f i torq.obj
 0001:00043110       ??Yconst_iterator@?$vector@UTOKEN@@V?$allocator@UTOKEN@@@std@@@std@@QAEAAV012@H@Z 00444110 f i torq.obj
 0001:00043150       ??0iterator@?$vector@UTOKEN@@V?$allocator@UTOKEN@@@std@@@std@@QAE@PAUTOKEN@@@Z 00444150 f i torq.obj
 0001:000431a0       ??Yiterator@?$vector@UTOKEN@@V?$allocator@UTOKEN@@@std@@@std@@QAEAAV012@H@Z 004441a0 f i torq.obj
 0001:000431e0       ??Giterator@?$vector@UTOKEN@@V?$allocator@UTOKEN@@@std@@@std@@QBEHABVconst_iterator@12@@Z 004441e0 f i torq.obj
 0001:00043240       ??0const_iterator@?$vector@UTRACE_ITEM@@V?$allocator@UTRACE_ITEM@@@std@@@std@@QAE@PAUTRACE_ITEM@@@Z 00444240 f i torq.obj
 0001:00043280       ??Yconst_iterator@?$vector@UTRACE_ITEM@@V?$allocator@UTRACE_ITEM@@@std@@@std@@QAEAAV012@H@Z 00444280 f i torq.obj
 0001:000432c0       ??0iterator@?$vector@UTRACE_ITEM@@V?$allocator@UTRACE_ITEM@@@std@@@std@@QAE@PAUTRACE_ITEM@@@Z 004442c0 f i torq.obj
 0001:00043310       ??Yiterator@?$vector@UTRACE_ITEM@@V?$allocator@UTRACE_ITEM@@@std@@@std@@QAEAAV012@H@Z 00444310 f i torq.obj
 0001:00043350       ??Ziterator@?$vector@UTRACE_ITEM@@V?$allocator@UTRACE_ITEM@@@std@@@std@@QAEAAV012@H@Z 00444350 f i torq.obj
 0001:000433a0       ??Giterator@?$vector@UTRACE_ITEM@@V?$allocator@UTRACE_ITEM@@@std@@@std@@QBEHABVconst_iterator@12@@Z 004443a0 f i torq.obj
 0001:00043400       ??0const_iterator@?$vector@JV?$allocator@J@std@@@std@@QAE@PAJ@Z 00444400 f i torq.obj
 0001:00043440       ??Yconst_iterator@?$vector@JV?$allocator@J@std@@@std@@QAEAAV012@H@Z 00444440 f i torq.obj
 0001:00043480       ??0iterator@?$vector@JV?$allocator@J@std@@@std@@QAE@PAJ@Z 00444480 f i torq.obj
 0001:000434d0       ??Yiterator@?$vector@JV?$allocator@J@std@@@std@@QAEAAV012@H@Z 004444d0 f i torq.obj
 0001:00043510       ??Ziterator@?$vector@JV?$allocator@J@std@@@std@@QAEAAV012@H@Z 00444510 f i torq.obj
 0001:00043560       ??Giterator@?$vector@JV?$allocator@J@std@@@std@@QBEHABVconst_iterator@12@@Z 00444560 f i torq.obj
 0001:000435c0       ??Giterator@?$vector@PAUToken@text@@V?$allocator@PAUToken@text@@@std@@@std@@QBEHABVconst_iterator@12@@Z 004445c0 f i torq.obj
 0001:00043620       ??Zconst_iterator@?$vector@PAUToken@text@@V?$allocator@PAUToken@text@@@std@@@std@@QAEAAV012@H@Z 00444620 f i torq.obj
 0001:00043670       ??Yconst_iterator@?$vector@U?$pair@V?$vector@HV?$allocator@H@std@@@std@@UGeneratedToken@text@@@std@@V?$allocator@U?$pair@V?$vector@HV?$allocator@H@std@@@std@@UGeneratedToken@text@@@std@@@2@@std@@QAEAAV012@H@Z 00444670 f i torq.obj
 0001:000436b0       ??0iterator@?$list@U?$pair@$$CBJUNodeFormat@Helper@text@@@std@@V?$allocator@U?$pair@$$CBJUNodeFormat@Helper@text@@@std@@@2@@std@@QAE@XZ 004446b0 f i torq.obj
 0001:00043700       ??Eiterator@?$list@U?$pair@$$CBJUNodeFormat@Helper@text@@@std@@V?$allocator@U?$pair@$$CBJUNodeFormat@Helper@text@@@std@@@2@@std@@QAEAAV012@XZ 00444700 f i torq.obj
 0001:00043750       ??Fiterator@?$list@U?$pair@$$CBJUNodeFormat@Helper@text@@@std@@V?$allocator@U?$pair@$$CBJUNodeFormat@Helper@text@@@std@@@2@@std@@QAEAAV012@XZ 00444750 f i torq.obj
 0001:000437a0       ??0?$pair@Viterator@?$list@U?$pair@$$CBJUNodeFormat@Helper@text@@@std@@V?$allocator@U?$pair@$$CBJUNodeFormat@Helper@text@@@std@@@2@@std@@_N@std@@QAE@ABViterator@?$list@U?$pair@$$CBJUNodeFormat@Helper@text@@@std@@V?$allocator@U?$pair@$$CBJUNodeFormat@Helper@text@@@std@@@2@@1@AB_N@Z 004447a0 f i torq.obj
 0001:000437f0       ??0const_iterator@?$vector@U?$pair@_NUNodeFormatI@Helper@text@@@std@@V?$allocator@U?$pair@_NUNodeFormatI@Helper@text@@@std@@@2@@std@@QAE@PAU?$pair@_NUNodeFormatI@Helper@text@@@2@@Z 004447f0 f i torq.obj
 0001:00043830       ??Yconst_iterator@?$vector@U?$pair@_NUNodeFormatI@Helper@text@@@std@@V?$allocator@U?$pair@_NUNodeFormatI@Helper@text@@@std@@@2@@std@@QAEAAV012@H@Z 00444830 f i torq.obj
 0001:00043870       ??0iterator@?$vector@U?$pair@_NUNodeFormatI@Helper@text@@@std@@V?$allocator@U?$pair@_NUNodeFormatI@Helper@text@@@std@@@2@@std@@QAE@PAU?$pair@_NUNodeFormatI@Helper@text@@@2@@Z 00444870 f i torq.obj
 0001:000438c0       ??Yiterator@?$vector@U?$pair@_NUNodeFormatI@Helper@text@@@std@@V?$allocator@U?$pair@_NUNodeFormatI@Helper@text@@@std@@@2@@std@@QAEAAV012@H@Z 004448c0 f i torq.obj
 0001:00043900       ??0const_iterator@?$vector@V?$vector@HV?$allocator@H@std@@@std@@V?$allocator@V?$vector@HV?$allocator@H@std@@@std@@@2@@std@@QAE@PAV?$vector@HV?$allocator@H@std@@@2@@Z 00444900 f i torq.obj
 0001:00043940       ??Yconst_iterator@?$vector@V?$vector@HV?$allocator@H@std@@@std@@V?$allocator@V?$vector@HV?$allocator@H@std@@@std@@@2@@std@@QAEAAV012@H@Z 00444940 f i torq.obj
 0001:00043980       ??0iterator@?$vector@V?$vector@HV?$allocator@H@std@@@std@@V?$allocator@V?$vector@HV?$allocator@H@std@@@std@@@2@@std@@QAE@PAV?$vector@HV?$allocator@H@std@@@2@@Z 00444980 f i torq.obj
 0001:000439d0       ??Yiterator@?$vector@V?$vector@HV?$allocator@H@std@@@std@@V?$allocator@V?$vector@HV?$allocator@H@std@@@std@@@2@@std@@QAEAAV012@H@Z 004449d0 f i torq.obj
 0001:00043a10       ??Giterator@?$vector@V?$vector@HV?$allocator@H@std@@@std@@V?$allocator@V?$vector@HV?$allocator@H@std@@@std@@@2@@std@@QBEHABVconst_iterator@12@@Z 00444a10 f i torq.obj
 0001:00043a70       ??0iterator@?$vector@UMATCH@Interpreter@@V?$allocator@UMATCH@Interpreter@@@std@@@std@@QAE@PAUMATCH@Interpreter@@@Z 00444a70 f i torq.obj
 0001:00043ac0       ??Yiterator@?$vector@UMATCH@Interpreter@@V?$allocator@UMATCH@Interpreter@@@std@@@std@@QAEAAV012@H@Z 00444ac0 f i torq.obj
 0001:00043b00       ??Ziterator@?$vector@UMATCH@Interpreter@@V?$allocator@UMATCH@Interpreter@@@std@@@std@@QAEAAV012@H@Z 00444b00 f i torq.obj
 0001:00043b50       ??Giterator@?$vector@UMATCH@Interpreter@@V?$allocator@UMATCH@Interpreter@@@std@@@std@@QBEHABVconst_iterator@12@@Z 00444b50 f i torq.obj
 0001:00043bb0       ??0const_iterator@?$vector@UTSL@Interpreter@@V?$allocator@UTSL@Interpreter@@@std@@@std@@QAE@PAUTSL@Interpreter@@@Z 00444bb0 f i torq.obj
 0001:00043bf0       ??Yconst_iterator@?$vector@UTSL@Interpreter@@V?$allocator@UTSL@Interpreter@@@std@@@std@@QAEAAV012@H@Z 00444bf0 f i torq.obj
 0001:00043c30       ??0iterator@?$vector@UTSL@Interpreter@@V?$allocator@UTSL@Interpreter@@@std@@@std@@QAE@PAUTSL@Interpreter@@@Z 00444c30 f i torq.obj
 0001:00043c80       ??Yiterator@?$vector@UTSL@Interpreter@@V?$allocator@UTSL@Interpreter@@@std@@@std@@QAEAAV012@H@Z 00444c80 f i torq.obj
 0001:00043cc0       ?unshift@?$codecvt@DDH@std@@QBEHAAHPAD1AAPAD@Z 00444cc0 f i torq.obj
 0001:00043d20       ??Dconst_iterator@?$basic_string@DU?$char_traits@D@std@@V?$_DebugHeapAllocator@D@2@@std@@QBEABDXZ 00444d20 f i torq.obj
 0001:00043d50       ??0iterator@?$basic_string@DU?$char_traits@D@std@@V?$_DebugHeapAllocator@D@2@@std@@QAE@PAD@Z 00444d50 f i torq.obj
 0001:00043da0       ??0?$basic_win32handle_streambuf@DU?$char_traits@D@std@@@win32@@QAE@PAX@Z 00444da0 f i torq.obj
 0001:00043e40       ??0?$pair@_NUNodeFormatI@Helper@text@@@std@@QAE@ABU01@@Z 00444e40 f i torq.obj
 0001:00043ea0       ??0NodeFormatI@Helper@text@@QAE@ABU012@@Z 00444ea0 f i torq.obj
 0001:00043f40       ??_G?$basic_win32handle_streambuf@DU?$char_traits@D@std@@@win32@@UAEPAXI@Z 00444f40 f i torq.obj
 0001:00043f40       ??_E?$basic_win32handle_streambuf@DU?$char_traits@D@std@@@win32@@UAEPAXI@Z 00444f40 f i torq.obj
 0001:00043fa0       ?max_size@?$basic_string@DU?$char_traits@D@std@@V?$_DebugHeapAllocator@D@2@@std@@QBEIXZ 00444fa0 f i torq.obj
 0001:00044010       ?_Copy@?$basic_string@DU?$char_traits@D@std@@V?$_DebugHeapAllocator@D@2@@std@@IAEXII@Z 00445010 f i torq.obj
 0001:000441a0       ?widen@?$basic_ios@DU?$char_traits@D@std@@@std@@QBEDD@Z 004451a0 f i torq.obj
 0001:00044250       ?widen@?$ctype@D@std@@QBEDD@Z 00445250 f i torq.obj
 0001:000442b0       ?setp@?$basic_streambuf@DU?$char_traits@D@std@@@std@@IAEXPAD0@Z 004452b0 f i torq.obj
 0001:00044300       ?_Init@?$basic_streambuf@DU?$char_traits@D@std@@@std@@IAEXPAPAD0PAH001@Z 00445300 f i torq.obj
 0001:00044370       ?destroy_impl@?$optional_base@Vlocale@std@@@optional_detail@boost@@AAEXU?$bool_@$0A@@mpl@3@@Z 00445370 f i torq.obj
 0001:000443c0       ?_Destroy@?$vector@IV?$allocator@I@std@@@std@@IAEXPAI0@Z 004453c0 f i torq.obj
 0001:00044410       ?deallocate@?$allocator@I@std@@QAEXPAII@Z 00445410 f i torq.obj
 0001:00044460       ?capacity@?$vector@PBDV?$allocator@PBD@std@@@std@@QBEIXZ 00445460 f i torq.obj
 0001:000444c0       ?_Ufill@?$vector@PBDV?$allocator@PBD@std@@@std@@IAEPAPBDPAPBDIABQBD@Z 004454c0 f i torq.obj
 0001:00044520       ?max_size@?$allocator@PBD@std@@QBEIXZ 00445520 f i torq.obj
 0001:00044580       ?capacity@?$vector@DV?$allocator@D@std@@@std@@QBEIXZ 00445580 f i torq.obj
 0001:000445e0       ??0const_iterator@?$basic_string@DU?$char_traits@D@std@@V?$allocator@D@2@@std@@QAE@PBD@Z 004455e0 f i torq.obj
 0001:00044620       ??R?$hash_compare@HU?$less@H@std@@@stdext@@QBEIABH@Z 00445620 f i torq.obj
 0001:00044670       ??R?$less@H@std@@QBE_NABH0@Z 00445670 f i torq.obj
 0001:000446b0       ?_Nextnode@?$list@U?$pair@$$CBHV?$basic_string@DU?$char_traits@D@std@@V?$allocator@D@2@@std@@@std@@V?$allocator@U?$pair@$$CBHV?$basic_string@DU?$char_traits@D@std@@V?$allocator@D@2@@std@@@std@@@2@@std@@KAAAPAU_Node@?$_List_nod@U?$pair@$$CBHV?$basic_string@DU?$char_traits@D@std@@V?$allocator@D@2@@std@@@std@@V?$allocator@U?$pair@$$CBHV?$basic_string@DU?$char_traits@D@std@@V?$allocator@D@2@@std@@@std@@@2@@2@PAU342@@Z 004456b0 f i torq.obj
 0001:000446e0       ?begin@?$vector@Viterator@?$list@U?$pair@$$CBHV?$basic_string@DU?$char_traits@D@std@@V?$allocator@D@2@@std@@@std@@V?$allocator@U?$pair@$$CBHV?$basic_string@DU?$char_traits@D@std@@V?$allocator@D@2@@std@@@std@@@2@@std@@V?$allocator@Viterator@?$list@U?$pair@$$CBHV?$basic_string@DU?$char_traits@D@std@@V?$allocator@D@2@@std@@@std@@V?$allocator@U?$pair@$$CBHV?$basic_string@DU?$char_traits@D@std@@V?$allocator@D@2@@std@@@std@@@2@@std@@@3@@std@@QBE?AVconst_iterator@12@XZ 004456e0 f i torq.obj
 0001:00044730       ?max_size@?$allocator@UTOKEN@@@std@@QBEIXZ 00445730 f i torq.obj
 0001:00044790       ?max_size@?$allocator@J@std@@QBEIXZ 00445790 f i torq.obj
 0001:000447f0       ??0?$allocator@U?$pair@$$CBJUNodeFormat@Helper@text@@@std@@@std@@QAE@ABV01@@Z 004457f0 f i torq.obj
 0001:00044820       ?_Prevnode@?$list@U?$pair@$$CBJUNodeFormat@Helper@text@@@std@@V?$allocator@U?$pair@$$CBJUNodeFormat@Helper@text@@@std@@@2@@std@@KAAAPAU_Node@?$_List_nod@U?$pair@$$CBJUNodeFormat@Helper@text@@@std@@V?$allocator@U?$pair@$$CBJUNodeFormat@Helper@text@@@std@@@2@@2@PAU342@@Z 00445820 f i torq.obj
 0001:00044850       ?size@?$list@U?$pair@$$CBJUNodeFormat@Helper@text@@@std@@V?$allocator@U?$pair@$$CBJUNodeFormat@Helper@text@@@std@@@2@@std@@QBEIXZ 00445850 f i torq.obj
 0001:00044880       ?_Insert@?$list@U?$pair@$$CBJUNodeFormat@Helper@text@@@std@@V?$allocator@U?$pair@$$CBJUNodeFormat@Helper@text@@@std@@@2@@std@@QAEXViterator@12@ABU?$pair@$$CBJUNodeFormat@Helper@text@@@2@@Z 00445880 f i torq.obj
 0001:00044920       ?erase@?$list@U?$pair@$$CBJUNodeFormat@Helper@text@@@std@@V?$allocator@U?$pair@$$CBJUNodeFormat@Helper@text@@@std@@@2@@std@@QAE?AViterator@12@V312@0@Z 00445920 f i torq.obj
 0001:000449e0       ?clear@?$list@U?$pair@$$CBJUNodeFormat@Helper@text@@@std@@V?$allocator@U?$pair@$$CBJUNodeFormat@Helper@text@@@std@@@2@@std@@QAEXXZ 004459e0 f i torq.obj
 0001:00044ab0       ?_Buynode@?$list@U?$pair@$$CBJUNodeFormat@Helper@text@@@std@@V?$allocator@U?$pair@$$CBJUNodeFormat@Helper@text@@@std@@@2@@std@@IAEPAU_Node@?$_List_nod@U?$pair@$$CBJUNodeFormat@Helper@text@@@std@@V?$allocator@U?$pair@$$CBJUNodeFormat@Helper@text@@@std@@@2@@2@XZ 00445ab0 f i torq.obj
 0001:00044bf0       ?_Incsize@?$list@U?$pair@$$CBJUNodeFormat@Helper@text@@@std@@V?$allocator@U?$pair@$$CBJUNodeFormat@Helper@text@@@std@@@2@@std@@IAEXI@Z 00445bf0 f i torq.obj
 0001:00044cb0       ??0?$_List_val@U?$pair@$$CBJUNodeFormat@Helper@text@@@std@@V?$allocator@U?$pair@$$CBJUNodeFormat@Helper@text@@@std@@@2@@std@@IAE@V?$allocator@U?$pair@$$CBJUNodeFormat@Helper@text@@@std@@@1@@Z 00445cb0 f i torq.obj
 0001:00044d10       ?deallocate@?$allocator@U_Node@?$_List_nod@U?$pair@$$CBJUNodeFormat@Helper@text@@@std@@V?$allocator@U?$pair@$$CBJUNodeFormat@Helper@text@@@std@@@2@@std@@@std@@QAEXPAU_Node@?$_List_nod@U?$pair@$$CBJUNodeFormat@Helper@text@@@std@@V?$allocator@U?$pair@$$CBJUNodeFormat@Helper@text@@@std@@@2@@2@I@Z 00445d10 f i torq.obj
 0001:00044d60       ?destroy@?$allocator@PAU_Node@?$_List_nod@U?$pair@$$CBJUNodeFormat@Helper@text@@@std@@V?$allocator@U?$pair@$$CBJUNodeFormat@Helper@text@@@std@@@2@@std@@@std@@QAEXPAPAU_Node@?$_List_nod@U?$pair@$$CBJUNodeFormat@Helper@text@@@std@@V?$allocator@U?$pair@$$CBJUNodeFormat@Helper@text@@@std@@@2@@2@@Z 00445d60 f i torq.obj
 0001:00044db0       ?_Construct_n@?$vector@Viterator@?$list@U?$pair@$$CBJUNodeFormat@Helper@text@@@std@@V?$allocator@U?$pair@$$CBJUNodeFormat@Helper@text@@@std@@@2@@std@@V?$allocator@Viterator@?$list@U?$pair@$$CBJUNodeFormat@Helper@text@@@std@@V?$allocator@U?$pair@$$CBJUNodeFormat@Helper@text@@@std@@@2@@std@@@3@@std@@QAEXIABViterator@?$list@U?$pair@$$CBJUNodeFormat@Helper@text@@@std@@V?$allocator@U?$pair@$$CBJUNodeFormat@Helper@text@@@std@@@2@@2@@Z 00445db0 f i torq.obj
 0001:00044e70       ?begin@?$vector@Viterator@?$list@U?$pair@$$CBJUNodeFormat@Helper@text@@@std@@V?$allocator@U?$pair@$$CBJUNodeFormat@Helper@text@@@std@@@2@@std@@V?$allocator@Viterator@?$list@U?$pair@$$CBJUNodeFormat@Helper@text@@@std@@V?$allocator@U?$pair@$$CBJUNodeFormat@Helper@text@@@std@@@2@@std@@@3@@std@@QAE?AViterator@12@XZ 00445e70 f i torq.obj
 0001:00044ec0       ?end@?$vector@Viterator@?$list@U?$pair@$$CBJUNodeFormat@Helper@text@@@std@@V?$allocator@U?$pair@$$CBJUNodeFormat@Helper@text@@@std@@@2@@std@@V?$allocator@Viterator@?$list@U?$pair@$$CBJUNodeFormat@Helper@text@@@std@@V?$allocator@U?$pair@$$CBJUNodeFormat@Helper@text@@@std@@@2@@std@@@3@@std@@QAE?AViterator@12@XZ 00445ec0 f i torq.obj
 0001:00044f10       ?erase@?$vector@Viterator@?$list@U?$pair@$$CBJUNodeFormat@Helper@text@@@std@@V?$allocator@U?$pair@$$CBJUNodeFormat@Helper@text@@@std@@@2@@std@@V?$allocator@Viterator@?$list@U?$pair@$$CBJUNodeFormat@Helper@text@@@std@@V?$allocator@U?$pair@$$CBJUNodeFormat@Helper@text@@@std@@@2@@std@@@3@@std@@QAE?AViterator@12@V312@0@Z 00445f10 f i torq.obj
 0001:00044fa0       ?_Destroy@?$vector@Viterator@?$list@U?$pair@$$CBJUNodeFormat@Helper@text@@@std@@V?$allocator@U?$pair@$$CBJUNodeFormat@Helper@text@@@std@@@2@@std@@V?$allocator@Viterator@?$list@U?$pair@$$CBJUNodeFormat@Helper@text@@@std@@V?$allocator@U?$pair@$$CBJUNodeFormat@Helper@text@@@std@@@2@@std@@@3@@std@@IAEXPAViterator@?$list@U?$pair@$$CBJUNodeFormat@Helper@text@@@std@@V?$allocator@U?$pair@$$CBJUNodeFormat@Helper@text@@@std@@@2@@2@0@Z 00445fa0 f i torq.obj
 0001:00044ff0       ?_Insert_n@?$vector@Viterator@?$list@U?$pair@$$CBJUNodeFormat@Helper@text@@@std@@V?$allocator@U?$pair@$$CBJUNodeFormat@Helper@text@@@std@@@2@@std@@V?$allocator@Viterator@?$list@U?$pair@$$CBJUNodeFormat@Helper@text@@@std@@V?$allocator@U?$pair@$$CBJUNodeFormat@Helper@text@@@std@@@2@@std@@@3@@std@@IAEXViterator@12@IABV3?$list@U?$pair@$$CBJUNodeFormat@Helper@text@@@std@@V?$allocator@U?$pair@$$CBJUNodeFormat@Helper@text@@@std@@@2@@2@@Z 00445ff0 f i torq.obj
 0001:00045370       ??0?$_Vector_val@Viterator@?$list@U?$pair@$$CBJUNodeFormat@Helper@text@@@std@@V?$allocator@U?$pair@$$CBJUNodeFormat@Helper@text@@@std@@@2@@std@@V?$allocator@Viterator@?$list@U?$pair@$$CBJUNodeFormat@Helper@text@@@std@@V?$allocator@U?$pair@$$CBJUNodeFormat@Helper@text@@@std@@@2@@std@@@3@@std@@IAE@V?$allocator@Viterator@?$list@U?$pair@$$CBJUNodeFormat@Helper@text@@@std@@V?$allocator@U?$pair@$$CBJUNodeFormat@Helper@text@@@std@@@2@@std@@@1@@Z 00446370 f i torq.obj
 0001:000453c0       ??0?$allocator@Viterator@?$list@U?$pair@$$CBJUNodeFormat@Helper@text@@@std@@V?$allocator@U?$pair@$$CBJUNodeFormat@Helper@text@@@std@@@2@@std@@@std@@QAE@ABV01@@Z 004463c0 f i torq.obj
 0001:000453f0       ?deallocate@?$allocator@Viterator@?$list@U?$pair@$$CBJUNodeFormat@Helper@text@@@std@@V?$allocator@U?$pair@$$CBJUNodeFormat@Helper@text@@@std@@@2@@std@@@std@@QAEXPAViterator@?$list@U?$pair@$$CBJUNodeFormat@Helper@text@@@std@@V?$allocator@U?$pair@$$CBJUNodeFormat@Helper@text@@@std@@@2@@2@I@Z 004463f0 f i torq.obj
 0001:00045440       ??0const_iterator@?$list@U?$pair@$$CBJUNodeFormat@Helper@text@@@std@@V?$allocator@U?$pair@$$CBJUNodeFormat@Helper@text@@@std@@@2@@std@@QAE@XZ 00446440 f i torq.obj
 0001:00045480       ??Fconst_iterator@?$list@U?$pair@$$CBJUNodeFormat@Helper@text@@@std@@V?$allocator@U?$pair@$$CBJUNodeFormat@Helper@text@@@std@@@2@@std@@QAEAAV012@XZ 00446480 f i torq.obj
 0001:000454d0       ?_Mynode@const_iterator@?$list@U?$pair@$$CBJUNodeFormat@Helper@text@@@std@@V?$allocator@U?$pair@$$CBJUNodeFormat@Helper@text@@@std@@@2@@std@@QBEPAU_Node@?$_List_nod@U?$pair@$$CBJUNodeFormat@Helper@text@@@std@@V?$allocator@U?$pair@$$CBJUNodeFormat@Helper@text@@@std@@@2@@3@XZ 004464d0 f i torq.obj
 0001:00045500       ?capacity@?$vector@U?$pair@_NUNodeFormatI@Helper@text@@@std@@V?$allocator@U?$pair@_NUNodeFormatI@Helper@text@@@std@@@2@@std@@QBEIXZ 00446500 f i torq.obj
 0001:00045560       ?_Ufill@?$vector@U?$pair@_NUNodeFormatI@Helper@text@@@std@@V?$allocator@U?$pair@_NUNodeFormatI@Helper@text@@@std@@@2@@std@@IAEPAU?$pair@_NUNodeFormatI@Helper@text@@@2@PAU32@IABU32@@Z 00446560 f i torq.obj
 0001:000455c0       ?max_size@?$allocator@U?$pair@_NUNodeFormatI@Helper@text@@@std@@@std@@QBEIXZ 004465c0 f i torq.obj
 0001:00045620       ?max_size@?$allocator@V?$vector@HV?$allocator@H@std@@@std@@@std@@QBEIXZ 00446620 f i torq.obj
 0001:00045680       ?max_size@?$allocator@E@std@@QBEIXZ 00446680 f i torq.obj
 0001:000456e0       ?_Color@?$_Tree@V?$_Tmap_traits@V?$vector@HV?$allocator@H@std@@@std@@VTokenSequence@text@@U?$less@V?$vector@HV?$allocator@H@std@@@std@@@2@V?$allocator@U?$pair@$$CBV?$vector@HV?$allocator@H@std@@@std@@VTokenSequence@text@@@std@@@2@$0A@@std@@@std@@KAAADPAU_Node@?$_Tree_nod@V?$_Tmap_traits@V?$vector@HV?$allocator@H@std@@@std@@VTokenSequence@text@@U?$less@V?$vector@HV?$allocator@H@std@@@std@@@2@V?$allocator@U?$pair@$$CBV?$vector@HV?$allocator@H@std@@@std@@VTokenSequence@text@@@std@@@2@$0A@@std@@@2@@Z 004466e0 f i torq.obj
 0001:00045710       ?max_size@?$_Tree@V?$_Tmap_traits@V?$vector@HV?$allocator@H@std@@@std@@VTokenSequence@text@@U?$less@V?$vector@HV?$allocator@H@std@@@std@@@2@V?$allocator@U?$pair@$$CBV?$vector@HV?$allocator@H@std@@@std@@VTokenSequence@text@@@std@@@2@$0A@@std@@@std@@QBEIXZ 00446710 f i torq.obj
 0001:00045760       ?erase@?$_Tree@V?$_Tmap_traits@V?$vector@HV?$allocator@H@std@@@std@@VTokenSequence@text@@U?$less@V?$vector@HV?$allocator@H@std@@@std@@@2@V?$allocator@U?$pair@$$CBV?$vector@HV?$allocator@H@std@@@std@@VTokenSequence@text@@@std@@@2@$0A@@std@@@std@@QAE?AViterator@12@V312@@Z 00446760 f i torq.obj
 0001:00045f60       ??0out_of_range@std@@QAE@ABV?$basic_string@DU?$char_traits@D@std@@V?$allocator@D@2@@1@@Z 00446f60 f i torq.obj
 0001:00045fc0       ??1out_of_range@std@@UAE@XZ 00446fc0 f i torq.obj
 0001:00046010       ??_Eout_of_range@std@@UAEPAXI@Z 00447010 f i torq.obj
 0001:00046010       ??_Gout_of_range@std@@UAEPAXI@Z 00447010 f i torq.obj
 0001:00046070       ?clear@?$_Tree@V?$_Tmap_traits@V?$vector@HV?$allocator@H@std@@@std@@VTokenSequence@text@@U?$less@V?$vector@HV?$allocator@H@std@@@std@@@2@V?$allocator@U?$pair@$$CBV?$vector@HV?$allocator@H@std@@@std@@VTokenSequence@text@@@std@@@2@$0A@@std@@@std@@QAEXXZ 00447070 f i torq.obj
 0001:00046100       ?_Lmost@?$_Tree@V?$_Tmap_traits@V?$vector@HV?$allocator@H@std@@@std@@VTokenSequence@text@@U?$less@V?$vector@HV?$allocator@H@std@@@std@@@2@V?$allocator@U?$pair@$$CBV?$vector@HV?$allocator@H@std@@@std@@VTokenSequence@text@@@std@@@2@$0A@@std@@@std@@IAEAAPAU_Node@?$_Tree_nod@V?$_Tmap_traits@V?$vector@HV?$allocator@H@std@@@std@@VTokenSequence@text@@U?$less@V?$vector@HV?$allocator@H@std@@@std@@@2@V?$allocator@U?$pair@$$CBV?$vector@HV?$allocator@H@std@@@std@@VTokenSequence@text@@@std@@@2@$0A@@std@@@2@XZ 00447100 f i torq.obj
 0001:00046150       ?_Lrotate@?$_Tree@V?$_Tmap_traits@V?$vector@HV?$allocator@H@std@@@std@@VTokenSequence@text@@U?$less@V?$vector@HV?$allocator@H@std@@@std@@@2@V?$allocator@U?$pair@$$CBV?$vector@HV?$allocator@H@std@@@std@@VTokenSequence@text@@@std@@@2@$0A@@std@@@std@@IAEXPAU_Node@?$_Tree_nod@V?$_Tmap_traits@V?$vector@HV?$allocator@H@std@@@std@@VTokenSequence@text@@U?$less@V?$vector@HV?$allocator@H@std@@@std@@@2@V?$allocator@U?$pair@$$CBV?$vector@HV?$allocator@H@std@@@std@@VTokenSequence@text@@@std@@@2@$0A@@std@@@2@@Z 00447150 f i torq.obj
 0001:000462b0       ?_Root@?$_Tree@V?$_Tmap_traits@V?$vector@HV?$allocator@H@std@@@std@@VTokenSequence@text@@U?$less@V?$vector@HV?$allocator@H@std@@@std@@@2@V?$allocator@U?$pair@$$CBV?$vector@HV?$allocator@H@std@@@std@@VTokenSequence@text@@@std@@@2@$0A@@std@@@std@@IAEAAPAU_Node@?$_Tree_nod@V?$_Tmap_traits@V?$vector@HV?$allocator@H@std@@@std@@VTokenSequence@text@@U?$less@V?$vector@HV?$allocator@H@std@@@std@@@2@V?$allocator@U?$pair@$$CBV?$vector@HV?$allocator@H@std@@@std@@VTokenSequence@text@@@std@@@2@$0A@@std@@@2@XZ 004472b0 f i torq.obj
 0001:00046300       ?_Root@?$_Tree@V?$_Tmap_traits@V?$vector@HV?$allocator@H@std@@@std@@VTokenSequence@text@@U?$less@V?$vector@HV?$allocator@H@std@@@std@@@2@V?$allocator@U?$pair@$$CBV?$vector@HV?$allocator@H@std@@@std@@VTokenSequence@text@@@std@@@2@$0A@@std@@@std@@IBEAAPAU_Node@?$_Tree_nod@V?$_Tmap_traits@V?$vector@HV?$allocator@H@std@@@std@@VTokenSequence@text@@U?$less@V?$vector@HV?$allocator@H@std@@@std@@@2@V?$allocator@U?$pair@$$CBV?$vector@HV?$allocator@H@std@@@std@@VTokenSequence@text@@@std@@@2@$0A@@std@@@2@XZ 00447300 f i torq.obj
 0001:00046350       ?_Rrotate@?$_Tree@V?$_Tmap_traits@V?$vector@HV?$allocator@H@std@@@std@@VTokenSequence@text@@U?$less@V?$vector@HV?$allocator@H@std@@@std@@@2@V?$allocator@U?$pair@$$CBV?$vector@HV?$allocator@H@std@@@std@@VTokenSequence@text@@@std@@@2@$0A@@std@@@std@@IAEXPAU_Node@?$_Tree_nod@V?$_Tmap_traits@V?$vector@HV?$allocator@H@std@@@std@@VTokenSequence@text@@U?$less@V?$vector@HV?$allocator@H@std@@@std@@@2@V?$allocator@U?$pair@$$CBV?$vector@HV?$allocator@H@std@@@std@@VTokenSequence@text@@@std@@@2@$0A@@std@@@2@@Z 00447350 f i torq.obj
 0001:000464b0       ?_Buynode@?$_Tree@V?$_Tmap_traits@V?$vector@HV?$allocator@H@std@@@std@@VTokenSequence@text@@U?$less@V?$vector@HV?$allocator@H@std@@@std@@@2@V?$allocator@U?$pair@$$CBV?$vector@HV?$allocator@H@std@@@std@@VTokenSequence@text@@@std@@@2@$0A@@std@@@std@@IAEPAU_Node@?$_Tree_nod@V?$_Tmap_traits@V?$vector@HV?$allocator@H@std@@@std@@VTokenSequence@text@@U?$less@V?$vector@HV?$allocator@H@std@@@std@@@2@V?$allocator@U?$pair@$$CBV?$vector@HV?$allocator@H@std@@@std@@VTokenSequence@text@@@std@@@2@$0A@@std@@@2@XZ 004474b0 f i torq.obj
 0001:00046660       ?_Buynode@?$_Tree@V?$_Tmap_traits@V?$vector@HV?$allocator@H@std@@@std@@VTokenSequence@text@@U?$less@V?$vector@HV?$allocator@H@std@@@std@@@2@V?$allocator@U?$pair@$$CBV?$vector@HV?$allocator@H@std@@@std@@VTokenSequence@text@@@std@@@2@$0A@@std@@@std@@IAEPAU_Node@?$_Tree_nod@V?$_Tmap_traits@V?$vector@HV?$allocator@H@std@@@std@@VTokenSequence@text@@U?$less@V?$vector@HV?$allocator@H@std@@@std@@@2@V?$allocator@U?$pair@$$CBV?$vector@HV?$allocator@H@std@@@std@@VTokenSequence@text@@@std@@@2@$0A@@std@@@2@PAU342@00ABU?$pair@$$CBV?$vector@HV?$allocator@H@std@@@std@@VTokenSequence@text@@@2@D@Z 00447660 f i torq.obj
 0001:00046770       ??0?$_Tree_ptr@V?$_Tmap_traits@V?$vector@HV?$allocator@H@std@@@std@@VTokenSequence@text@@U?$less@V?$vector@HV?$allocator@H@std@@@std@@@2@V?$allocator@U?$pair@$$CBV?$vector@HV?$allocator@H@std@@@std@@VTokenSequence@text@@@std@@@2@$0A@@std@@@std@@IAE@ABU?$less@V?$vector@HV?$allocator@H@std@@@std@@@1@V?$allocator@U?$pair@$$CBV?$vector@HV?$allocator@H@std@@@std@@VTokenSequence@text@@@std@@@1@@Z 00447770 f i torq.obj
 0001:000467e0       ?_Color@?$_Tree@V?$_Tmap_traits@V?$vector@HV?$allocator@H@std@@@std@@JU?$less@V?$vector@HV?$allocator@H@std@@@std@@@2@V?$allocator@U?$pair@$$CBV?$vector@HV?$allocator@H@std@@@std@@J@std@@@2@$0A@@std@@@std@@KAAADPAU_Node@?$_Tree_nod@V?$_Tmap_traits@V?$vector@HV?$allocator@H@std@@@std@@JU?$less@V?$vector@HV?$allocator@H@std@@@std@@@2@V?$allocator@U?$pair@$$CBV?$vector@HV?$allocator@H@std@@@std@@J@std@@@2@$0A@@std@@@2@@Z 004477e0 f i torq.obj
 0001:00046810       ?max_size@?$_Tree@V?$_Tmap_traits@V?$vector@HV?$allocator@H@std@@@std@@JU?$less@V?$vector@HV?$allocator@H@std@@@std@@@2@V?$allocator@U?$pair@$$CBV?$vector@HV?$allocator@H@std@@@std@@J@std@@@2@$0A@@std@@@std@@QBEIXZ 00447810 f i torq.obj
 0001:00046860       ?erase@?$_Tree@V?$_Tmap_traits@V?$vector@HV?$allocator@H@std@@@std@@JU?$less@V?$vector@HV?$allocator@H@std@@@std@@@2@V?$allocator@U?$pair@$$CBV?$vector@HV?$allocator@H@std@@@std@@J@std@@@2@$0A@@std@@@std@@QAE?AViterator@12@V312@@Z 00447860 f i torq.obj
 0001:00047060       ?clear@?$_Tree@V?$_Tmap_traits@V?$vector@HV?$allocator@H@std@@@std@@JU?$less@V?$vector@HV?$allocator@H@std@@@std@@@2@V?$allocator@U?$pair@$$CBV?$vector@HV?$allocator@H@std@@@std@@J@std@@@2@$0A@@std@@@std@@QAEXXZ 00448060 f i torq.obj
 0001:000470f0       ?_Lmost@?$_Tree@V?$_Tmap_traits@V?$vector@HV?$allocator@H@std@@@std@@JU?$less@V?$vector@HV?$allocator@H@std@@@std@@@2@V?$allocator@U?$pair@$$CBV?$vector@HV?$allocator@H@std@@@std@@J@std@@@2@$0A@@std@@@std@@IAEAAPAU_Node@?$_Tree_nod@V?$_Tmap_traits@V?$vector@HV?$allocator@H@std@@@std@@JU?$less@V?$vector@HV?$allocator@H@std@@@std@@@2@V?$allocator@U?$pair@$$CBV?$vector@HV?$allocator@H@std@@@std@@J@std@@@2@$0A@@std@@@2@XZ 004480f0 f i torq.obj
 0001:00047140       ?_Lrotate@?$_Tree@V?$_Tmap_traits@V?$vector@HV?$allocator@H@std@@@std@@JU?$less@V?$vector@HV?$allocator@H@std@@@std@@@2@V?$allocator@U?$pair@$$CBV?$vector@HV?$allocator@H@std@@@std@@J@std@@@2@$0A@@std@@@std@@IAEXPAU_Node@?$_Tree_nod@V?$_Tmap_traits@V?$vector@HV?$allocator@H@std@@@std@@JU?$less@V?$vector@HV?$allocator@H@std@@@std@@@2@V?$allocator@U?$pair@$$CBV?$vector@HV?$allocator@H@std@@@std@@J@std@@@2@$0A@@std@@@2@@Z 00448140 f i torq.obj
 0001:000472a0       ?_Root@?$_Tree@V?$_Tmap_traits@V?$vector@HV?$allocator@H@std@@@std@@JU?$less@V?$vector@HV?$allocator@H@std@@@std@@@2@V?$allocator@U?$pair@$$CBV?$vector@HV?$allocator@H@std@@@std@@J@std@@@2@$0A@@std@@@std@@IAEAAPAU_Node@?$_Tree_nod@V?$_Tmap_traits@V?$vector@HV?$allocator@H@std@@@std@@JU?$less@V?$vector@HV?$allocator@H@std@@@std@@@2@V?$allocator@U?$pair@$$CBV?$vector@HV?$allocator@H@std@@@std@@J@std@@@2@$0A@@std@@@2@XZ 004482a0 f i torq.obj
 0001:000472f0       ?_Root@?$_Tree@V?$_Tmap_traits@V?$vector@HV?$allocator@H@std@@@std@@JU?$less@V?$vector@HV?$allocator@H@std@@@std@@@2@V?$allocator@U?$pair@$$CBV?$vector@HV?$allocator@H@std@@@std@@J@std@@@2@$0A@@std@@@std@@IBEAAPAU_Node@?$_Tree_nod@V?$_Tmap_traits@V?$vector@HV?$allocator@H@std@@@std@@JU?$less@V?$vector@HV?$allocator@H@std@@@std@@@2@V?$allocator@U?$pair@$$CBV?$vector@HV?$allocator@H@std@@@std@@J@std@@@2@$0A@@std@@@2@XZ 004482f0 f i torq.obj
 0001:00047340       ?_Rrotate@?$_Tree@V?$_Tmap_traits@V?$vector@HV?$allocator@H@std@@@std@@JU?$less@V?$vector@HV?$allocator@H@std@@@std@@@2@V?$allocator@U?$pair@$$CBV?$vector@HV?$allocator@H@std@@@std@@J@std@@@2@$0A@@std@@@std@@IAEXPAU_Node@?$_Tree_nod@V?$_Tmap_traits@V?$vector@HV?$allocator@H@std@@@std@@JU?$less@V?$vector@HV?$allocator@H@std@@@std@@@2@V?$allocator@U?$pair@$$CBV?$vector@HV?$allocator@H@std@@@std@@J@std@@@2@$0A@@std@@@2@@Z 00448340 f i torq.obj
 0001:000474a0       ?_Buynode@?$_Tree@V?$_Tmap_traits@V?$vector@HV?$allocator@H@std@@@std@@JU?$less@V?$vector@HV?$allocator@H@std@@@std@@@2@V?$allocator@U?$pair@$$CBV?$vector@HV?$allocator@H@std@@@std@@J@std@@@2@$0A@@std@@@std@@IAEPAU_Node@?$_Tree_nod@V?$_Tmap_traits@V?$vector@HV?$allocator@H@std@@@std@@JU?$less@V?$vector@HV?$allocator@H@std@@@std@@@2@V?$allocator@U?$pair@$$CBV?$vector@HV?$allocator@H@std@@@std@@J@std@@@2@$0A@@std@@@2@XZ 004484a0 f i torq.obj
 0001:00047650       ?_Buynode@?$_Tree@V?$_Tmap_traits@V?$vector@HV?$allocator@H@std@@@std@@JU?$less@V?$vector@HV?$allocator@H@std@@@std@@@2@V?$allocator@U?$pair@$$CBV?$vector@HV?$allocator@H@std@@@std@@J@std@@@2@$0A@@std@@@std@@IAEPAU_Node@?$_Tree_nod@V?$_Tmap_traits@V?$vector@HV?$allocator@H@std@@@std@@JU?$less@V?$vector@HV?$allocator@H@std@@@std@@@2@V?$allocator@U?$pair@$$CBV?$vector@HV?$allocator@H@std@@@std@@J@std@@@2@$0A@@std@@@2@PAU342@00ABU?$pair@$$CBV?$vector@HV?$allocator@H@std@@@std@@J@2@D@Z 00448650 f i torq.obj
 0001:00047760       ??0?$_Tree_ptr@V?$_Tmap_traits@V?$vector@HV?$allocator@H@std@@@std@@JU?$less@V?$vector@HV?$allocator@H@std@@@std@@@2@V?$allocator@U?$pair@$$CBV?$vector@HV?$allocator@H@std@@@std@@J@std@@@2@$0A@@std@@@std@@IAE@ABU?$less@V?$vector@HV?$allocator@H@std@@@std@@@1@V?$allocator@U?$pair@$$CBV?$vector@HV?$allocator@H@std@@@std@@J@std@@@1@@Z 00448760 f i torq.obj
 0001:000477d0       ?capacity@?$vector@UTSL@Interpreter@@V?$allocator@UTSL@Interpreter@@@std@@@std@@QBEIXZ 004487d0 f i torq.obj
 0001:00047830       ?_Ufill@?$vector@UTSL@Interpreter@@V?$allocator@UTSL@Interpreter@@@std@@@std@@IAEPAUTSL@Interpreter@@PAU34@IABU34@@Z 00448830 f i torq.obj
 0001:00047890       ?max_size@?$allocator@UTSL@Interpreter@@@std@@QBEIXZ 00448890 f i torq.obj
 0001:000478f0       ??Gconst_iterator@?$vector@UMATCH@Interpreter@@V?$allocator@UMATCH@Interpreter@@@std@@@std@@QBEHABV012@@Z 004488f0 f i torq.obj
 0001:00047930       ?erase@?$_Tree@V?$_Tset_traits@JU?$less@J@std@@V?$allocator@J@2@$0A@@std@@@std@@QAE?AViterator@12@V312@@Z 00448930 f i torq.obj
 0001:00048130       ?clear@?$_Tree@V?$_Tset_traits@JU?$less@J@std@@V?$allocator@J@2@$0A@@std@@@std@@QAEXXZ 00449130 f i torq.obj
 0001:000481c0       ?_Root@?$_Tree@V?$_Tset_traits@JU?$less@J@std@@V?$allocator@J@2@$0A@@std@@@std@@IBEAAPAU_Node@?$_Tree_nod@V?$_Tset_traits@JU?$less@J@std@@V?$allocator@J@2@$0A@@std@@@2@XZ 004491c0 f i torq.obj
 0001:00048210       ?_Buynode@?$_Tree@V?$_Tset_traits@JU?$less@J@std@@V?$allocator@J@2@$0A@@std@@@std@@IAEPAU_Node@?$_Tree_nod@V?$_Tset_traits@JU?$less@J@std@@V?$allocator@J@2@$0A@@std@@@2@XZ 00449210 f i torq.obj
 0001:000483c0       ??0?$_Tree_ptr@V?$_Tset_traits@JU?$less@J@std@@V?$allocator@J@2@$0A@@std@@@std@@IAE@ABU?$less@J@1@V?$allocator@J@1@@Z 004493c0 f i torq.obj
 0001:00048430       ?allocate@?$allocator@U_Node@?$_Tree_nod@V?$_Tset_traits@JU?$less@J@std@@V?$allocator@J@2@$0A@@std@@@std@@@std@@QAEPAU_Node@?$_Tree_nod@V?$_Tset_traits@JU?$less@J@std@@V?$allocator@J@2@$0A@@std@@@2@I@Z 00449430 f i torq.obj
 0001:00048480       ??Eiterator@?$_Tree@V?$_Tset_traits@JU?$less@J@std@@V?$allocator@J@2@$0A@@std@@@std@@QAE?AV012@H@Z 00449480 f i torq.obj
 0001:00048500       ?_Dec@const_iterator@?$_Tree@V?$_Tset_traits@JU?$less@J@std@@V?$allocator@J@2@$0A@@std@@@std@@QAEXXZ 00449500 f i torq.obj
 0001:00048610       ?erase@?$_Tree@V?$_Tset_traits@V?$vector@HV?$allocator@H@std@@@std@@U?$less@V?$vector@HV?$allocator@H@std@@@std@@@2@V?$allocator@V?$vector@HV?$allocator@H@std@@@std@@@2@$0A@@std@@@std@@QAE?AViterator@12@V312@@Z 00449610 f i torq.obj
 0001:00048e10       ?clear@?$_Tree@V?$_Tset_traits@V?$vector@HV?$allocator@H@std@@@std@@U?$less@V?$vector@HV?$allocator@H@std@@@std@@@2@V?$allocator@V?$vector@HV?$allocator@H@std@@@std@@@2@$0A@@std@@@std@@QAEXXZ 00449e10 f i torq.obj
 0001:00048ea0       ?_Buynode@?$_Tree@V?$_Tset_traits@V?$vector@HV?$allocator@H@std@@@std@@U?$less@V?$vector@HV?$allocator@H@std@@@std@@@2@V?$allocator@V?$vector@HV?$allocator@H@std@@@std@@@2@$0A@@std@@@std@@IAEPAU_Node@?$_Tree_nod@V?$_Tset_traits@V?$vector@HV?$allocator@H@std@@@std@@U?$less@V?$vector@HV?$allocator@H@std@@@std@@@2@V?$allocator@V?$vector@HV?$allocator@H@std@@@std@@@2@$0A@@std@@@2@XZ 00449ea0 f i torq.obj
 0001:00049050       ??0?$_Tree_ptr@V?$_Tset_traits@V?$vector@HV?$allocator@H@std@@@std@@U?$less@V?$vector@HV?$allocator@H@std@@@std@@@2@V?$allocator@V?$vector@HV?$allocator@H@std@@@std@@@2@$0A@@std@@@std@@IAE@ABU?$less@V?$vector@HV?$allocator@H@std@@@std@@@1@V?$allocator@V?$vector@HV?$allocator@H@std@@@std@@@1@@Z 0044a050 f i torq.obj
 0001:000490c0       ?allocate@?$allocator@U_Node@?$_Tree_nod@V?$_Tset_traits@V?$vector@HV?$allocator@H@std@@@std@@U?$less@V?$vector@HV?$allocator@H@std@@@std@@@2@V?$allocator@V?$vector@HV?$allocator@H@std@@@std@@@2@$0A@@std@@@std@@@std@@QAEPAU_Node@?$_Tree_nod@V?$_Tset_traits@V?$vector@HV?$allocator@H@std@@@std@@U?$less@V?$vector@HV?$allocator@H@std@@@std@@@2@V?$allocator@V?$vector@HV?$allocator@H@std@@@std@@@2@$0A@@std@@@2@I@Z 0044a0c0 f i torq.obj
 0001:00049110       ??Eiterator@?$_Tree@V?$_Tset_traits@V?$vector@HV?$allocator@H@std@@@std@@U?$less@V?$vector@HV?$allocator@H@std@@@std@@@2@V?$allocator@V?$vector@HV?$allocator@H@std@@@std@@@2@$0A@@std@@@std@@QAE?AV012@H@Z 0044a110 f i torq.obj
 0001:00049190       ?_Dec@const_iterator@?$_Tree@V?$_Tset_traits@V?$vector@HV?$allocator@H@std@@@std@@U?$less@V?$vector@HV?$allocator@H@std@@@std@@@2@V?$allocator@V?$vector@HV?$allocator@H@std@@@std@@@2@$0A@@std@@@std@@QAEXXZ 0044a190 f i torq.obj
 0001:000492a0       ??Eiterator@?$_Tree@V?$_Tmap_traits@V?$vector@HV?$allocator@H@std@@@std@@JU?$less@V?$vector@HV?$allocator@H@std@@@std@@@2@V?$allocator@U?$pair@$$CBV?$vector@HV?$allocator@H@std@@@std@@J@std@@@2@$0A@@std@@@std@@QAE?AV012@H@Z 0044a2a0 f i torq.obj
 0001:00049320       ??0const_iterator@?$_Tree@V?$_Tmap_traits@V?$vector@HV?$allocator@H@std@@@std@@JU?$less@V?$vector@HV?$allocator@H@std@@@std@@@2@V?$allocator@U?$pair@$$CBV?$vector@HV?$allocator@H@std@@@std@@J@std@@@2@$0A@@std@@@std@@QAE@XZ 0044a320 f i torq.obj
 0001:00049360       ??Econst_iterator@?$_Tree@V?$_Tmap_traits@V?$vector@HV?$allocator@H@std@@@std@@JU?$less@V?$vector@HV?$allocator@H@std@@@std@@@2@V?$allocator@U?$pair@$$CBV?$vector@HV?$allocator@H@std@@@std@@J@std@@@2@$0A@@std@@@std@@QAEAAV012@XZ 0044a360 f i torq.obj
 0001:000493b0       ??Fconst_iterator@?$_Tree@V?$_Tmap_traits@V?$vector@HV?$allocator@H@std@@@std@@JU?$less@V?$vector@HV?$allocator@H@std@@@std@@@2@V?$allocator@U?$pair@$$CBV?$vector@HV?$allocator@H@std@@@std@@J@std@@@2@$0A@@std@@@std@@QAEAAV012@XZ 0044a3b0 f i torq.obj
 0001:00049400       ??9const_iterator@?$_Tree@V?$_Tmap_traits@V?$vector@HV?$allocator@H@std@@@std@@JU?$less@V?$vector@HV?$allocator@H@std@@@std@@@2@V?$allocator@U?$pair@$$CBV?$vector@HV?$allocator@H@std@@@std@@J@std@@@2@$0A@@std@@@std@@QBE_NABV012@@Z 0044a400 f i torq.obj
 0001:00049450       ??Eiterator@?$_Tree@V?$_Tmap_traits@V?$vector@HV?$allocator@H@std@@@std@@VTokenSequence@text@@U?$less@V?$vector@HV?$allocator@H@std@@@std@@@2@V?$allocator@U?$pair@$$CBV?$vector@HV?$allocator@H@std@@@std@@VTokenSequence@text@@@std@@@2@$0A@@std@@@std@@QAE?AV012@H@Z 0044a450 f i torq.obj
 0001:000494d0       ??0const_iterator@?$_Tree@V?$_Tmap_traits@V?$vector@HV?$allocator@H@std@@@std@@VTokenSequence@text@@U?$less@V?$vector@HV?$allocator@H@std@@@std@@@2@V?$allocator@U?$pair@$$CBV?$vector@HV?$allocator@H@std@@@std@@VTokenSequence@text@@@std@@@2@$0A@@std@@@std@@QAE@XZ 0044a4d0 f i torq.obj
 0001:00049510       ??Econst_iterator@?$_Tree@V?$_Tmap_traits@V?$vector@HV?$allocator@H@std@@@std@@VTokenSequence@text@@U?$less@V?$vector@HV?$allocator@H@std@@@std@@@2@V?$allocator@U?$pair@$$CBV?$vector@HV?$allocator@H@std@@@std@@VTokenSequence@text@@@std@@@2@$0A@@std@@@std@@QAEAAV012@XZ 0044a510 f i torq.obj
 0001:00049560       ??Fconst_iterator@?$_Tree@V?$_Tmap_traits@V?$vector@HV?$allocator@H@std@@@std@@VTokenSequence@text@@U?$less@V?$vector@HV?$allocator@H@std@@@std@@@2@V?$allocator@U?$pair@$$CBV?$vector@HV?$allocator@H@std@@@std@@VTokenSequence@text@@@std@@@2@$0A@@std@@@std@@QAEAAV012@XZ 0044a560 f i torq.obj
 0001:000495b0       ??9const_iterator@?$_Tree@V?$_Tmap_traits@V?$vector@HV?$allocator@H@std@@@std@@VTokenSequence@text@@U?$less@V?$vector@HV?$allocator@H@std@@@std@@@2@V?$allocator@U?$pair@$$CBV?$vector@HV?$allocator@H@std@@@std@@VTokenSequence@text@@@std@@@2@$0A@@std@@@std@@QBE_NABV012@@Z 0044a5b0 f i torq.obj
 0001:00049600       ?_Color@?$_Tree@V?$_Tmap_traits@V?$vector@HV?$allocator@H@std@@@std@@UNodeFormat@Helper@text@@U?$less@V?$vector@HV?$allocator@H@std@@@std@@@2@V?$allocator@U?$pair@$$CBV?$vector@HV?$allocator@H@std@@@std@@UNodeFormat@Helper@text@@@std@@@2@$0A@@std@@@std@@KAAADPAU_Node@?$_Tree_nod@V?$_Tmap_traits@V?$vector@HV?$allocator@H@std@@@std@@UNodeFormat@Helper@text@@U?$less@V?$vector@HV?$allocator@H@std@@@std@@@2@V?$allocator@U?$pair@$$CBV?$vector@HV?$allocator@H@std@@@std@@UNodeFormat@Helper@text@@@std@@@2@$0A@@std@@@2@@Z 0044a600 f i torq.obj
 0001:00049630       ?max_size@?$_Tree@V?$_Tmap_traits@V?$vector@HV?$allocator@H@std@@@std@@UNodeFormat@Helper@text@@U?$less@V?$vector@HV?$allocator@H@std@@@std@@@2@V?$allocator@U?$pair@$$CBV?$vector@HV?$allocator@H@std@@@std@@UNodeFormat@Helper@text@@@std@@@2@$0A@@std@@@std@@QBEIXZ 0044a630 f i torq.obj
 0001:00049680       ?erase@?$_Tree@V?$_Tmap_traits@V?$vector@HV?$allocator@H@std@@@std@@UNodeFormat@Helper@text@@U?$less@V?$vector@HV?$allocator@H@std@@@std@@@2@V?$allocator@U?$pair@$$CBV?$vector@HV?$allocator@H@std@@@std@@UNodeFormat@Helper@text@@@std@@@2@$0A@@std@@@std@@QAE?AViterator@12@V312@@Z 0044a680 f i torq.obj
 0001:00049e80       ?_Lrotate@?$_Tree@V?$_Tmap_traits@V?$vector@HV?$allocator@H@std@@@std@@UNodeFormat@Helper@text@@U?$less@V?$vector@HV?$allocator@H@std@@@std@@@2@V?$allocator@U?$pair@$$CBV?$vector@HV?$allocator@H@std@@@std@@UNodeFormat@Helper@text@@@std@@@2@$0A@@std@@@std@@IAEXPAU_Node@?$_Tree_nod@V?$_Tmap_traits@V?$vector@HV?$allocator@H@std@@@std@@UNodeFormat@Helper@text@@U?$less@V?$vector@HV?$allocator@H@std@@@std@@@2@V?$allocator@U?$pair@$$CBV?$vector@HV?$allocator@H@std@@@std@@UNodeFormat@Helper@text@@@std@@@2@$0A@@std@@@2@@Z 0044ae80 f i torq.obj
 0001:00049fe0       ?_Min@?$_Tree@V?$_Tmap_traits@V?$vector@HV?$allocator@H@std@@@std@@UNodeFormat@Helper@text@@U?$less@V?$vector@HV?$allocator@H@std@@@std@@@2@V?$allocator@U?$pair@$$CBV?$vector@HV?$allocator@H@std@@@std@@UNodeFormat@Helper@text@@@std@@@2@$0A@@std@@@std@@KAPAU_Node@?$_Tree_nod@V?$_Tmap_traits@V?$vector@HV?$allocator@H@std@@@std@@UNodeFormat@Helper@text@@U?$less@V?$vector@HV?$allocator@H@std@@@std@@@2@V?$allocator@U?$pair@$$CBV?$vector@HV?$allocator@H@std@@@std@@UNodeFormat@Helper@text@@@std@@@2@$0A@@std@@@2@PAU342@@Z 0044afe0 f i torq.obj
 0001:0004a050       ?_Root@?$_Tree@V?$_Tmap_traits@V?$vector@HV?$allocator@H@std@@@std@@UNodeFormat@Helper@text@@U?$less@V?$vector@HV?$allocator@H@std@@@std@@@2@V?$allocator@U?$pair@$$CBV?$vector@HV?$allocator@H@std@@@std@@UNodeFormat@Helper@text@@@std@@@2@$0A@@std@@@std@@IBEAAPAU_Node@?$_Tree_nod@V?$_Tmap_traits@V?$vector@HV?$allocator@H@std@@@std@@UNodeFormat@Helper@text@@U?$less@V?$vector@HV?$allocator@H@std@@@std@@@2@V?$allocator@U?$pair@$$CBV?$vector@HV?$allocator@H@std@@@std@@UNodeFormat@Helper@text@@@std@@@2@$0A@@std@@@2@XZ 0044b050 f i torq.obj
 0001:0004a0a0       ?_Rrotate@?$_Tree@V?$_Tmap_traits@V?$vector@HV?$allocator@H@std@@@std@@UNodeFormat@Helper@text@@U?$less@V?$vector@HV?$allocator@H@std@@@std@@@2@V?$allocator@U?$pair@$$CBV?$vector@HV?$allocator@H@std@@@std@@UNodeFormat@Helper@text@@@std@@@2@$0A@@std@@@std@@IAEXPAU_Node@?$_Tree_nod@V?$_Tmap_traits@V?$vector@HV?$allocator@H@std@@@std@@UNodeFormat@Helper@text@@U?$less@V?$vector@HV?$allocator@H@std@@@std@@@2@V?$allocator@U?$pair@$$CBV?$vector@HV?$allocator@H@std@@@std@@UNodeFormat@Helper@text@@@std@@@2@$0A@@std@@@2@@Z 0044b0a0 f i torq.obj
 0001:0004a200       ?_Buynode@?$_Tree@V?$_Tmap_traits@V?$vector@HV?$allocator@H@std@@@std@@UNodeFormat@Helper@text@@U?$less@V?$vector@HV?$allocator@H@std@@@std@@@2@V?$allocator@U?$pair@$$CBV?$vector@HV?$allocator@H@std@@@std@@UNodeFormat@Helper@text@@@std@@@2@$0A@@std@@@std@@IAEPAU_Node@?$_Tree_nod@V?$_Tmap_traits@V?$vector@HV?$allocator@H@std@@@std@@UNodeFormat@Helper@text@@U?$less@V?$vector@HV?$allocator@H@std@@@std@@@2@V?$allocator@U?$pair@$$CBV?$vector@HV?$allocator@H@std@@@std@@UNodeFormat@Helper@text@@@std@@@2@$0A@@std@@@2@XZ 0044b200 f i torq.obj
 0001:0004a3b0       ?_Buynode@?$_Tree@V?$_Tmap_traits@V?$vector@HV?$allocator@H@std@@@std@@UNodeFormat@Helper@text@@U?$less@V?$vector@HV?$allocator@H@std@@@std@@@2@V?$allocator@U?$pair@$$CBV?$vector@HV?$allocator@H@std@@@std@@UNodeFormat@Helper@text@@@std@@@2@$0A@@std@@@std@@IAEPAU_Node@?$_Tree_nod@V?$_Tmap_traits@V?$vector@HV?$allocator@H@std@@@std@@UNodeFormat@Helper@text@@U?$less@V?$vector@HV?$allocator@H@std@@@std@@@2@V?$allocator@U?$pair@$$CBV?$vector@HV?$allocator@H@std@@@std@@UNodeFormat@Helper@text@@@std@@@2@$0A@@std@@@2@PAU342@00ABU?$pair@$$CBV?$vector@HV?$allocator@H@std@@@std@@UNodeFormat@Helper@text@@@2@D@Z 0044b3b0 f i torq.obj
 0001:0004a4c0       ??0?$_Tree_ptr@V?$_Tmap_traits@V?$vector@HV?$allocator@H@std@@@std@@UNodeFormat@Helper@text@@U?$less@V?$vector@HV?$allocator@H@std@@@std@@@2@V?$allocator@U?$pair@$$CBV?$vector@HV?$allocator@H@std@@@std@@UNodeFormat@Helper@text@@@std@@@2@$0A@@std@@@std@@IAE@ABU?$less@V?$vector@HV?$allocator@H@std@@@std@@@1@V?$allocator@U?$pair@$$CBV?$vector@HV?$allocator@H@std@@@std@@UNodeFormat@Helper@text@@@std@@@1@@Z 0044b4c0 f i torq.obj
 0001:0004a530       ??0const_iterator@?$_Tree@V?$_Tmap_traits@V?$vector@HV?$allocator@H@std@@@std@@UNodeFormat@Helper@text@@U?$less@V?$vector@HV?$allocator@H@std@@@std@@@2@V?$allocator@U?$pair@$$CBV?$vector@HV?$allocator@H@std@@@std@@UNodeFormat@Helper@text@@@std@@@2@$0A@@std@@@std@@QAE@XZ 0044b530 f i torq.obj
 0001:0004a570       ??Fconst_iterator@?$_Tree@V?$_Tmap_traits@V?$vector@HV?$allocator@H@std@@@std@@UNodeFormat@Helper@text@@U?$less@V?$vector@HV?$allocator@H@std@@@std@@@2@V?$allocator@U?$pair@$$CBV?$vector@HV?$allocator@H@std@@@std@@UNodeFormat@Helper@text@@@std@@@2@$0A@@std@@@std@@QAEAAV012@XZ 0044b570 f i torq.obj
 0001:0004a5c0       ?_Color@?$_Tree@V?$_Tmap_traits@JV?$vector@HV?$allocator@H@std@@@std@@U?$less@J@2@V?$allocator@U?$pair@$$CBJV?$vector@HV?$allocator@H@std@@@std@@@std@@@2@$0A@@std@@@std@@KAAADPAU_Node@?$_Tree_nod@V?$_Tmap_traits@JV?$vector@HV?$allocator@H@std@@@std@@U?$less@J@2@V?$allocator@U?$pair@$$CBJV?$vector@HV?$allocator@H@std@@@std@@@std@@@2@$0A@@std@@@2@@Z 0044b5c0 f i torq.obj
 0001:0004a5f0       ?max_size@?$_Tree@V?$_Tmap_traits@JV?$vector@HV?$allocator@H@std@@@std@@U?$less@J@2@V?$allocator@U?$pair@$$CBJV?$vector@HV?$allocator@H@std@@@std@@@std@@@2@$0A@@std@@@std@@QBEIXZ 0044b5f0 f i torq.obj
 0001:0004a640       ?erase@?$_Tree@V?$_Tmap_traits@JV?$vector@HV?$allocator@H@std@@@std@@U?$less@J@2@V?$allocator@U?$pair@$$CBJV?$vector@HV?$allocator@H@std@@@std@@@std@@@2@$0A@@std@@@std@@QAE?AViterator@12@V312@@Z 0044b640 f i torq.obj
 0001:0004ae40       ?clear@?$_Tree@V?$_Tmap_traits@JV?$vector@HV?$allocator@H@std@@@std@@U?$less@J@2@V?$allocator@U?$pair@$$CBJV?$vector@HV?$allocator@H@std@@@std@@@std@@@2@$0A@@std@@@std@@QAEXXZ 0044be40 f i torq.obj
 0001:0004aed0       ?_Copy@?$_Tree@V?$_Tmap_traits@JV?$vector@HV?$allocator@H@std@@@std@@U?$less@J@2@V?$allocator@U?$pair@$$CBJV?$vector@HV?$allocator@H@std@@@std@@@std@@@2@$0A@@std@@@std@@IAEPAU_Node@?$_Tree_nod@V?$_Tmap_traits@JV?$vector@HV?$allocator@H@std@@@std@@U?$less@J@2@V?$allocator@U?$pair@$$CBJV?$vector@HV?$allocator@H@std@@@std@@@std@@@2@$0A@@std@@@2@PAU342@0@Z 0044bed0 f i torq.obj
 0001:0004b060       ?_Lrotate@?$_Tree@V?$_Tmap_traits@JV?$vector@HV?$allocator@H@std@@@std@@U?$less@J@2@V?$allocator@U?$pair@$$CBJV?$vector@HV?$allocator@H@std@@@std@@@std@@@2@$0A@@std@@@std@@IAEXPAU_Node@?$_Tree_nod@V?$_Tmap_traits@JV?$vector@HV?$allocator@H@std@@@std@@U?$less@J@2@V?$allocator@U?$pair@$$CBJV?$vector@HV?$allocator@H@std@@@std@@@std@@@2@$0A@@std@@@2@@Z 0044c060 f i torq.obj
 0001:0004b1c0       ?_Max@?$_Tree@V?$_Tmap_traits@JV?$vector@HV?$allocator@H@std@@@std@@U?$less@J@2@V?$allocator@U?$pair@$$CBJV?$vector@HV?$allocator@H@std@@@std@@@std@@@2@$0A@@std@@@std@@KAPAU_Node@?$_Tree_nod@V?$_Tmap_traits@JV?$vector@HV?$allocator@H@std@@@std@@U?$less@J@2@V?$allocator@U?$pair@$$CBJV?$vector@HV?$allocator@H@std@@@std@@@std@@@2@$0A@@std@@@2@PAU342@@Z 0044c1c0 f i torq.obj
 0001:0004b230       ?_Root@?$_Tree@V?$_Tmap_traits@JV?$vector@HV?$allocator@H@std@@@std@@U?$less@J@2@V?$allocator@U?$pair@$$CBJV?$vector@HV?$allocator@H@std@@@std@@@std@@@2@$0A@@std@@@std@@IAEAAPAU_Node@?$_Tree_nod@V?$_Tmap_traits@JV?$vector@HV?$allocator@H@std@@@std@@U?$less@J@2@V?$allocator@U?$pair@$$CBJV?$vector@HV?$allocator@H@std@@@std@@@std@@@2@$0A@@std@@@2@XZ 0044c230 f i torq.obj
 0001:0004b280       ?_Root@?$_Tree@V?$_Tmap_traits@JV?$vector@HV?$allocator@H@std@@@std@@U?$less@J@2@V?$allocator@U?$pair@$$CBJV?$vector@HV?$allocator@H@std@@@std@@@std@@@2@$0A@@std@@@std@@IBEAAPAU_Node@?$_Tree_nod@V?$_Tmap_traits@JV?$vector@HV?$allocator@H@std@@@std@@U?$less@J@2@V?$allocator@U?$pair@$$CBJV?$vector@HV?$allocator@H@std@@@std@@@std@@@2@$0A@@std@@@2@XZ 0044c280 f i torq.obj
 0001:0004b2d0       ?_Rrotate@?$_Tree@V?$_Tmap_traits@JV?$vector@HV?$allocator@H@std@@@std@@U?$less@J@2@V?$allocator@U?$pair@$$CBJV?$vector@HV?$allocator@H@std@@@std@@@std@@@2@$0A@@std@@@std@@IAEXPAU_Node@?$_Tree_nod@V?$_Tmap_traits@JV?$vector@HV?$allocator@H@std@@@std@@U?$less@J@2@V?$allocator@U?$pair@$$CBJV?$vector@HV?$allocator@H@std@@@std@@@std@@@2@$0A@@std@@@2@@Z 0044c2d0 f i torq.obj
 0001:0004b430       ?_Buynode@?$_Tree@V?$_Tmap_traits@JV?$vector@HV?$allocator@H@std@@@std@@U?$less@J@2@V?$allocator@U?$pair@$$CBJV?$vector@HV?$allocator@H@std@@@std@@@std@@@2@$0A@@std@@@std@@IAEPAU_Node@?$_Tree_nod@V?$_Tmap_traits@JV?$vector@HV?$allocator@H@std@@@std@@U?$less@J@2@V?$allocator@U?$pair@$$CBJV?$vector@HV?$allocator@H@std@@@std@@@std@@@2@$0A@@std@@@2@XZ 0044c430 f i torq.obj
 0001:0004b5e0       ?_Buynode@?$_Tree@V?$_Tmap_traits@JV?$vector@HV?$allocator@H@std@@@std@@U?$less@J@2@V?$allocator@U?$pair@$$CBJV?$vector@HV?$allocator@H@std@@@std@@@std@@@2@$0A@@std@@@std@@IAEPAU_Node@?$_Tree_nod@V?$_Tmap_traits@JV?$vector@HV?$allocator@H@std@@@std@@U?$less@J@2@V?$allocator@U?$pair@$$CBJV?$vector@HV?$allocator@H@std@@@std@@@std@@@2@$0A@@std@@@2@PAU342@00ABU?$pair@$$CBJV?$vector@HV?$allocator@H@std@@@std@@@2@D@Z 0044c5e0 f i torq.obj
 0001:0004b6f0       ??0?$_Tree_ptr@V?$_Tmap_traits@JV?$vector@HV?$allocator@H@std@@@std@@U?$less@J@2@V?$allocator@U?$pair@$$CBJV?$vector@HV?$allocator@H@std@@@std@@@std@@@2@$0A@@std@@@std@@IAE@ABU?$less@J@1@V?$allocator@U?$pair@$$CBJV?$vector@HV?$allocator@H@std@@@std@@@std@@@1@@Z 0044c6f0 f i torq.obj
 0001:0004b760       ??0const_iterator@?$_Tree@V?$_Tmap_traits@JV?$vector@HV?$allocator@H@std@@@std@@U?$less@J@2@V?$allocator@U?$pair@$$CBJV?$vector@HV?$allocator@H@std@@@std@@@std@@@2@$0A@@std@@@std@@QAE@XZ 0044c760 f i torq.obj
 0001:0004b7a0       ??Fconst_iterator@?$_Tree@V?$_Tmap_traits@JV?$vector@HV?$allocator@H@std@@@std@@U?$less@J@2@V?$allocator@U?$pair@$$CBJV?$vector@HV?$allocator@H@std@@@std@@@std@@@2@$0A@@std@@@std@@QAEAAV012@XZ 0044c7a0 f i torq.obj
 0001:0004b7f0       ??Eiterator@?$_Tree@V?$_Tmap_traits@JV?$vector@HV?$allocator@H@std@@@std@@U?$less@J@2@V?$allocator@U?$pair@$$CBJV?$vector@HV?$allocator@H@std@@@std@@@std@@@2@$0A@@std@@@std@@QAE?AV012@H@Z 0044c7f0 f i torq.obj
 0001:0004b870       ??Gconst_iterator@?$vector@V?$basic_string@DU?$char_traits@D@std@@V?$allocator@D@2@@std@@V?$allocator@V?$basic_string@DU?$char_traits@D@std@@V?$allocator@D@2@@std@@@2@@std@@QBEHABV012@@Z 0044c870 f i torq.obj
 0001:0004b8b0       ??Eiterator@?$_Tree@V?$_Tmap_traits@V?$vector@HV?$allocator@H@std@@@std@@UNodeFormat@Helper@text@@U?$less@V?$vector@HV?$allocator@H@std@@@std@@@2@V?$allocator@U?$pair@$$CBV?$vector@HV?$allocator@H@std@@@std@@UNodeFormat@Helper@text@@@std@@@2@$0A@@std@@@std@@QAE?AV012@H@Z 0044c8b0 f i torq.obj
 0001:0004b930       ??0const_iterator@?$vector@PBDV?$allocator@PBD@std@@@std@@QAE@PAPBD@Z 0044c930 f i torq.obj
 0001:0004b970       ??9const_iterator@?$vector@PBDV?$allocator@PBD@std@@@std@@QBE_NABV012@@Z 0044c970 f i torq.obj
 0001:0004b9c0       ??0const_iterator@?$vector@DV?$allocator@D@std@@@std@@QAE@PAD@Z 0044c9c0 f i torq.obj
 0001:0004ba00       ??9const_iterator@?$vector@DV?$allocator@D@std@@@std@@QBE_NABV012@@Z 0044ca00 f i torq.obj
 0001:0004ba50       ??Gconst_iterator@?$vector@UTOKEN@@V?$allocator@UTOKEN@@@std@@@std@@QBEHABV012@@Z 0044ca50 f i torq.obj
 0001:0004ba90       ??Gconst_iterator@?$vector@UTRACE_ITEM@@V?$allocator@UTRACE_ITEM@@@std@@@std@@QBEHABV012@@Z 0044ca90 f i torq.obj
 0001:0004bad0       ??Gconst_iterator@?$vector@JV?$allocator@J@std@@@std@@QBEHABV012@@Z 0044cad0 f i torq.obj
 0001:0004bb10       ??9const_iterator@?$vector@JV?$allocator@J@std@@@std@@QBE_NABV012@@Z 0044cb10 f i torq.obj
 0001:0004bb60       ??Gconst_iterator@?$vector@PAUToken@text@@V?$allocator@PAUToken@text@@@std@@@std@@QBEHABV012@@Z 0044cb60 f i torq.obj
 0001:0004bba0       ??0iterator@?$list@U?$pair@$$CBJUNodeFormat@Helper@text@@@std@@V?$allocator@U?$pair@$$CBJUNodeFormat@Helper@text@@@std@@@2@@std@@QAE@PAU_Node@?$_List_nod@U?$pair@$$CBJUNodeFormat@Helper@text@@@std@@V?$allocator@U?$pair@$$CBJUNodeFormat@Helper@text@@@std@@@2@@2@@Z 0044cba0 f i torq.obj
 0001:0004bbf0       ??9const_iterator@?$vector@U?$pair@_NUNodeFormatI@Helper@text@@@std@@V?$allocator@U?$pair@_NUNodeFormatI@Helper@text@@@std@@@2@@std@@QBE_NABV012@@Z 0044cbf0 f i torq.obj
 0001:0004bc40       ??Gconst_iterator@?$vector@V?$vector@HV?$allocator@H@std@@@std@@V?$allocator@V?$vector@HV?$allocator@H@std@@@std@@@2@@std@@QBEHABV012@@Z 0044cc40 f i torq.obj
 0001:0004bc80       ??9const_iterator@?$vector@UTSL@Interpreter@@V?$allocator@UTSL@Interpreter@@@std@@@std@@QBE_NABV012@@Z 0044cc80 f i torq.obj
 0001:0004bcd0       ??0const_iterator@?$basic_string@DU?$char_traits@D@std@@V?$_DebugHeapAllocator@D@2@@std@@QAE@PBD@Z 0044ccd0 f i torq.obj
 0001:0004bd10       ??0?$pair@Viterator@?$_Tree@V?$_Tmap_traits@V?$vector@HV?$allocator@H@std@@@std@@VTokenSequence@text@@U?$less@V?$vector@HV?$allocator@H@std@@@std@@@2@V?$allocator@U?$pair@$$CBV?$vector@HV?$allocator@H@std@@@std@@VTokenSequence@text@@@std@@@2@$0A@@std@@@std@@_N@std@@QAE@ABViterator@?$_Tree@V?$_Tmap_traits@V?$vector@HV?$allocator@H@std@@@std@@VTokenSequence@text@@U?$less@V?$vector@HV?$allocator@H@std@@@std@@@2@V?$allocator@U?$pair@$$CBV?$vector@HV?$allocator@H@std@@@std@@VTokenSequence@text@@@std@@@2@$0A@@std@@@1@AB_N@Z 0044cd10 f i torq.obj
 0001:0004bd60       ??0?$pair@Viterator@?$_Tree@V?$_Tmap_traits@V?$vector@HV?$allocator@H@std@@@std@@JU?$less@V?$vector@HV?$allocator@H@std@@@std@@@2@V?$allocator@U?$pair@$$CBV?$vector@HV?$allocator@H@std@@@std@@J@std@@@2@$0A@@std@@@std@@_N@std@@QAE@ABViterator@?$_Tree@V?$_Tmap_traits@V?$vector@HV?$allocator@H@std@@@std@@JU?$less@V?$vector@HV?$allocator@H@std@@@std@@@2@V?$allocator@U?$pair@$$CBV?$vector@HV?$allocator@H@std@@@std@@J@std@@@2@$0A@@std@@@1@AB_N@Z 0044cd60 f i torq.obj
 0001:0004bdb0       ??0_Node@?$_Tree_nod@V?$_Tset_traits@JU?$less@J@std@@V?$allocator@J@2@$0A@@std@@@std@@QAE@PAU012@00ABJD@Z 0044cdb0 f i torq.obj
 0001:0004be20       ??0_Node@?$_Tree_nod@V?$_Tset_traits@V?$vector@HV?$allocator@H@std@@@std@@U?$less@V?$vector@HV?$allocator@H@std@@@std@@@2@V?$allocator@V?$vector@HV?$allocator@H@std@@@std@@@2@$0A@@std@@@std@@QAE@PAU012@00ABV?$vector@HV?$allocator@H@std@@@2@D@Z 0044ce20 f i torq.obj
 0001:0004bea0       ??0?$pair@Viterator@?$_Tree@V?$_Tmap_traits@V?$vector@HV?$allocator@H@std@@@std@@UNodeFormat@Helper@text@@U?$less@V?$vector@HV?$allocator@H@std@@@std@@@2@V?$allocator@U?$pair@$$CBV?$vector@HV?$allocator@H@std@@@std@@UNodeFormat@Helper@text@@@std@@@2@$0A@@std@@@std@@_N@std@@QAE@ABViterator@?$_Tree@V?$_Tmap_traits@V?$vector@HV?$allocator@H@std@@@std@@UNodeFormat@Helper@text@@U?$less@V?$vector@HV?$allocator@H@std@@@std@@@2@V?$allocator@U?$pair@$$CBV?$vector@HV?$allocator@H@std@@@std@@UNodeFormat@Helper@text@@@std@@@2@$0A@@std@@@1@AB_N@Z 0044cea0 f i torq.obj
 0001:0004bef0       ??0?$pair@Viterator@?$_Tree@V?$_Tmap_traits@JV?$vector@HV?$allocator@H@std@@@std@@U?$less@J@2@V?$allocator@U?$pair@$$CBJV?$vector@HV?$allocator@H@std@@@std@@@std@@@2@$0A@@std@@@std@@_N@std@@QAE@ABViterator@?$_Tree@V?$_Tmap_traits@JV?$vector@HV?$allocator@H@std@@@std@@U?$less@J@2@V?$allocator@U?$pair@$$CBJV?$vector@HV?$allocator@H@std@@@std@@@std@@@2@$0A@@std@@@1@AB_N@Z 0044cef0 f i torq.obj
 0001:0004bf40       ??Dconst_iterator@?$vector@Viterator@?$list@U?$pair@$$CBHV?$basic_string@DU?$char_traits@D@std@@V?$allocator@D@2@@std@@@std@@V?$allocator@U?$pair@$$CBHV?$basic_string@DU?$char_traits@D@std@@V?$allocator@D@2@@std@@@std@@@2@@std@@V?$allocator@Viterator@?$list@U?$pair@$$CBHV?$basic_string@DU?$char_traits@D@std@@V?$allocator@D@2@@std@@@std@@V?$allocator@U?$pair@$$CBHV?$basic_string@DU?$char_traits@D@std@@V?$allocator@D@2@@std@@@std@@@2@@std@@@3@@std@@QBEABViterator@?$list@U?$pair@$$CBHV?$basic_string@DU?$char_traits@D@std@@V?$allocator@D@2@@std@@@std@@V?$allocator@U?$pair@$$CBHV?$basic_string@DU?$char_traits@D@std@@V?$allocator@D@2@@std@@@std@@@2@@2@XZ 0044cf40 f i torq.obj
 0001:0004bf70       ??Hconst_iterator@?$vector@Viterator@?$list@U?$pair@$$CBHV?$basic_string@DU?$char_traits@D@std@@V?$allocator@D@2@@std@@@std@@V?$allocator@U?$pair@$$CBHV?$basic_string@DU?$char_traits@D@std@@V?$allocator@D@2@@std@@@std@@@2@@std@@V?$allocator@Viterator@?$list@U?$pair@$$CBHV?$basic_string@DU?$char_traits@D@std@@V?$allocator@D@2@@std@@@std@@V?$allocator@U?$pair@$$CBHV?$basic_string@DU?$char_traits@D@std@@V?$allocator@D@2@@std@@@std@@@2@@std@@@3@@std@@QBE?AV012@H@Z 0044cf70 f i torq.obj
 0001:0004c000       ??Diterator@?$vector@Viterator@?$list@U?$pair@$$CBJUNodeFormat@Helper@text@@@std@@V?$allocator@U?$pair@$$CBJUNodeFormat@Helper@text@@@std@@@2@@std@@V?$allocator@Viterator@?$list@U?$pair@$$CBJUNodeFormat@Helper@text@@@std@@V?$allocator@U?$pair@$$CBJUNodeFormat@Helper@text@@@std@@@2@@std@@@3@@std@@QBEAAV0?$list@U?$pair@$$CBJUNodeFormat@Helper@text@@@std@@V?$allocator@U?$pair@$$CBJUNodeFormat@Helper@text@@@std@@@2@@2@XZ 0044d000 f i torq.obj
 0001:0004c040       ??Hiterator@?$vector@Viterator@?$list@U?$pair@$$CBJUNodeFormat@Helper@text@@@std@@V?$allocator@U?$pair@$$CBJUNodeFormat@Helper@text@@@std@@@2@@std@@V?$allocator@Viterator@?$list@U?$pair@$$CBJUNodeFormat@Helper@text@@@std@@V?$allocator@U?$pair@$$CBJUNodeFormat@Helper@text@@@std@@@2@@std@@@3@@std@@QBE?AV012@H@Z 0044d040 f i torq.obj
 0001:0004c0d0       ??0out_of_range@std@@QAE@ABV01@@Z 0044d0d0 f i torq.obj
 0001:0004c130       ?allocate@?$_DebugHeapAllocator@D@std@@QAEPADI@Z 0044d130 f i torq.obj
 0001:0004c190       ?get_ptr_impl@?$optional_base@Vlocale@std@@@optional_detail@boost@@IAEPAVlocale@std@@XZ 0044d190 f i torq.obj
 0001:0004c1e0       ?begin@?$list@U?$pair@$$CBJUNodeFormat@Helper@text@@@std@@V?$allocator@U?$pair@$$CBJUNodeFormat@Helper@text@@@std@@@2@@std@@QAE?AViterator@12@XZ 0044d1e0 f i torq.obj
 0001:0004c240       ?max_size@?$list@U?$pair@$$CBJUNodeFormat@Helper@text@@@std@@V?$allocator@U?$pair@$$CBJUNodeFormat@Helper@text@@@std@@@2@@std@@QBEIXZ 0044d240 f i torq.obj
 0001:0004c290       ?erase@?$list@U?$pair@$$CBJUNodeFormat@Helper@text@@@std@@V?$allocator@U?$pair@$$CBJUNodeFormat@Helper@text@@@std@@@2@@std@@QAE?AViterator@12@V312@@Z 0044d290 f i torq.obj
 0001:0004c380       ?_Buynode@?$list@U?$pair@$$CBJUNodeFormat@Helper@text@@@std@@V?$allocator@U?$pair@$$CBJUNodeFormat@Helper@text@@@std@@@2@@std@@IAEPAU_Node@?$_List_nod@U?$pair@$$CBJUNodeFormat@Helper@text@@@std@@V?$allocator@U?$pair@$$CBJUNodeFormat@Helper@text@@@std@@@2@@2@PAU342@0ABU?$pair@$$CBJUNodeFormat@Helper@text@@@2@@Z 0044d380 f i torq.obj
 0001:0004c480       ??0?$_List_ptr@U?$pair@$$CBJUNodeFormat@Helper@text@@@std@@V?$allocator@U?$pair@$$CBJUNodeFormat@Helper@text@@@std@@@2@@std@@IAE@V?$allocator@U?$pair@$$CBJUNodeFormat@Helper@text@@@std@@@1@@Z 0044d480 f i torq.obj
 0001:0004c4e0       ?allocate@?$allocator@U_Node@?$_List_nod@U?$pair@$$CBJUNodeFormat@Helper@text@@@std@@V?$allocator@U?$pair@$$CBJUNodeFormat@Helper@text@@@std@@@2@@std@@@std@@QAEPAU_Node@?$_List_nod@U?$pair@$$CBJUNodeFormat@Helper@text@@@std@@V?$allocator@U?$pair@$$CBJUNodeFormat@Helper@text@@@std@@@2@@2@I@Z 0044d4e0 f i torq.obj
 0001:0004c530       ?destroy@?$allocator@U_Node@?$_List_nod@U?$pair@$$CBJUNodeFormat@Helper@text@@@std@@V?$allocator@U?$pair@$$CBJUNodeFormat@Helper@text@@@std@@@2@@std@@@std@@QAEXPAU_Node@?$_List_nod@U?$pair@$$CBJUNodeFormat@Helper@text@@@std@@V?$allocator@U?$pair@$$CBJUNodeFormat@Helper@text@@@std@@@2@@2@@Z 0044d530 f i torq.obj
 0001:0004c580       ?construct@?$allocator@PAU_Node@?$_List_nod@U?$pair@$$CBJUNodeFormat@Helper@text@@@std@@V?$allocator@U?$pair@$$CBJUNodeFormat@Helper@text@@@std@@@2@@std@@@std@@QAEXPAPAU_Node@?$_List_nod@U?$pair@$$CBJUNodeFormat@Helper@text@@@std@@V?$allocator@U?$pair@$$CBJUNodeFormat@Helper@text@@@std@@@2@@2@ABQAU342@@Z 0044d580 f i torq.obj
 0001:0004c5d0       ?capacity@?$vector@Viterator@?$list@U?$pair@$$CBJUNodeFormat@Helper@text@@@std@@V?$allocator@U?$pair@$$CBJUNodeFormat@Helper@text@@@std@@@2@@std@@V?$allocator@Viterator@?$list@U?$pair@$$CBJUNodeFormat@Helper@text@@@std@@V?$allocator@U?$pair@$$CBJUNodeFormat@Helper@text@@@std@@@2@@std@@@3@@std@@QBEIXZ 0044d5d0 f i torq.obj
 0001:0004c630       ?max_size@?$vector@Viterator@?$list@U?$pair@$$CBJUNodeFormat@Helper@text@@@std@@V?$allocator@U?$pair@$$CBJUNodeFormat@Helper@text@@@std@@@2@@std@@V?$allocator@Viterator@?$list@U?$pair@$$CBJUNodeFormat@Helper@text@@@std@@V?$allocator@U?$pair@$$CBJUNodeFormat@Helper@text@@@std@@@2@@std@@@3@@std@@QBEIXZ 0044d630 f i torq.obj
 0001:0004c670       ?_Buy@?$vector@Viterator@?$list@U?$pair@$$CBJUNodeFormat@Helper@text@@@std@@V?$allocator@U?$pair@$$CBJUNodeFormat@Helper@text@@@std@@@2@@std@@V?$allocator@Viterator@?$list@U?$pair@$$CBJUNodeFormat@Helper@text@@@std@@V?$allocator@U?$pair@$$CBJUNodeFormat@Helper@text@@@std@@@2@@std@@@3@@std@@IAE_NI@Z 0044d670 f i torq.obj
 0001:0004c720       ?_Ufill@?$vector@Viterator@?$list@U?$pair@$$CBJUNodeFormat@Helper@text@@@std@@V?$allocator@U?$pair@$$CBJUNodeFormat@Helper@text@@@std@@@2@@std@@V?$allocator@Viterator@?$list@U?$pair@$$CBJUNodeFormat@Helper@text@@@std@@V?$allocator@U?$pair@$$CBJUNodeFormat@Helper@text@@@std@@@2@@std@@@3@@std@@IAEPAViterator@?$list@U?$pair@$$CBJUNodeFormat@Helper@text@@@std@@V?$allocator@U?$pair@$$CBJUNodeFormat@Helper@text@@@std@@@2@@2@PAV342@IABV342@@Z 0044d720 f i torq.obj
 0001:0004c780       ?_Xlen@?$vector@Viterator@?$list@U?$pair@$$CBJUNodeFormat@Helper@text@@@std@@V?$allocator@U?$pair@$$CBJUNodeFormat@Helper@text@@@std@@@2@@std@@V?$allocator@Viterator@?$list@U?$pair@$$CBJUNodeFormat@Helper@text@@@std@@V?$allocator@U?$pair@$$CBJUNodeFormat@Helper@text@@@std@@@2@@std@@@3@@std@@IBEXXZ 0044d780 f i torq.obj
 0001:0004c810       ?allocate@?$allocator@Viterator@?$list@U?$pair@$$CBJUNodeFormat@Helper@text@@@std@@V?$allocator@U?$pair@$$CBJUNodeFormat@Helper@text@@@std@@@2@@std@@@std@@QAEPAViterator@?$list@U?$pair@$$CBJUNodeFormat@Helper@text@@@std@@V?$allocator@U?$pair@$$CBJUNodeFormat@Helper@text@@@std@@@2@@2@I@Z 0044d810 f i torq.obj
 0001:0004c860       ?_Erase@?$_Tree@V?$_Tmap_traits@V?$vector@HV?$allocator@H@std@@@std@@VTokenSequence@text@@U?$less@V?$vector@HV?$allocator@H@std@@@std@@@2@V?$allocator@U?$pair@$$CBV?$vector@HV?$allocator@H@std@@@std@@VTokenSequence@text@@@std@@@2@$0A@@std@@@std@@IAEXPAU_Node@?$_Tree_nod@V?$_Tmap_traits@V?$vector@HV?$allocator@H@std@@@std@@VTokenSequence@text@@U?$less@V?$vector@HV?$allocator@H@std@@@std@@@2@V?$allocator@U?$pair@$$CBV?$vector@HV?$allocator@H@std@@@std@@VTokenSequence@text@@@std@@@2@$0A@@std@@@2@@Z 0044d860 f i torq.obj
 0001:0004c910       ?_Max@?$_Tree@V?$_Tmap_traits@V?$vector@HV?$allocator@H@std@@@std@@VTokenSequence@text@@U?$less@V?$vector@HV?$allocator@H@std@@@std@@@2@V?$allocator@U?$pair@$$CBV?$vector@HV?$allocator@H@std@@@std@@VTokenSequence@text@@@std@@@2@$0A@@std@@@std@@KAPAU_Node@?$_Tree_nod@V?$_Tmap_traits@V?$vector@HV?$allocator@H@std@@@std@@VTokenSequence@text@@U?$less@V?$vector@HV?$allocator@H@std@@@std@@@2@V?$allocator@U?$pair@$$CBV?$vector@HV?$allocator@H@std@@@std@@VTokenSequence@text@@@std@@@2@$0A@@std@@@2@PAU342@@Z 0044d910 f i torq.obj
 0001:0004c980       ?_Min@?$_Tree@V?$_Tmap_traits@V?$vector@HV?$allocator@H@std@@@std@@VTokenSequence@text@@U?$less@V?$vector@HV?$allocator@H@std@@@std@@@2@V?$allocator@U?$pair@$$CBV?$vector@HV?$allocator@H@std@@@std@@VTokenSequence@text@@@std@@@2@$0A@@std@@@std@@KAPAU_Node@?$_Tree_nod@V?$_Tmap_traits@V?$vector@HV?$allocator@H@std@@@std@@VTokenSequence@text@@U?$less@V?$vector@HV?$allocator@H@std@@@std@@@2@V?$allocator@U?$pair@$$CBV?$vector@HV?$allocator@H@std@@@std@@VTokenSequence@text@@@std@@@2@$0A@@std@@@2@PAU342@@Z 0044d980 f i torq.obj
 0001:0004c9f0       ??0?$_Tree_nod@V?$_Tmap_traits@V?$vector@HV?$allocator@H@std@@@std@@VTokenSequence@text@@U?$less@V?$vector@HV?$allocator@H@std@@@std@@@2@V?$allocator@U?$pair@$$CBV?$vector@HV?$allocator@H@std@@@std@@VTokenSequence@text@@@std@@@2@$0A@@std@@@std@@IAE@ABU?$less@V?$vector@HV?$allocator@H@std@@@std@@@1@V?$allocator@U?$pair@$$CBV?$vector@HV?$allocator@H@std@@@std@@VTokenSequence@text@@@std@@@1@@Z 0044d9f0 f i torq.obj
 0001:0004ca50       ?max_size@?$allocator@U?$pair@$$CBV?$vector@HV?$allocator@H@std@@@std@@VTokenSequence@text@@@std@@@std@@QBEIXZ 0044da50 f i torq.obj
 0001:0004cab0       ?allocate@?$allocator@U_Node@?$_Tree_nod@V?$_Tmap_traits@V?$vector@HV?$allocator@H@std@@@std@@VTokenSequence@text@@U?$less@V?$vector@HV?$allocator@H@std@@@std@@@2@V?$allocator@U?$pair@$$CBV?$vector@HV?$allocator@H@std@@@std@@VTokenSequence@text@@@std@@@2@$0A@@std@@@std@@@std@@QAEPAU_Node@?$_Tree_nod@V?$_Tmap_traits@V?$vector@HV?$allocator@H@std@@@std@@VTokenSequence@text@@U?$less@V?$vector@HV?$allocator@H@std@@@std@@@2@V?$allocator@U?$pair@$$CBV?$vector@HV?$allocator@H@std@@@std@@VTokenSequence@text@@@std@@@2@$0A@@std@@@2@I@Z 0044dab0 f i torq.obj
 0001:0004cb00       ?destroy@?$allocator@U_Node@?$_Tree_nod@V?$_Tmap_traits@V?$vector@HV?$allocator@H@std@@@std@@VTokenSequence@text@@U?$less@V?$vector@HV?$allocator@H@std@@@std@@@2@V?$allocator@U?$pair@$$CBV?$vector@HV?$allocator@H@std@@@std@@VTokenSequence@text@@@std@@@2@$0A@@std@@@std@@@std@@QAEXPAU_Node@?$_Tree_nod@V?$_Tmap_traits@V?$vector@HV?$allocator@H@std@@@std@@VTokenSequence@text@@U?$less@V?$vector@HV?$allocator@H@std@@@std@@@2@V?$allocator@U?$pair@$$CBV?$vector@HV?$allocator@H@std@@@std@@VTokenSequence@text@@@std@@@2@$0A@@std@@@2@@Z 0044db00 f i torq.obj
 0001:0004cb50       ?construct@?$allocator@PAU_Node@?$_Tree_nod@V?$_Tmap_traits@V?$vector@HV?$allocator@H@std@@@std@@VTokenSequence@text@@U?$less@V?$vector@HV?$allocator@H@std@@@std@@@2@V?$allocator@U?$pair@$$CBV?$vector@HV?$allocator@H@std@@@std@@VTokenSequence@text@@@std@@@2@$0A@@std@@@std@@@std@@QAEXPAPAU_Node@?$_Tree_nod@V?$_Tmap_traits@V?$vector@HV?$allocator@H@std@@@std@@VTokenSequence@text@@U?$less@V?$vector@HV?$allocator@H@std@@@std@@@2@V?$allocator@U?$pair@$$CBV?$vector@HV?$allocator@H@std@@@std@@VTokenSequence@text@@@std@@@2@$0A@@std@@@2@ABQAU342@@Z 0044db50 f i torq.obj
 0001:0004cba0       ?_Erase@?$_Tree@V?$_Tmap_traits@V?$vector@HV?$allocator@H@std@@@std@@JU?$less@V?$vector@HV?$allocator@H@std@@@std@@@2@V?$allocator@U?$pair@$$CBV?$vector@HV?$allocator@H@std@@@std@@J@std@@@2@$0A@@std@@@std@@IAEXPAU_Node@?$_Tree_nod@V?$_Tmap_traits@V?$vector@HV?$allocator@H@std@@@std@@JU?$less@V?$vector@HV?$allocator@H@std@@@std@@@2@V?$allocator@U?$pair@$$CBV?$vector@HV?$allocator@H@std@@@std@@J@std@@@2@$0A@@std@@@2@@Z 0044dba0 f i torq.obj
 0001:0004cc50       ?_Max@?$_Tree@V?$_Tmap_traits@V?$vector@HV?$allocator@H@std@@@std@@JU?$less@V?$vector@HV?$allocator@H@std@@@std@@@2@V?$allocator@U?$pair@$$CBV?$vector@HV?$allocator@H@std@@@std@@J@std@@@2@$0A@@std@@@std@@KAPAU_Node@?$_Tree_nod@V?$_Tmap_traits@V?$vector@HV?$allocator@H@std@@@std@@JU?$less@V?$vector@HV?$allocator@H@std@@@std@@@2@V?$allocator@U?$pair@$$CBV?$vector@HV?$allocator@H@std@@@std@@J@std@@@2@$0A@@std@@@2@PAU342@@Z 0044dc50 f i torq.obj
 0001:0004ccc0       ?_Min@?$_Tree@V?$_Tmap_traits@V?$vector@HV?$allocator@H@std@@@std@@JU?$less@V?$vector@HV?$allocator@H@std@@@std@@@2@V?$allocator@U?$pair@$$CBV?$vector@HV?$allocator@H@std@@@std@@J@std@@@2@$0A@@std@@@std@@KAPAU_Node@?$_Tree_nod@V?$_Tmap_traits@V?$vector@HV?$allocator@H@std@@@std@@JU?$less@V?$vector@HV?$allocator@H@std@@@std@@@2@V?$allocator@U?$pair@$$CBV?$vector@HV?$allocator@H@std@@@std@@J@std@@@2@$0A@@std@@@2@PAU342@@Z 0044dcc0 f i torq.obj
 0001:0004cd30       ??0?$_Tree_nod@V?$_Tmap_traits@V?$vector@HV?$allocator@H@std@@@std@@JU?$less@V?$vector@HV?$allocator@H@std@@@std@@@2@V?$allocator@U?$pair@$$CBV?$vector@HV?$allocator@H@std@@@std@@J@std@@@2@$0A@@std@@@std@@IAE@ABU?$less@V?$vector@HV?$allocator@H@std@@@std@@@1@V?$allocator@U?$pair@$$CBV?$vector@HV?$allocator@H@std@@@std@@J@std@@@1@@Z 0044dd30 f i torq.obj
 0001:0004cd90       ?max_size@?$allocator@U?$pair@$$CBV?$vector@HV?$allocator@H@std@@@std@@J@std@@@std@@QBEIXZ 0044dd90 f i torq.obj
 0001:0004cdf0       ?allocate@?$allocator@U_Node@?$_Tree_nod@V?$_Tmap_traits@V?$vector@HV?$allocator@H@std@@@std@@JU?$less@V?$vector@HV?$allocator@H@std@@@std@@@2@V?$allocator@U?$pair@$$CBV?$vector@HV?$allocator@H@std@@@std@@J@std@@@2@$0A@@std@@@std@@@std@@QAEPAU_Node@?$_Tree_nod@V?$_Tmap_traits@V?$vector@HV?$allocator@H@std@@@std@@JU?$less@V?$vector@HV?$allocator@H@std@@@std@@@2@V?$allocator@U?$pair@$$CBV?$vector@HV?$allocator@H@std@@@std@@J@std@@@2@$0A@@std@@@2@I@Z 0044ddf0 f i torq.obj
 0001:0004ce40       ?destroy@?$allocator@U_Node@?$_Tree_nod@V?$_Tmap_traits@V?$vector@HV?$allocator@H@std@@@std@@JU?$less@V?$vector@HV?$allocator@H@std@@@std@@@2@V?$allocator@U?$pair@$$CBV?$vector@HV?$allocator@H@std@@@std@@J@std@@@2@$0A@@std@@@std@@@std@@QAEXPAU_Node@?$_Tree_nod@V?$_Tmap_traits@V?$vector@HV?$allocator@H@std@@@std@@JU?$less@V?$vector@HV?$allocator@H@std@@@std@@@2@V?$allocator@U?$pair@$$CBV?$vector@HV?$allocator@H@std@@@std@@J@std@@@2@$0A@@std@@@2@@Z 0044de40 f i torq.obj
 0001:0004ce90       ?construct@?$allocator@PAU_Node@?$_Tree_nod@V?$_Tmap_traits@V?$vector@HV?$allocator@H@std@@@std@@JU?$less@V?$vector@HV?$allocator@H@std@@@std@@@2@V?$allocator@U?$pair@$$CBV?$vector@HV?$allocator@H@std@@@std@@J@std@@@2@$0A@@std@@@std@@@std@@QAEXPAPAU_Node@?$_Tree_nod@V?$_Tmap_traits@V?$vector@HV?$allocator@H@std@@@std@@JU?$less@V?$vector@HV?$allocator@H@std@@@std@@@2@V?$allocator@U?$pair@$$CBV?$vector@HV?$allocator@H@std@@@std@@J@std@@@2@$0A@@std@@@2@ABQAU342@@Z 0044de90 f i torq.obj
 0001:0004cee0       ?_Erase@?$_Tree@V?$_Tset_traits@JU?$less@J@std@@V?$allocator@J@2@$0A@@std@@@std@@IAEXPAU_Node@?$_Tree_nod@V?$_Tset_traits@JU?$less@J@std@@V?$allocator@J@2@$0A@@std@@@2@@Z 0044dee0 f i torq.obj
 0001:0004cf90       ?_Max@?$_Tree@V?$_Tset_traits@JU?$less@J@std@@V?$allocator@J@2@$0A@@std@@@std@@KAPAU_Node@?$_Tree_nod@V?$_Tset_traits@JU?$less@J@std@@V?$allocator@J@2@$0A@@std@@@2@PAU342@@Z 0044df90 f i torq.obj
 0001:0004d000       ??0?$_Tree_nod@V?$_Tset_traits@JU?$less@J@std@@V?$allocator@J@2@$0A@@std@@@std@@IAE@ABU?$less@J@1@V?$allocator@J@1@@Z 0044e000 f i torq.obj
 0001:0004d060       ?destroy@?$allocator@U_Node@?$_Tree_nod@V?$_Tset_traits@JU?$less@J@std@@V?$allocator@J@2@$0A@@std@@@std@@@std@@QAEXPAU_Node@?$_Tree_nod@V?$_Tset_traits@JU?$less@J@std@@V?$allocator@J@2@$0A@@std@@@2@@Z 0044e060 f i torq.obj
 0001:0004d0b0       ?construct@?$allocator@PAU_Node@?$_Tree_nod@V?$_Tset_traits@JU?$less@J@std@@V?$allocator@J@2@$0A@@std@@@std@@@std@@QAEXPAPAU_Node@?$_Tree_nod@V?$_Tset_traits@JU?$less@J@std@@V?$allocator@J@2@$0A@@std@@@2@ABQAU342@@Z 0044e0b0 f i torq.obj
 0001:0004d100       ??Eiterator@?$_Tree@V?$_Tset_traits@JU?$less@J@std@@V?$allocator@J@2@$0A@@std@@@std@@QAEAAV012@XZ 0044e100 f i torq.obj
 0001:0004d150       ?_Erase@?$_Tree@V?$_Tset_traits@V?$vector@HV?$allocator@H@std@@@std@@U?$less@V?$vector@HV?$allocator@H@std@@@std@@@2@V?$allocator@V?$vector@HV?$allocator@H@std@@@std@@@2@$0A@@std@@@std@@IAEXPAU_Node@?$_Tree_nod@V?$_Tset_traits@V?$vector@HV?$allocator@H@std@@@std@@U?$less@V?$vector@HV?$allocator@H@std@@@std@@@2@V?$allocator@V?$vector@HV?$allocator@H@std@@@std@@@2@$0A@@std@@@2@@Z 0044e150 f i torq.obj
 0001:0004d200       ?_Max@?$_Tree@V?$_Tset_traits@V?$vector@HV?$allocator@H@std@@@std@@U?$less@V?$vector@HV?$allocator@H@std@@@std@@@2@V?$allocator@V?$vector@HV?$allocator@H@std@@@std@@@2@$0A@@std@@@std@@KAPAU_Node@?$_Tree_nod@V?$_Tset_traits@V?$vector@HV?$allocator@H@std@@@std@@U?$less@V?$vector@HV?$allocator@H@std@@@std@@@2@V?$allocator@V?$vector@HV?$allocator@H@std@@@std@@@2@$0A@@std@@@2@PAU342@@Z 0044e200 f i torq.obj
 0001:0004d270       ??0?$_Tree_nod@V?$_Tset_traits@V?$vector@HV?$allocator@H@std@@@std@@U?$less@V?$vector@HV?$allocator@H@std@@@std@@@2@V?$allocator@V?$vector@HV?$allocator@H@std@@@std@@@2@$0A@@std@@@std@@IAE@ABU?$less@V?$vector@HV?$allocator@H@std@@@std@@@1@V?$allocator@V?$vector@HV?$allocator@H@std@@@std@@@1@@Z 0044e270 f i torq.obj
 0001:0004d2d0       ?destroy@?$allocator@U_Node@?$_Tree_nod@V?$_Tset_traits@V?$vector@HV?$allocator@H@std@@@std@@U?$less@V?$vector@HV?$allocator@H@std@@@std@@@2@V?$allocator@V?$vector@HV?$allocator@H@std@@@std@@@2@$0A@@std@@@std@@@std@@QAEXPAU_Node@?$_Tree_nod@V?$_Tset_traits@V?$vector@HV?$allocator@H@std@@@std@@U?$less@V?$vector@HV?$allocator@H@std@@@std@@@2@V?$allocator@V?$vector@HV?$allocator@H@std@@@std@@@2@$0A@@std@@@2@@Z 0044e2d0 f i torq.obj
 0001:0004d320       ?construct@?$allocator@PAU_Node@?$_Tree_nod@V?$_Tset_traits@V?$vector@HV?$allocator@H@std@@@std@@U?$less@V?$vector@HV?$allocator@H@std@@@std@@@2@V?$allocator@V?$vector@HV?$allocator@H@std@@@std@@@2@$0A@@std@@@std@@@std@@QAEXPAPAU_Node@?$_Tree_nod@V?$_Tset_traits@V?$vector@HV?$allocator@H@std@@@std@@U?$less@V?$vector@HV?$allocator@H@std@@@std@@@2@V?$allocator@V?$vector@HV?$allocator@H@std@@@std@@@2@$0A@@std@@@2@ABQAU342@@Z 0044e320 f i torq.obj
 0001:0004d370       ??Eiterator@?$_Tree@V?$_Tset_traits@V?$vector@HV?$allocator@H@std@@@std@@U?$less@V?$vector@HV?$allocator@H@std@@@std@@@2@V?$allocator@V?$vector@HV?$allocator@H@std@@@std@@@2@$0A@@std@@@std@@QAEAAV012@XZ 0044e370 f i torq.obj
 0001:0004d3c0       ?_Dec@const_iterator@?$_Tree@V?$_Tmap_traits@V?$vector@HV?$allocator@H@std@@@std@@JU?$less@V?$vector@HV?$allocator@H@std@@@std@@@2@V?$allocator@U?$pair@$$CBV?$vector@HV?$allocator@H@std@@@std@@J@std@@@2@$0A@@std@@@std@@QAEXXZ 0044e3c0 f i torq.obj
 0001:0004d4d0       ?_Inc@const_iterator@?$_Tree@V?$_Tmap_traits@V?$vector@HV?$allocator@H@std@@@std@@JU?$less@V?$vector@HV?$allocator@H@std@@@std@@@2@V?$allocator@U?$pair@$$CBV?$vector@HV?$allocator@H@std@@@std@@J@std@@@2@$0A@@std@@@std@@QAEXXZ 0044e4d0 f i torq.obj
 0001:0004d5b0       ?_Dec@const_iterator@?$_Tree@V?$_Tmap_traits@V?$vector@HV?$allocator@H@std@@@std@@VTokenSequence@text@@U?$less@V?$vector@HV?$allocator@H@std@@@std@@@2@V?$allocator@U?$pair@$$CBV?$vector@HV?$allocator@H@std@@@std@@VTokenSequence@text@@@std@@@2@$0A@@std@@@std@@QAEXXZ 0044e5b0 f i torq.obj
 0001:0004d6c0       ?_Inc@const_iterator@?$_Tree@V?$_Tmap_traits@V?$vector@HV?$allocator@H@std@@@std@@VTokenSequence@text@@U?$less@V?$vector@HV?$allocator@H@std@@@std@@@2@V?$allocator@U?$pair@$$CBV?$vector@HV?$allocator@H@std@@@std@@VTokenSequence@text@@@std@@@2@$0A@@std@@@std@@QAEXXZ 0044e6c0 f i torq.obj
 0001:0004d7a0       ?_Max@?$_Tree@V?$_Tmap_traits@V?$vector@HV?$allocator@H@std@@@std@@UNodeFormat@Helper@text@@U?$less@V?$vector@HV?$allocator@H@std@@@std@@@2@V?$allocator@U?$pair@$$CBV?$vector@HV?$allocator@H@std@@@std@@UNodeFormat@Helper@text@@@std@@@2@$0A@@std@@@std@@KAPAU_Node@?$_Tree_nod@V?$_Tmap_traits@V?$vector@HV?$allocator@H@std@@@std@@UNodeFormat@Helper@text@@U?$less@V?$vector@HV?$allocator@H@std@@@std@@@2@V?$allocator@U?$pair@$$CBV?$vector@HV?$allocator@H@std@@@std@@UNodeFormat@Helper@text@@@std@@@2@$0A@@std@@@2@PAU342@@Z 0044e7a0 f i torq.obj
 0001:0004d810       ??0?$_Tree_nod@V?$_Tmap_traits@V?$vector@HV?$allocator@H@std@@@std@@UNodeFormat@Helper@text@@U?$less@V?$vector@HV?$allocator@H@std@@@std@@@2@V?$allocator@U?$pair@$$CBV?$vector@HV?$allocator@H@std@@@std@@UNodeFormat@Helper@text@@@std@@@2@$0A@@std@@@std@@IAE@ABU?$less@V?$vector@HV?$allocator@H@std@@@std@@@1@V?$allocator@U?$pair@$$CBV?$vector@HV?$allocator@H@std@@@std@@UNodeFormat@Helper@text@@@std@@@1@@Z 0044e810 f i torq.obj
 0001:0004d870       ?max_size@?$allocator@U?$pair@$$CBV?$vector@HV?$allocator@H@std@@@std@@UNodeFormat@Helper@text@@@std@@@std@@QBEIXZ 0044e870 f i torq.obj
 0001:0004d8d0       ?allocate@?$allocator@U_Node@?$_Tree_nod@V?$_Tmap_traits@V?$vector@HV?$allocator@H@std@@@std@@UNodeFormat@Helper@text@@U?$less@V?$vector@HV?$allocator@H@std@@@std@@@2@V?$allocator@U?$pair@$$CBV?$vector@HV?$allocator@H@std@@@std@@UNodeFormat@Helper@text@@@std@@@2@$0A@@std@@@std@@@std@@QAEPAU_Node@?$_Tree_nod@V?$_Tmap_traits@V?$vector@HV?$allocator@H@std@@@std@@UNodeFormat@Helper@text@@U?$less@V?$vector@HV?$allocator@H@std@@@std@@@2@V?$allocator@U?$pair@$$CBV?$vector@HV?$allocator@H@std@@@std@@UNodeFormat@Helper@text@@@std@@@2@$0A@@std@@@2@I@Z 0044e8d0 f i torq.obj
 0001:0004d920       ?construct@?$allocator@PAU_Node@?$_Tree_nod@V?$_Tmap_traits@V?$vector@HV?$allocator@H@std@@@std@@UNodeFormat@Helper@text@@U?$less@V?$vector@HV?$allocator@H@std@@@std@@@2@V?$allocator@U?$pair@$$CBV?$vector@HV?$allocator@H@std@@@std@@UNodeFormat@Helper@text@@@std@@@2@$0A@@std@@@std@@@std@@QAEXPAPAU_Node@?$_Tree_nod@V?$_Tmap_traits@V?$vector@HV?$allocator@H@std@@@std@@UNodeFormat@Helper@text@@U?$less@V?$vector@HV?$allocator@H@std@@@std@@@2@V?$allocator@U?$pair@$$CBV?$vector@HV?$allocator@H@std@@@std@@UNodeFormat@Helper@text@@@std@@@2@$0A@@std@@@2@ABQAU342@@Z 0044e920 f i torq.obj
 0001:0004d970       ?_Dec@const_iterator@?$_Tree@V?$_Tmap_traits@V?$vector@HV?$allocator@H@std@@@std@@UNodeFormat@Helper@text@@U?$less@V?$vector@HV?$allocator@H@std@@@std@@@2@V?$allocator@U?$pair@$$CBV?$vector@HV?$allocator@H@std@@@std@@UNodeFormat@Helper@text@@@std@@@2@$0A@@std@@@std@@QAEXXZ 0044e970 f i torq.obj
 0001:0004da80       ?_Erase@?$_Tree@V?$_Tmap_traits@JV?$vector@HV?$allocator@H@std@@@std@@U?$less@J@2@V?$allocator@U?$pair@$$CBJV?$vector@HV?$allocator@H@std@@@std@@@std@@@2@$0A@@std@@@std@@IAEXPAU_Node@?$_Tree_nod@V?$_Tmap_traits@JV?$vector@HV?$allocator@H@std@@@std@@U?$less@J@2@V?$allocator@U?$pair@$$CBJV?$vector@HV?$allocator@H@std@@@std@@@std@@@2@$0A@@std@@@2@@Z 0044ea80 f i torq.obj
 0001:0004db30       ??0?$_Tree_nod@V?$_Tmap_traits@JV?$vector@HV?$allocator@H@std@@@std@@U?$less@J@2@V?$allocator@U?$pair@$$CBJV?$vector@HV?$allocator@H@std@@@std@@@std@@@2@$0A@@std@@@std@@IAE@ABU?$less@J@1@V?$allocator@U?$pair@$$CBJV?$vector@HV?$allocator@H@std@@@std@@@std@@@1@@Z 0044eb30 f i torq.obj
 0001:0004db90       ?max_size@?$allocator@U?$pair@$$CBJV?$vector@HV?$allocator@H@std@@@std@@@std@@@std@@QBEIXZ 0044eb90 f i torq.obj
 0001:0004dbf0       ?allocate@?$allocator@U_Node@?$_Tree_nod@V?$_Tmap_traits@JV?$vector@HV?$allocator@H@std@@@std@@U?$less@J@2@V?$allocator@U?$pair@$$CBJV?$vector@HV?$allocator@H@std@@@std@@@std@@@2@$0A@@std@@@std@@@std@@QAEPAU_Node@?$_Tree_nod@V?$_Tmap_traits@JV?$vector@HV?$allocator@H@std@@@std@@U?$less@J@2@V?$allocator@U?$pair@$$CBJV?$vector@HV?$allocator@H@std@@@std@@@std@@@2@$0A@@std@@@2@I@Z 0044ebf0 f i torq.obj
 0001:0004dc40       ?destroy@?$allocator@U_Node@?$_Tree_nod@V?$_Tmap_traits@JV?$vector@HV?$allocator@H@std@@@std@@U?$less@J@2@V?$allocator@U?$pair@$$CBJV?$vector@HV?$allocator@H@std@@@std@@@std@@@2@$0A@@std@@@std@@@std@@QAEXPAU_Node@?$_Tree_nod@V?$_Tmap_traits@JV?$vector@HV?$allocator@H@std@@@std@@U?$less@J@2@V?$allocator@U?$pair@$$CBJV?$vector@HV?$allocator@H@std@@@std@@@std@@@2@$0A@@std@@@2@@Z 0044ec40 f i torq.obj
 0001:0004dc90       ?construct@?$allocator@PAU_Node@?$_Tree_nod@V?$_Tmap_traits@JV?$vector@HV?$allocator@H@std@@@std@@U?$less@J@2@V?$allocator@U?$pair@$$CBJV?$vector@HV?$allocator@H@std@@@std@@@std@@@2@$0A@@std@@@std@@@std@@QAEXPAPAU_Node@?$_Tree_nod@V?$_Tmap_traits@JV?$vector@HV?$allocator@H@std@@@std@@U?$less@J@2@V?$allocator@U?$pair@$$CBJV?$vector@HV?$allocator@H@std@@@std@@@std@@@2@$0A@@std@@@2@ABQAU342@@Z 0044ec90 f i torq.obj
 0001:0004dce0       ?_Dec@const_iterator@?$_Tree@V?$_Tmap_traits@JV?$vector@HV?$allocator@H@std@@@std@@U?$less@J@2@V?$allocator@U?$pair@$$CBJV?$vector@HV?$allocator@H@std@@@std@@@std@@@2@$0A@@std@@@std@@QAEXXZ 0044ece0 f i torq.obj
 0001:0004ddf0       ??8const_iterator@?$vector@PBDV?$allocator@PBD@std@@@std@@QBE_NABV012@@Z 0044edf0 f i torq.obj
 0001:0004de30       ??8const_iterator@?$vector@DV?$allocator@D@std@@@std@@QBE_NABV012@@Z 0044ee30 f i torq.obj
 0001:0004de70       ??8const_iterator@?$vector@JV?$allocator@J@std@@@std@@QBE_NABV012@@Z 0044ee70 f i torq.obj
 0001:0004deb0       ??8const_iterator@?$vector@U?$pair@_NUNodeFormatI@Helper@text@@@std@@V?$allocator@U?$pair@_NUNodeFormatI@Helper@text@@@std@@@2@@std@@QBE_NABV012@@Z 0044eeb0 f i torq.obj
 0001:0004def0       ??8const_iterator@?$vector@UTSL@Interpreter@@V?$allocator@UTSL@Interpreter@@@std@@@std@@QBE_NABV012@@Z 0044eef0 f i torq.obj
 0001:0004df30       ??0const_iterator@?$vector@Viterator@?$list@U?$pair@$$CBHV?$basic_string@DU?$char_traits@D@std@@V?$allocator@D@2@@std@@@std@@V?$allocator@U?$pair@$$CBHV?$basic_string@DU?$char_traits@D@std@@V?$allocator@D@2@@std@@@std@@@2@@std@@V?$allocator@Viterator@?$list@U?$pair@$$CBHV?$basic_string@DU?$char_traits@D@std@@V?$allocator@D@2@@std@@@std@@V?$allocator@U?$pair@$$CBHV?$basic_string@DU?$char_traits@D@std@@V?$allocator@D@2@@std@@@std@@@2@@std@@@3@@std@@QAE@PAViterator@?$list@U?$pair@$$CBHV?$basic_string@DU?$char_traits@D@std@@V?$allocator@D@2@@std@@@std@@V?$allocator@U?$pair@$$CBHV?$basic_string@DU?$char_traits@D@std@@V?$allocator@D@2@@std@@@std@@@2@@2@@Z 0044ef30 f i torq.obj
 0001:0004df70       ??Yconst_iterator@?$vector@Viterator@?$list@U?$pair@$$CBHV?$basic_string@DU?$char_traits@D@std@@V?$allocator@D@2@@std@@@std@@V?$allocator@U?$pair@$$CBHV?$basic_string@DU?$char_traits@D@std@@V?$allocator@D@2@@std@@@std@@@2@@std@@V?$allocator@Viterator@?$list@U?$pair@$$CBHV?$basic_string@DU?$char_traits@D@std@@V?$allocator@D@2@@std@@@std@@V?$allocator@U?$pair@$$CBHV?$basic_string@DU?$char_traits@D@std@@V?$allocator@D@2@@std@@@std@@@2@@std@@@3@@std@@QAEAAV012@H@Z 0044ef70 f i torq.obj
 0001:0004dfb0       ??0iterator@?$vector@Viterator@?$list@U?$pair@$$CBJUNodeFormat@Helper@text@@@std@@V?$allocator@U?$pair@$$CBJUNodeFormat@Helper@text@@@std@@@2@@std@@V?$allocator@Viterator@?$list@U?$pair@$$CBJUNodeFormat@Helper@text@@@std@@V?$allocator@U?$pair@$$CBJUNodeFormat@Helper@text@@@std@@@2@@std@@@3@@std@@QAE@PAV0?$list@U?$pair@$$CBJUNodeFormat@Helper@text@@@std@@V?$allocator@U?$pair@$$CBJUNodeFormat@Helper@text@@@std@@@2@@2@@Z 0044efb0 f i torq.obj
 0001:0004e000       ??Yiterator@?$vector@Viterator@?$list@U?$pair@$$CBJUNodeFormat@Helper@text@@@std@@V?$allocator@U?$pair@$$CBJUNodeFormat@Helper@text@@@std@@@2@@std@@V?$allocator@Viterator@?$list@U?$pair@$$CBJUNodeFormat@Helper@text@@@std@@V?$allocator@U?$pair@$$CBJUNodeFormat@Helper@text@@@std@@@2@@std@@@3@@std@@QAEAAV012@H@Z 0044f000 f i torq.obj
 0001:0004e040       ??Dconst_iterator@?$vector@Viterator@?$list@U?$pair@$$CBJUNodeFormat@Helper@text@@@std@@V?$allocator@U?$pair@$$CBJUNodeFormat@Helper@text@@@std@@@2@@std@@V?$allocator@Viterator@?$list@U?$pair@$$CBJUNodeFormat@Helper@text@@@std@@V?$allocator@U?$pair@$$CBJUNodeFormat@Helper@text@@@std@@@2@@std@@@3@@std@@QBEABViterator@?$list@U?$pair@$$CBJUNodeFormat@Helper@text@@@std@@V?$allocator@U?$pair@$$CBJUNodeFormat@Helper@text@@@std@@@2@@2@XZ 0044f040 f i torq.obj
 0001:0004e070       ??9const_iterator@?$vector@Viterator@?$list@U?$pair@$$CBJUNodeFormat@Helper@text@@@std@@V?$allocator@U?$pair@$$CBJUNodeFormat@Helper@text@@@std@@@2@@std@@V?$allocator@Viterator@?$list@U?$pair@$$CBJUNodeFormat@Helper@text@@@std@@V?$allocator@U?$pair@$$CBJUNodeFormat@Helper@text@@@std@@@2@@std@@@3@@std@@QBE_NABV012@@Z 0044f070 f i torq.obj
 0001:0004e0c0       ??0_Node@?$_Tree_nod@V?$_Tmap_traits@V?$vector@HV?$allocator@H@std@@@std@@VTokenSequence@text@@U?$less@V?$vector@HV?$allocator@H@std@@@std@@@2@V?$allocator@U?$pair@$$CBV?$vector@HV?$allocator@H@std@@@std@@VTokenSequence@text@@@std@@@2@$0A@@std@@@std@@QAE@PAU012@00ABU?$pair@$$CBV?$vector@HV?$allocator@H@std@@@std@@VTokenSequence@text@@@2@D@Z 0044f0c0 f i torq.obj
 0001:0004e140       ??0_Node@?$_Tree_nod@V?$_Tmap_traits@V?$vector@HV?$allocator@H@std@@@std@@JU?$less@V?$vector@HV?$allocator@H@std@@@std@@@2@V?$allocator@U?$pair@$$CBV?$vector@HV?$allocator@H@std@@@std@@J@std@@@2@$0A@@std@@@std@@QAE@PAU012@00ABU?$pair@$$CBV?$vector@HV?$allocator@H@std@@@std@@J@2@D@Z 0044f140 f i torq.obj
 0001:0004e1c0       ??0_Node@?$_Tree_nod@V?$_Tmap_traits@V?$vector@HV?$allocator@H@std@@@std@@UNodeFormat@Helper@text@@U?$less@V?$vector@HV?$allocator@H@std@@@std@@@2@V?$allocator@U?$pair@$$CBV?$vector@HV?$allocator@H@std@@@std@@UNodeFormat@Helper@text@@@std@@@2@$0A@@std@@@std@@QAE@PAU012@00ABU?$pair@$$CBV?$vector@HV?$allocator@H@std@@@std@@UNodeFormat@Helper@text@@@2@D@Z 0044f1c0 f i torq.obj
 0001:0004e240       ??0_Node@?$_Tree_nod@V?$_Tmap_traits@JV?$vector@HV?$allocator@H@std@@@std@@U?$less@J@2@V?$allocator@U?$pair@$$CBJV?$vector@HV?$allocator@H@std@@@std@@@std@@@2@$0A@@std@@@std@@QAE@PAU012@00ABU?$pair@$$CBJV?$vector@HV?$allocator@H@std@@@std@@@2@D@Z 0044f240 f i torq.obj
 0001:0004e2c0       ??0?$pair@$$CBV?$vector@HV?$allocator@H@std@@@std@@VTokenSequence@text@@@std@@QAE@ABU01@@Z 0044f2c0 f i torq.obj
 0001:0004e350       ??0?$pair@$$CBV?$vector@HV?$allocator@H@std@@@std@@J@std@@QAE@ABU01@@Z 0044f350 f i torq.obj
 0001:0004e3b0       ??0?$pair@$$CBV?$vector@HV?$allocator@H@std@@@std@@UNodeFormat@Helper@text@@@std@@QAE@ABU01@@Z 0044f3b0 f i torq.obj
 0001:0004e440       ??0?$pair@$$CBJV?$vector@HV?$allocator@H@std@@@std@@@std@@QAE@ABU01@@Z 0044f440 f i torq.obj
 0001:0004e4a0       ?get_object@?$optional_base@Vlocale@std@@@optional_detail@boost@@AAEPAVlocale@std@@XZ 0044f4a0 f i torq.obj
 0001:0004e4f0       ?cast_ptr@?$optional_base@Vlocale@std@@@optional_detail@boost@@AAEPAVlocale@std@@PAV45@U?$bool_@$0A@@mpl@3@@Z 0044f4f0 f i torq.obj
 0001:0004e520       ?max_size@?$allocator@U?$pair@$$CBJUNodeFormat@Helper@text@@@std@@@std@@QBEIXZ 0044f520 f i torq.obj
 0001:0004e580       ??0?$_List_nod@U?$pair@$$CBJUNodeFormat@Helper@text@@@std@@V?$allocator@U?$pair@$$CBJUNodeFormat@Helper@text@@@std@@@2@@std@@IAE@V?$allocator@U?$pair@$$CBJUNodeFormat@Helper@text@@@std@@@1@@Z 0044f580 f i torq.obj
 0001:0004e5d0       ?max_size@?$allocator@Viterator@?$list@U?$pair@$$CBJUNodeFormat@Helper@text@@@std@@V?$allocator@U?$pair@$$CBJUNodeFormat@Helper@text@@@std@@@2@@std@@@std@@QBEIXZ 0044f5d0 f i torq.obj
 0001:0004e630       ??0?$_Tmap_traits@V?$vector@HV?$allocator@H@std@@@std@@VTokenSequence@text@@U?$less@V?$vector@HV?$allocator@H@std@@@std@@@2@V?$allocator@U?$pair@$$CBV?$vector@HV?$allocator@H@std@@@std@@VTokenSequence@text@@@std@@@2@$0A@@std@@QAE@U?$less@V?$vector@HV?$allocator@H@std@@@std@@@1@@Z 0044f630 f i torq.obj
 0001:0004e660       ??0?$_Tmap_traits@V?$vector@HV?$allocator@H@std@@@std@@JU?$less@V?$vector@HV?$allocator@H@std@@@std@@@2@V?$allocator@U?$pair@$$CBV?$vector@HV?$allocator@H@std@@@std@@J@std@@@2@$0A@@std@@QAE@U?$less@V?$vector@HV?$allocator@H@std@@@std@@@1@@Z 0044f660 f i torq.obj
 0001:0004e690       ??0?$_Tset_traits@JU?$less@J@std@@V?$allocator@J@2@$0A@@std@@QAE@U?$less@J@1@@Z 0044f690 f i torq.obj
 0001:0004e6c0       ??0?$_Tset_traits@V?$vector@HV?$allocator@H@std@@@std@@U?$less@V?$vector@HV?$allocator@H@std@@@std@@@2@V?$allocator@V?$vector@HV?$allocator@H@std@@@std@@@2@$0A@@std@@QAE@U?$less@V?$vector@HV?$allocator@H@std@@@std@@@1@@Z 0044f6c0 f i torq.obj
 0001:0004e6f0       ??0?$_Tmap_traits@V?$vector@HV?$allocator@H@std@@@std@@UNodeFormat@Helper@text@@U?$less@V?$vector@HV?$allocator@H@std@@@std@@@2@V?$allocator@U?$pair@$$CBV?$vector@HV?$allocator@H@std@@@std@@UNodeFormat@Helper@text@@@std@@@2@$0A@@std@@QAE@U?$less@V?$vector@HV?$allocator@H@std@@@std@@@1@@Z 0044f6f0 f i torq.obj
 0001:0004e720       ??0?$_Tmap_traits@JV?$vector@HV?$allocator@H@std@@@std@@U?$less@J@2@V?$allocator@U?$pair@$$CBJV?$vector@HV?$allocator@H@std@@@std@@@std@@@2@$0A@@std@@QAE@U?$less@J@1@@Z 0044f720 f i torq.obj
 0001:0004e750       ??Eiterator@?$list@U?$pair@$$CBJUNodeFormat@Helper@text@@@std@@V?$allocator@U?$pair@$$CBJUNodeFormat@Helper@text@@@std@@@2@@std@@QAE?AV012@H@Z 0044f750 f i torq.obj
 0001:0004e7d0       ??0_Node@?$_List_nod@U?$pair@$$CBJUNodeFormat@Helper@text@@@std@@V?$allocator@U?$pair@$$CBJUNodeFormat@Helper@text@@@std@@@2@@std@@QAE@PAU012@0ABU?$pair@$$CBJUNodeFormat@Helper@text@@@2@@Z 0044f7d0 f i torq.obj
 0001:0004e830       ??0const_iterator@?$vector@Viterator@?$list@U?$pair@$$CBJUNodeFormat@Helper@text@@@std@@V?$allocator@U?$pair@$$CBJUNodeFormat@Helper@text@@@std@@@2@@std@@V?$allocator@Viterator@?$list@U?$pair@$$CBJUNodeFormat@Helper@text@@@std@@V?$allocator@U?$pair@$$CBJUNodeFormat@Helper@text@@@std@@@2@@std@@@3@@std@@QAE@PAViterator@?$list@U?$pair@$$CBJUNodeFormat@Helper@text@@@std@@V?$allocator@U?$pair@$$CBJUNodeFormat@Helper@text@@@std@@@2@@2@@Z 0044f830 f i torq.obj
 0001:0004e870       ??8const_iterator@?$vector@Viterator@?$list@U?$pair@$$CBJUNodeFormat@Helper@text@@@std@@V?$allocator@U?$pair@$$CBJUNodeFormat@Helper@text@@@std@@@2@@std@@V?$allocator@Viterator@?$list@U?$pair@$$CBJUNodeFormat@Helper@text@@@std@@V?$allocator@U?$pair@$$CBJUNodeFormat@Helper@text@@@std@@@2@@std@@@3@@std@@QBE_NABV012@@Z 0044f870 f i torq.obj
 0001:0004e8b0       ??0?$pair@$$CBJUNodeFormat@Helper@text@@@std@@QAE@ABU01@@Z 0044f8b0 f i torq.obj
 0001:0004e910       ?address@?$aligned_storage@Vlocale@std@@@optional_detail@boost@@QAEPAXXZ 0044f910 f i torq.obj
 0001:0004e940       ??$_DebugHeapDelete@Vfacet@locale@std@@@std@@YAXPAVfacet@locale@0@@Z 0044f940 f i torq.obj
 0001:0004e9a0       ??$use_facet@V?$ctype@D@std@@@std@@YAABV?$ctype@D@0@ABVlocale@0@@Z 0044f9a0 f i torq.obj
 0001:0004eaf0       ??Bid@locale@std@@QAEIXZ   0044faf0 f i torq.obj
 0001:0004eba0       ?_Getcat@?$ctype@D@std@@SAIPAPBVfacet@locale@2@@Z 0044fba0 f i torq.obj
 0001:0004ec80       ??0?$ctype@D@std@@QAE@PBF_NI@Z 0044fc80 f i torq.obj
 0001:0004ed70       ??0ctype_base@std@@QAE@I@Z 0044fd70 f i torq.obj
 0001:0004edd0       ??0facet@locale@std@@IAE@I@Z 0044fdd0 f i torq.obj
 0001:0004ee20       ??_Efacet@locale@std@@UAEPAXI@Z 0044fe20 f i torq.obj
 0001:0004ee20       ??_Gfacet@locale@std@@UAEPAXI@Z 0044fe20 f i torq.obj
 0001:0004ee80       ??1facet@locale@std@@UAE@XZ 0044fe80 f i torq.obj
 0001:0004eec0       ??1ctype_base@std@@UAE@XZ  0044fec0 f i torq.obj
 0001:0004ef10       ??_Ectype_base@std@@UAEPAXI@Z 0044ff10 f i torq.obj
 0001:0004ef10       ??_Gctype_base@std@@UAEPAXI@Z 0044ff10 f i torq.obj
 0001:0004ef70       ?_Init@?$ctype@D@std@@IAEXABV_Locinfo@2@@Z 0044ff70 f i torq.obj
 0001:0004efe0       ?_Getctype@_Locinfo@std@@QBE?AU_Ctypevec@@XZ 0044ffe0 f i torq.obj
 0001:0004f080       ?_Tidy@?$ctype@D@std@@IAEXXZ 00450080 f i torq.obj
 0001:0004f100       ?do_tolower@?$ctype@D@std@@MBEDD@Z 00450100 f i torq.obj
 0001:0004f150       ?do_tolower@?$ctype@D@std@@MBEPBDPADPBD@Z 00450150 f i torq.obj
 0001:0004f1c0       ?do_toupper@?$ctype@D@std@@MBEDD@Z 004501c0 f i torq.obj
 0001:0004f210       ?do_toupper@?$ctype@D@std@@MBEPBDPADPBD@Z 00450210 f i torq.obj
 0001:0004f280       ?do_widen@?$ctype@D@std@@MBEDD@Z 00450280 f i torq.obj
 0001:0004f2b0       ?do_widen@?$ctype@D@std@@MBEPBDPBD0PAD@Z 004502b0 f i torq.obj
 0001:0004f310       ?do_narrow@?$ctype@D@std@@MBEDDD@Z 00450310 f i torq.obj
 0001:0004f340       ?do_narrow@?$ctype@D@std@@MBEPBDPBD0DPAD@Z 00450340 f i torq.obj
 0001:0004f3a0       ??_G?$ctype@D@std@@MAEPAXI@Z 004503a0 f i torq.obj
 0001:0004f3a0       ??_E?$ctype@D@std@@MAEPAXI@Z 004503a0 f i torq.obj
 0001:0004f400       ??1?$ctype@D@std@@MAE@XZ   00450400 f i torq.obj
 0001:0004f480       ??$?8DU?$char_traits@D@std@@V?$allocator@D@1@@std@@YA_NABV?$basic_string@DU?$char_traits@D@std@@V?$allocator@D@2@@0@PBD@Z 00450480 f i torq.obj
 0001:0004f4d0       ?seekoff@?$basic_altstringbuf@DU?$char_traits@D@std@@V?$allocator@D@2@@io@boost@@MAE?AV?$fpos@H@std@@JHH@Z 004504d0 f i torq.obj
 0001:0004f6f0       ?seekpos@?$basic_altstringbuf@DU?$char_traits@D@std@@V?$allocator@D@2@@io@boost@@MAE?AV?$fpos@H@std@@V45@H@Z 004506f0 f i torq.obj
 0001:0004f8a0       ?underflow@?$basic_altstringbuf@DU?$char_traits@D@std@@V?$allocator@D@2@@io@boost@@MAEHXZ 004508a0 f i torq.obj
 0001:0004f9c0       ?pbackfail@?$basic_altstringbuf@DU?$char_traits@D@std@@V?$allocator@D@2@@io@boost@@MAEHH@Z 004509c0 f i torq.obj
 0001:0004faf0       ?eq@?$char_traits@D@std@@SA_NABD0@Z 00450af0 f i torq.obj
 0001:0004fb30       ?overflow@?$basic_altstringbuf@DU?$char_traits@D@std@@V?$allocator@D@2@@io@boost@@MAEHH@Z 00450b30 f i torq.obj
 0001:0004fe10       ?max@?$numeric_limits@I@std@@SAIXZ 00450e10 f i torq.obj
 0001:0004fe40       ?dealloc@?$basic_altstringbuf@DU?$char_traits@D@std@@V?$allocator@D@2@@io@boost@@IAEXXZ 00450e40 f i torq.obj
 0001:0004ff00       ??0?$basic_format@DU?$char_traits@D@std@@V?$allocator@D@2@@boost@@QAE@ABV?$basic_string@DU?$char_traits@D@std@@V?$allocator@D@2@@std@@@Z 00450f00 f i torq.obj
 0001:0004fff0       ??0?$basic_format@DU?$char_traits@D@std@@V?$allocator@D@2@@boost@@QAE@PBD@Z 00450ff0 f i torq.obj
 0001:00050110       ?str@?$basic_format@DU?$char_traits@D@std@@V?$allocator@D@2@@boost@@QBE?AV?$basic_string@DU?$char_traits@D@std@@V?$allocator@D@2@@std@@XZ 00451110 f i torq.obj
 0001:00050350       ??0too_few_args@io@boost@@QAE@II@Z 00451350 f i torq.obj
 0001:000503b0       ??0format_error@io@boost@@QAE@XZ 004513b0 f i torq.obj
 0001:00050400       ?what@format_error@io@boost@@UBEPBDXZ 00451400 f i torq.obj
 0001:00050430       ??_Gformat_error@io@boost@@UAEPAXI@Z 00451430 f i torq.obj
 0001:00050430       ??_Eformat_error@io@boost@@UAEPAXI@Z 00451430 f i torq.obj
 0001:00050490       ??1format_error@io@boost@@UAE@XZ 00451490 f i torq.obj
 0001:000504d0       ?what@too_few_args@io@boost@@UBEPBDXZ 004514d0 f i torq.obj
 0001:00050500       ??_Gtoo_few_args@io@boost@@UAEPAXI@Z 00451500 f i torq.obj
 0001:00050500       ??_Etoo_few_args@io@boost@@UAEPAXI@Z 00451500 f i torq.obj
 0001:00050560       ??1too_few_args@io@boost@@UAE@XZ 00451560 f i torq.obj
 0001:000505a0       ?reserve@?$basic_string@DU?$char_traits@D@std@@V?$allocator@D@2@@std@@QAEXI@Z 004515a0 f i torq.obj
 0001:00050620       ??$?LI@?$basic_format@DU?$char_traits@D@std@@V?$allocator@D@2@@boost@@QAEAAV01@ABI@Z 00451620 f i torq.obj
 0001:00050670       ??$?LH@?$basic_format@DU?$char_traits@D@std@@V?$allocator@D@2@@boost@@QAEAAV01@ABH@Z 00451670 f i torq.obj
 0001:000506c0       ??$swap@W4CLASSIFICATION@TOKEN@@@std@@YAXAAW4CLASSIFICATION@TOKEN@@0@Z 004516c0 f i torq.obj
 0001:00050700       ??$swap@J@std@@YAXAAJ0@Z   00451700 f i torq.obj
 0001:00050740       ??$insert@Vconst_iterator@?$vector@HV?$allocator@H@std@@@std@@@?$vector@HV?$allocator@H@std@@@std@@QAEXViterator@01@Vconst_iterator@01@1@Z 00451740 f i torq.obj
 0001:000507b0       ??$swap@W4NF_NODETYPE@Helper@text@@@std@@YAXAAW4NF_NODETYPE@Helper@text@@0@Z 004517b0 f i torq.obj
 0001:000507f0       ??$?6U?$char_traits@D@std@@@std@@YAAAV?$basic_ostream@DU?$char_traits@D@std@@@0@AAV10@PBD@Z 004517f0 f i torq.obj
 0001:00050b80       ?width@ios_base@std@@QBEHXZ 00451b80 f i torq.obj
 0001:00050bb0       ?width@ios_base@std@@QAEHH@Z 00451bb0 f i torq.obj
 0001:00050c00       ??$?6DU?$char_traits@D@std@@V?$allocator@D@1@@std@@YAAAV?$basic_ostream@DU?$char_traits@D@std@@@0@AAV10@ABV?$basic_string@DU?$char_traits@D@std@@V?$allocator@D@2@@0@@Z 00451c00 f i torq.obj
 0001:00051000       ??$?6DU?$char_traits@D@std@@V?$allocator@D@1@@boost@@YAAAV?$basic_ostream@DU?$char_traits@D@std@@@std@@AAV12@ABV?$basic_format@DU?$char_traits@D@std@@V?$allocator@D@2@@0@@Z 00452000 f i torq.obj
 0001:000511c0       ??$insert@Viterator@?$_Tree@V?$_Tset_traits@JU?$less@J@std@@V?$allocator@J@2@$0A@@std@@@std@@@?$_Tree@V?$_Tset_traits@JU?$less@J@std@@V?$allocator@J@2@$0A@@std@@@std@@QAEXViterator@01@0@Z 004521c0 f i torq.obj
 0001:00051230       ??$insert@Viterator@?$vector@HV?$allocator@H@std@@@std@@@?$vector@HV?$allocator@H@std@@@std@@QAEXViterator@01@00@Z 00452230 f i torq.obj
 0001:000512a0       ??$?HDU?$char_traits@D@std@@V?$allocator@D@1@@std@@YA?AV?$basic_string@DU?$char_traits@D@std@@V?$allocator@D@2@@0@PBDABV10@@Z 004522a0 f i torq.obj
 0001:00051360       ??$?HDU?$char_traits@D@std@@V?$allocator@D@1@@std@@YA?AV?$basic_string@DU?$char_traits@D@std@@V?$allocator@D@2@@0@ABV10@PBD@Z 00452360 f i torq.obj
 0001:00051420       ??$find@Vconst_iterator@?$vector@HV?$allocator@H@std@@@std@@H@std@@YA?AVconst_iterator@?$vector@HV?$allocator@H@std@@@0@V120@0ABH@Z 00452420 f i torq.obj
 0001:00051490       ??$?LJ@?$basic_format@DU?$char_traits@D@std@@V?$allocator@D@2@@boost@@QAEAAV01@ABJ@Z 00452490 f i torq.obj
 0001:000514e0       ??$find@Vconst_iterator@?$vector@HV?$allocator@H@std@@@std@@D@std@@YA?AVconst_iterator@?$vector@HV?$allocator@H@std@@@0@V120@0ABD@Z 004524e0 f i torq.obj
 0001:00051550       ??$?LV?$basic_string@DU?$char_traits@D@std@@V?$allocator@D@2@@std@@@?$basic_format@DU?$char_traits@D@std@@V?$allocator@D@2@@boost@@QAEAAV01@ABV?$basic_string@DU?$char_traits@D@std@@V?$allocator@D@2@@std@@@Z 00452550 f i torq.obj
 0001:000515a0       ??$insert@PAPAD@?$vector@V?$basic_string@DU?$char_traits@D@std@@V?$allocator@D@2@@std@@V?$allocator@V?$basic_string@DU?$char_traits@D@std@@V?$allocator@D@2@@std@@@2@@std@@QAEXViterator@01@PAPAD1@Z 004525a0 f i torq.obj
 0001:00051610       ??$?9DU?$char_traits@D@std@@V?$allocator@D@1@@std@@YA_NABV?$basic_string@DU?$char_traits@D@std@@V?$allocator@D@2@@0@PBD@Z 00452610 f i torq.obj
 0001:00051660       ??$?8DD@std@@YA_NABV?$allocator@D@0@0@Z 00452660 f i torq.obj
 0001:00051690       ??$_DebugHeapDelete@Vlocale@std@@@std@@YAXPAVlocale@0@@Z 00452690 f i torq.obj
 0001:000516e0       ??$use_facet@V?$num_put@DV?$ostreambuf_iterator@DU?$char_traits@D@std@@@std@@@std@@@std@@YAABV?$num_put@DV?$ostreambuf_iterator@DU?$char_traits@D@std@@@std@@@0@ABVlocale@0@@Z 004526e0 f i torq.obj
 0001:00051830       ??$_Ucopy@Vconst_iterator@?$vector@V?$basic_string@DU?$char_traits@D@std@@V?$allocator@D@2@@std@@V?$allocator@V?$basic_string@DU?$char_traits@D@std@@V?$allocator@D@2@@std@@@2@@std@@@?$vector@V?$basic_string@DU?$char_traits@D@std@@V?$allocator@D@2@@std@@V?$allocator@V?$basic_string@DU?$char_traits@D@std@@V?$allocator@D@2@@std@@@2@@std@@IAEPAV?$basic_string@DU?$char_traits@D@std@@V?$allocator@D@2@@1@Vconst_iterator@01@0PAV21@@Z 00452830 f i torq.obj
 0001:00051890       ??$_Ucopy@Viterator@?$vector@V?$basic_string@DU?$char_traits@D@std@@V?$allocator@D@2@@std@@V?$allocator@V?$basic_string@DU?$char_traits@D@std@@V?$allocator@D@2@@std@@@2@@std@@@?$vector@V?$basic_string@DU?$char_traits@D@std@@V?$allocator@D@2@@std@@V?$allocator@V?$basic_string@DU?$char_traits@D@std@@V?$allocator@D@2@@std@@@2@@std@@IAEPAV?$basic_string@DU?$char_traits@D@std@@V?$allocator@D@2@@1@Viterator@01@0PAV21@@Z 00452890 f i torq.obj
 0001:000518f0       ??$_Ucopy@Viterator@?$vector@HV?$allocator@H@std@@@std@@@?$vector@HV?$allocator@H@std@@@std@@IAEPAHViterator@01@0PAH@Z 004528f0 f i torq.obj
 0001:00051950       ??$?8HH@std@@YA_NABV?$allocator@H@0@0@Z 00452950 f i torq.obj
 0001:00051980       ??$swap@PAH@std@@YAXAAPAH0@Z 00452980 f i torq.obj
 0001:000519c0       ??$_Ucopy@Vconst_iterator@?$vector@UTOKEN@@V?$allocator@UTOKEN@@@std@@@std@@@?$vector@UTOKEN@@V?$allocator@UTOKEN@@@std@@@std@@IAEPAUTOKEN@@Vconst_iterator@01@0PAU2@@Z 004529c0 f i torq.obj
 0001:00051a20       ??$copy@PAUTOKEN@@PAU1@@std@@YAPAUTOKEN@@PAU1@00@Z 00452a20 f i torq.obj
 0001:00051a90       ??$_Ucopy@PAUTOKEN@@@?$vector@UTOKEN@@V?$allocator@UTOKEN@@@std@@@std@@IAEPAUTOKEN@@PAU2@00@Z 00452a90 f i torq.obj
 0001:00051af0       ??$?8UTOKEN@@U0@@std@@YA_NABV?$allocator@UTOKEN@@@0@0@Z 00452af0 f i torq.obj
 0001:00051b20       ??$swap@PAUTOKEN@@@std@@YAXAAPAUTOKEN@@0@Z 00452b20 f i torq.obj
 0001:00051b60       ??$_Ucopy@Vconst_iterator@?$vector@UTRACE_ITEM@@V?$allocator@UTRACE_ITEM@@@std@@@std@@@?$vector@UTRACE_ITEM@@V?$allocator@UTRACE_ITEM@@@std@@@std@@IAEPAUTRACE_ITEM@@Vconst_iterator@01@0PAU2@@Z 00452b60 f i torq.obj
 0001:00051bc0       ??$copy@PAUTRACE_ITEM@@PAU1@@std@@YAPAUTRACE_ITEM@@PAU1@00@Z 00452bc0 f i torq.obj
 0001:00051c30       ??$_Ucopy@PAUTRACE_ITEM@@@?$vector@UTRACE_ITEM@@V?$allocator@UTRACE_ITEM@@@std@@@std@@IAEPAUTRACE_ITEM@@PAU2@00@Z 00452c30 f i torq.obj
 0001:00051c90       ??$_Ucopy@Viterator@?$vector@UTRACE_ITEM@@V?$allocator@UTRACE_ITEM@@@std@@@std@@@?$vector@UTRACE_ITEM@@V?$allocator@UTRACE_ITEM@@@std@@@std@@IAEPAUTRACE_ITEM@@Viterator@01@0PAU2@@Z 00452c90 f i torq.obj
 0001:00051cf0       ??$?8UTRACE_ITEM@@U0@@std@@YA_NABV?$allocator@UTRACE_ITEM@@@0@0@Z 00452cf0 f i torq.obj
 0001:00051d20       ??$swap@PAUTRACE_ITEM@@@std@@YAXAAPAUTRACE_ITEM@@0@Z 00452d20 f i torq.obj
 0001:00051d60       ??$_Ucopy@Vconst_iterator@?$vector@JV?$allocator@J@std@@@std@@@?$vector@JV?$allocator@J@std@@@std@@IAEPAJVconst_iterator@01@0PAJ@Z 00452d60 f i torq.obj
 0001:00051dc0       ??$copy@PAJPAJ@std@@YAPAJPAJ00@Z 00452dc0 f i torq.obj
 0001:00051e30       ?_Ptr_cat@std@@YA?AU_Scalar_ptr_iterator_tag@1@PAJ0@Z 00452e30 f i torq.obj
 0001:00051e90       ??$_Ucopy@PAJ@?$vector@JV?$allocator@J@std@@@std@@IAEPAJPAJ00@Z 00452e90 f i torq.obj
 0001:00051ef0       ??$_Ucopy@Viterator@?$vector@PAUToken@text@@V?$allocator@PAUToken@text@@@std@@@std@@@?$vector@PAUToken@text@@V?$allocator@PAUToken@text@@@std@@@std@@IAEPAPAUToken@text@@Viterator@01@0PAPAU23@@Z 00452ef0 f i torq.obj
 0001:00051f50       ??$?8PAUToken@text@@PAU01@@std@@YA_NABV?$allocator@PAUToken@text@@@0@0@Z 00452f50 f i torq.obj
 0001:00051f80       ??$swap@PAPAUToken@text@@@std@@YAXAAPAPAUToken@text@@0@Z 00452f80 f i torq.obj
 0001:00051fc0       ??$_Ucopy@Vconst_iterator@?$vector@V?$vector@HV?$allocator@H@std@@@std@@V?$allocator@V?$vector@HV?$allocator@H@std@@@std@@@2@@std@@@?$vector@V?$vector@HV?$allocator@H@std@@@std@@V?$allocator@V?$vector@HV?$allocator@H@std@@@std@@@2@@std@@IAEPAV?$vector@HV?$allocator@H@std@@@1@Vconst_iterator@01@0PAV21@@Z 00452fc0 f i torq.obj
 0001:00052020       ??$_Ucopy@Viterator@?$vector@UMATCH@Interpreter@@V?$allocator@UMATCH@Interpreter@@@std@@@std@@@?$vector@UMATCH@Interpreter@@V?$allocator@UMATCH@Interpreter@@@std@@@std@@IAEPAUMATCH@Interpreter@@Viterator@01@0PAU23@@Z 00453020 f i torq.obj
 0001:00052080       ??$_DebugHeapDelete@V_DebugHeapString@std@@@std@@YAXPAV_DebugHeapString@0@@Z 00453080 f i torq.obj
 0001:000520d0       ??$use_facet@V?$codecvt@DDH@std@@@std@@YAABV?$codecvt@DDH@0@ABVlocale@0@@Z 004530d0 f i torq.obj
 0001:00052220       ??$?8U?$pair@$$CBJV?$vector@HV?$allocator@H@std@@@std@@@std@@U01@@std@@YA_NABV?$allocator@U?$pair@$$CBJV?$vector@HV?$allocator@H@std@@@std@@@std@@@0@0@Z 00453220 f i torq.obj
 0001:00052250       ??$swap@U?$less@J@std@@@std@@YAXAAU?$less@J@0@0@Z 00453250 f i torq.obj
 0001:000522a0       ??$swap@PAU_Node@?$_Tree_nod@V?$_Tmap_traits@JV?$vector@HV?$allocator@H@std@@@std@@U?$less@J@2@V?$allocator@U?$pair@$$CBJV?$vector@HV?$allocator@H@std@@@std@@@std@@@2@$0A@@std@@@std@@@std@@YAXAAPAU_Node@?$_Tree_nod@V?$_Tmap_traits@JV?$vector@HV?$allocator@H@std@@@std@@U?$less@J@2@V?$allocator@U?$pair@$$CBJV?$vector@HV?$allocator@H@std@@@std@@@std@@@2@$0A@@std@@@0@0@Z 004532a0 f i torq.obj
 0001:000522e0       ??$swap@I@std@@YAXAAI0@Z   004532e0 f i torq.obj
 0001:00052320       ??$checked_delete@VEncoder@common@@@boost@@YAXPAVEncoder@common@@@Z 00453320 f i torq.obj
 0001:000523a0       ??$checked_delete@VFileReader@@@boost@@YAXPAVFileReader@@@Z 004533a0 f i torq.obj
 0001:00052420       ??1?$basic_win32handle_streambuf@DU?$char_traits@D@std@@@win32@@UAE@XZ 00453420 f i torq.obj
 0001:00052470       ?init@?$basic_win32handle_streambuf@DU?$char_traits@D@std@@@win32@@IAEXXZ 00453470 f i torq.obj
 0001:000524a0       ??1?$basic_win32handle_ostreambuf@DU?$char_traits@D@std@@@win32@@UAE@XZ 004534a0 f i torq.obj
 0001:00052540       ?write@?$basic_win32handle_ostreambuf@DU?$char_traits@D@std@@@win32@@AAEXXZ 00453540 f i torq.obj
 0001:00052640       ??0Win32Exception@win32@@QAE@K@Z 00453640 f i torq.obj
 0001:000526f0       ??0runtime_error@std@@QAE@ABV?$basic_string@DU?$char_traits@D@std@@V?$allocator@D@2@@1@@Z 004536f0 f i torq.obj
 0001:00052780       ??1runtime_error@std@@UAE@XZ 00453780 f i torq.obj
 0001:00052800       ?what@runtime_error@std@@UBEPBDXZ 00453800 f i torq.obj
 0001:00052850       ??_Eruntime_error@std@@UAEPAXI@Z 00453850 f i torq.obj
 0001:00052850       ??_Gruntime_error@std@@UAEPAXI@Z 00453850 f i torq.obj
 0001:000528b0       ??_EWin32Exception@win32@@UAEPAXI@Z 004538b0 f i torq.obj
 0001:000528b0       ??_GWin32Exception@win32@@UAEPAXI@Z 004538b0 f i torq.obj
 0001:00052910       ??1Win32Exception@win32@@UAE@XZ 00453910 f i torq.obj
 0001:00052950       ?flush@?$basic_win32handle_ostreambuf@DU?$char_traits@D@std@@@win32@@AAEXXZ 00453950 f i torq.obj
 0001:00052990       ?init@?$basic_win32handle_ostreambuf@DU?$char_traits@D@std@@@win32@@AAEXXZ 00453990 f i torq.obj
 0001:00052a10       ??$_Destroy_range@V?$basic_string@DU?$char_traits@D@std@@V?$allocator@D@2@@std@@V?$allocator@V?$basic_string@DU?$char_traits@D@std@@V?$allocator@D@2@@std@@@2@@std@@YAXPAV?$basic_string@DU?$char_traits@D@std@@V?$allocator@D@2@@0@0AAV?$allocator@V?$basic_string@DU?$char_traits@D@std@@V?$allocator@D@2@@std@@@0@@Z 00453a10 f i torq.obj
 0001:00052a80       ??$_Uninitialized_fill_n@PAV?$basic_string@DU?$char_traits@D@std@@V?$allocator@D@2@@std@@IV12@V?$allocator@V?$basic_string@DU?$char_traits@D@std@@V?$allocator@D@2@@std@@@2@@std@@YAXPAV?$basic_string@DU?$char_traits@D@std@@V?$allocator@D@2@@0@IABV10@AAV?$allocator@V?$basic_string@DU?$char_traits@D@std@@V?$allocator@D@2@@std@@@0@@Z 00453a80 f i torq.obj
 0001:00052af0       ??$_Allocate@V?$basic_string@DU?$char_traits@D@std@@V?$allocator@D@2@@std@@@std@@YAPAV?$basic_string@DU?$char_traits@D@std@@V?$allocator@D@2@@0@IPAV10@@Z 00453af0 f i torq.obj
 0001:00052b40       ??$_Destroy_range@UTOKEN@@V?$allocator@UTOKEN@@@std@@@std@@YAXPAUTOKEN@@0AAV?$allocator@UTOKEN@@@0@@Z 00453b40 f i torq.obj
 0001:00052bb0       ??$_Uninitialized_fill_n@PAUTOKEN@@IU1@V?$allocator@UTOKEN@@@std@@@std@@YAXPAUTOKEN@@IABU1@AAV?$allocator@UTOKEN@@@0@@Z 00453bb0 f i torq.obj
 0001:00052c20       ??$_Destroy_range@UTRACE_ITEM@@V?$allocator@UTRACE_ITEM@@@std@@@std@@YAXPAUTRACE_ITEM@@0AAV?$allocator@UTRACE_ITEM@@@0@@Z 00453c20 f i torq.obj
 0001:00052c90       ??$_Uninitialized_fill_n@PAUTRACE_ITEM@@IU1@V?$allocator@UTRACE_ITEM@@@std@@@std@@YAXPAUTRACE_ITEM@@IABU1@AAV?$allocator@UTRACE_ITEM@@@0@@Z 00453c90 f i torq.obj
 0001:00052d00       ??$_Allocate@UTRACE_ITEM@@@std@@YAPAUTRACE_ITEM@@IPAU1@@Z 00453d00 f i torq.obj
 0001:00052d50       ??$_Destroy_range@JV?$allocator@J@std@@@std@@YAXPAJ0AAV?$allocator@J@0@@Z 00453d50 f i torq.obj
 0001:00052dc0       ??$_Uninitialized_fill_n@PAJIJV?$allocator@J@std@@@std@@YAXPAJIABJAAV?$allocator@J@0@@Z 00453dc0 f i torq.obj
 0001:00052e30       ??$_Ucopy@Vconst_iterator@?$vector@PAUToken@text@@V?$allocator@PAUToken@text@@@std@@@std@@@?$vector@PAUToken@text@@V?$allocator@PAUToken@text@@@std@@@std@@IAEPAPAUToken@text@@Vconst_iterator@01@0PAPAU23@@Z 00453e30 f i torq.obj
 0001:00052e90       ??$?0U?$pair@$$CBJUNodeFormat@Helper@text@@@std@@@?$allocator@Viterator@?$list@U?$pair@$$CBJUNodeFormat@Helper@text@@@std@@V?$allocator@U?$pair@$$CBJUNodeFormat@Helper@text@@@std@@@2@@std@@@std@@QAE@ABV?$allocator@U?$pair@$$CBJUNodeFormat@Helper@text@@@std@@@1@@Z 00453e90 f i torq.obj
 0001:00052ec0       ??$_Ucopy@PAV?$vector@HV?$allocator@H@std@@@std@@@?$vector@V?$vector@HV?$allocator@H@std@@@std@@V?$allocator@V?$vector@HV?$allocator@H@std@@@std@@@2@@std@@IAEPAV?$vector@HV?$allocator@H@std@@@1@PAV21@00@Z 00453ec0 f i torq.obj
 0001:00052f20       ??$_Uninitialized_fill_n@PAV?$vector@HV?$allocator@H@std@@@std@@IV12@V?$allocator@V?$vector@HV?$allocator@H@std@@@std@@@2@@std@@YAXPAV?$vector@HV?$allocator@H@std@@@0@IABV10@AAV?$allocator@V?$vector@HV?$allocator@H@std@@@std@@@0@@Z 00453f20 f i torq.obj
 0001:00052f90       ??$_Destroy_range@UMATCH@Interpreter@@V?$allocator@UMATCH@Interpreter@@@std@@@std@@YAXPAUMATCH@Interpreter@@0AAV?$allocator@UMATCH@Interpreter@@@0@@Z 00453f90 f i torq.obj
 0001:00053000       ??$_Uninitialized_fill_n@PAUMATCH@Interpreter@@IU12@V?$allocator@UMATCH@Interpreter@@@std@@@std@@YAXPAUMATCH@Interpreter@@IABU12@AAV?$allocator@UMATCH@Interpreter@@@0@@Z 00454000 f i torq.obj
 0001:00053070       ??$_Allocate@UMATCH@Interpreter@@@std@@YAPAUMATCH@Interpreter@@IPAU12@@Z 00454070 f i torq.obj
 0001:000530c0       ??$?MHV?$allocator@H@std@@@std@@YA_NABV?$vector@HV?$allocator@H@std@@@0@0@Z 004540c0 f i torq.obj
 0001:00053150       ??$_DebugHeapDelete@X@std@@YAXPAX@Z 00454150 f i torq.obj
 0001:000531a0       ??$_Ucopy@PAV?$basic_string@DU?$char_traits@D@std@@V?$allocator@D@2@@std@@@?$vector@V?$basic_string@DU?$char_traits@D@std@@V?$allocator@D@2@@std@@V?$allocator@V?$basic_string@DU?$char_traits@D@std@@V?$allocator@D@2@@std@@@2@@std@@IAEPAV?$basic_string@DU?$char_traits@D@std@@V?$allocator@D@2@@1@PAV21@00@Z 004541a0 f i torq.obj
 0001:00053200       ??$fill@PAV?$basic_string@DU?$char_traits@D@std@@V?$allocator@D@2@@std@@V12@@std@@YAXPAV?$basic_string@DU?$char_traits@D@std@@V?$allocator@D@2@@0@0ABV10@@Z 00454200 f i torq.obj
 0001:00053260       ??$copy_backward@PAV?$basic_string@DU?$char_traits@D@std@@V?$allocator@D@2@@std@@PAV12@@std@@YAPAV?$basic_string@DU?$char_traits@D@std@@V?$allocator@D@2@@0@PAV10@00@Z 00454260 f i torq.obj
 0001:000532d0       ??$copy@PAPBDPAPBD@std@@YAPAPBDPAPBD00@Z 004542d0 f i torq.obj
 0001:00053340       ??$_Destroy_range@PBDV?$allocator@PBD@std@@@std@@YAXPAPBD0AAV?$allocator@PBD@0@@Z 00454340 f i torq.obj
 0001:000533b0       ??$_Ucopy@PAPBD@?$vector@PBDV?$allocator@PBD@std@@@std@@IAEPAPBDPAPBD00@Z 004543b0 f i torq.obj
 0001:00053410       ??$fill@PAPBDPBD@std@@YAXPAPBD0ABQBD@Z 00454410 f i torq.obj
 0001:00053460       ??$copy_backward@PAPBDPAPBD@std@@YAPAPBDPAPBD00@Z 00454460 f i torq.obj
 0001:000534d0       ??$_Allocate@PBD@std@@YAPAPBDIPAPBD@Z 004544d0 f i torq.obj
 0001:00053520       ??$copy@PADPAD@std@@YAPADPAD00@Z 00454520 f i torq.obj
 0001:00053590       ?_Ptr_cat@std@@YA?AU_Scalar_ptr_iterator_tag@1@PAD0@Z 00454590 f i torq.obj
 0001:000535f0       ??$_Destroy_range@DV?$allocator@D@std@@@std@@YAXPAD0AAV?$allocator@D@0@@Z 004545f0 f i torq.obj
 0001:00053660       ??$_Ucopy@PAD@?$vector@DV?$allocator@D@std@@@std@@IAEPADPAD00@Z 00454660 f i torq.obj
 0001:000536c0       ??$fill@PADD@std@@YAXPAD0ABD@Z 004546c0 f i torq.obj
 0001:00053710       ??$copy_backward@PADPAD@std@@YAPADPAD00@Z 00454710 f i torq.obj
 0001:00053780       ??$_Uninitialized_fill_n@PADIDV?$allocator@D@std@@@std@@YAXPADIABDAAV?$allocator@D@0@@Z 00454780 f i torq.obj
 0001:000537f0       ??$_Destroy_range@U?$format_item@DU?$char_traits@D@std@@V?$allocator@D@2@@detail@io@boost@@V?$allocator@U?$format_item@DU?$char_traits@D@std@@V?$allocator@D@2@@detail@io@boost@@@std@@@std@@YAXPAU?$format_item@DU?$char_traits@D@std@@V?$allocator@D@2@@detail@io@boost@@0AAV?$allocator@U?$format_item@DU?$char_traits@D@std@@V?$allocator@D@2@@detail@io@boost@@@0@@Z 004547f0 f i torq.obj
 0001:00053860       ??$fill@PAUTOKEN@@U1@@std@@YAXPAUTOKEN@@0ABU1@@Z 00454860 f i torq.obj
 0001:000538b0       ??$copy_backward@PAUTOKEN@@PAU1@@std@@YAPAUTOKEN@@PAU1@00@Z 004548b0 f i torq.obj
 0001:00053920       ??$_Allocate@UTOKEN@@@std@@YAPAUTOKEN@@IPAU1@@Z 00454920 f i torq.obj
 0001:00053970       ??$fill@PAUTRACE_ITEM@@U1@@std@@YAXPAUTRACE_ITEM@@0ABU1@@Z 00454970 f i torq.obj
 0001:000539c0       ??$copy_backward@PAUTRACE_ITEM@@PAU1@@std@@YAPAUTRACE_ITEM@@PAU1@00@Z 004549c0 f i torq.obj
 0001:00053a30       ??$fill@PAJJ@std@@YAXPAJ0ABJ@Z 00454a30 f i torq.obj
 0001:00053a80       ??$copy_backward@PAJPAJ@std@@YAPAJPAJ00@Z 00454a80 f i torq.obj
 0001:00053af0       ??$_Allocate@J@std@@YAPAJIPAJ@Z 00454af0 f i torq.obj
 0001:00053b40       ??$hash_value@J@stdext@@YAIABJ@Z 00454b40 f i torq.obj
 0001:00053b70       ??$?8U?$pair@$$CBJUNodeFormat@Helper@text@@@std@@U01@@std@@YA_NABV?$allocator@U?$pair@$$CBJUNodeFormat@Helper@text@@@std@@@0@0@Z 00454b70 f i torq.obj
 0001:00053ba0       ??$insert@Viterator@?$list@U?$pair@$$CBJUNodeFormat@Helper@text@@@std@@V?$allocator@U?$pair@$$CBJUNodeFormat@Helper@text@@@std@@@2@@std@@@?$list@U?$pair@$$CBJUNodeFormat@Helper@text@@@std@@V?$allocator@U?$pair@$$CBJUNodeFormat@Helper@text@@@std@@@2@@std@@QAEXViterator@01@00@Z 00454ba0 f i torq.obj
 0001:00053c10       ??$copy@PAU?$pair@_NUNodeFormatI@Helper@text@@@std@@PAU12@@std@@YAPAU?$pair@_NUNodeFormatI@Helper@text@@@0@PAU10@00@Z 00454c10 f i torq.obj
 0001:00053c80       ??$_Destroy_range@U?$pair@_NUNodeFormatI@Helper@text@@@std@@V?$allocator@U?$pair@_NUNodeFormatI@Helper@text@@@std@@@2@@std@@YAXPAU?$pair@_NUNodeFormatI@Helper@text@@@0@0AAV?$allocator@U?$pair@_NUNodeFormatI@Helper@text@@@std@@@0@@Z 00454c80 f i torq.obj
 0001:00053cf0       ??$_Ucopy@PAU?$pair@_NUNodeFormatI@Helper@text@@@std@@@?$vector@U?$pair@_NUNodeFormatI@Helper@text@@@std@@V?$allocator@U?$pair@_NUNodeFormatI@Helper@text@@@std@@@2@@std@@IAEPAU?$pair@_NUNodeFormatI@Helper@text@@@1@PAU21@00@Z 00454cf0 f i torq.obj
 0001:00053d50       ??$fill@PAU?$pair@_NUNodeFormatI@Helper@text@@@std@@U12@@std@@YAXPAU?$pair@_NUNodeFormatI@Helper@text@@@0@0ABU10@@Z 00454d50 f i torq.obj
 0001:00053db0       ??$copy_backward@PAU?$pair@_NUNodeFormatI@Helper@text@@@std@@PAU12@@std@@YAPAU?$pair@_NUNodeFormatI@Helper@text@@@0@PAU10@00@Z 00454db0 f i torq.obj
 0001:00053e20       ??$_Allocate@U?$pair@_NUNodeFormatI@Helper@text@@@std@@@std@@YAPAU?$pair@_NUNodeFormatI@Helper@text@@@0@IPAU10@@Z 00454e20 f i torq.obj
 0001:00053e70       ??$_Destroy_range@V?$vector@HV?$allocator@H@std@@@std@@V?$allocator@V?$vector@HV?$allocator@H@std@@@std@@@2@@std@@YAXPAV?$vector@HV?$allocator@H@std@@@0@0AAV?$allocator@V?$vector@HV?$allocator@H@std@@@std@@@0@@Z 00454e70 f i torq.obj
 0001:00053ee0       ??$fill@PAV?$vector@HV?$allocator@H@std@@@std@@V12@@std@@YAXPAV?$vector@HV?$allocator@H@std@@@0@0ABV10@@Z 00454ee0 f i torq.obj
 0001:00053f40       ??$copy_backward@PAV?$vector@HV?$allocator@H@std@@@std@@PAV12@@std@@YAPAV?$vector@HV?$allocator@H@std@@@0@PAV10@00@Z 00454f40 f i torq.obj
 0001:00053fb0       ??$_Allocate@V?$vector@HV?$allocator@H@std@@@std@@@std@@YAPAV?$vector@HV?$allocator@H@std@@@0@IPAV10@@Z 00454fb0 f i torq.obj
 0001:00054000       ??$_Destroy_range@EV?$allocator@E@std@@@std@@YAXPAE0AAV?$allocator@E@0@@Z 00455000 f i torq.obj
 0001:00054070       ?_Ptr_cat@std@@YA?AU_Scalar_ptr_iterator_tag@1@PAE0@Z 00455070 f i torq.obj
 0001:000540d0       ??$_Allocate@E@std@@YAPAEIPAE@Z 004550d0 f i torq.obj
 0001:00054110       ??$copy@PAUMATCH@Interpreter@@PAU12@@std@@YAPAUMATCH@Interpreter@@PAU12@00@Z 00455110 f i torq.obj
 0001:00054180       ??$_Ucopy@PAUMATCH@Interpreter@@@?$vector@UMATCH@Interpreter@@V?$allocator@UMATCH@Interpreter@@@std@@@std@@IAEPAUMATCH@Interpreter@@PAU23@00@Z 00455180 f i torq.obj
 0001:000541e0       ??$fill@PAUMATCH@Interpreter@@U12@@std@@YAXPAUMATCH@Interpreter@@0ABU12@@Z 004551e0 f i torq.obj
 0001:00054230       ??$copy_backward@PAUMATCH@Interpreter@@PAU12@@std@@YAPAUMATCH@Interpreter@@PAU12@00@Z 00455230 f i torq.obj
 0001:000542a0       ??$_Destroy@PAU_Node@?$_Tree_nod@V?$_Tmap_traits@V?$vector@HV?$allocator@H@std@@@std@@VTokenSequence@text@@U?$less@V?$vector@HV?$allocator@H@std@@@std@@@2@V?$allocator@U?$pair@$$CBV?$vector@HV?$allocator@H@std@@@std@@VTokenSequence@text@@@std@@@2@$0A@@std@@@std@@@std@@YAXPAPAU_Node@?$_Tree_nod@V?$_Tmap_traits@V?$vector@HV?$allocator@H@std@@@std@@VTokenSequence@text@@U?$less@V?$vector@HV?$allocator@H@std@@@std@@@2@V?$allocator@U?$pair@$$CBV?$vector@HV?$allocator@H@std@@@std@@VTokenSequence@text@@@std@@@2@$0A@@std@@@0@@Z 004552a0 f i torq.obj
 0001:000542d0       ??$_Destroy@PAU_Node@?$_Tree_nod@V?$_Tmap_traits@V?$vector@HV?$allocator@H@std@@@std@@JU?$less@V?$vector@HV?$allocator@H@std@@@std@@@2@V?$allocator@U?$pair@$$CBV?$vector@HV?$allocator@H@std@@@std@@J@std@@@2@$0A@@std@@@std@@@std@@YAXPAPAU_Node@?$_Tree_nod@V?$_Tmap_traits@V?$vector@HV?$allocator@H@std@@@std@@JU?$less@V?$vector@HV?$allocator@H@std@@@std@@@2@V?$allocator@U?$pair@$$CBV?$vector@HV?$allocator@H@std@@@std@@J@std@@@2@$0A@@std@@@0@@Z 004552d0 f i torq.obj
 0001:00054300       ??$copy@PAUTSL@Interpreter@@PAU12@@std@@YAPAUTSL@Interpreter@@PAU12@00@Z 00455300 f i torq.obj
 0001:00054370       ??$_Destroy_range@UTSL@Interpreter@@V?$allocator@UTSL@Interpreter@@@std@@@std@@YAXPAUTSL@Interpreter@@0AAV?$allocator@UTSL@Interpreter@@@0@@Z 00455370 f i torq.obj
 0001:000543e0       ??$_Ucopy@PAUTSL@Interpreter@@@?$vector@UTSL@Interpreter@@V?$allocator@UTSL@Interpreter@@@std@@@std@@IAEPAUTSL@Interpreter@@PAU23@00@Z 004553e0 f i torq.obj
 0001:00054440       ??$fill@PAUTSL@Interpreter@@U12@@std@@YAXPAUTSL@Interpreter@@0ABU12@@Z 00455440 f i torq.obj
 0001:000544a0       ??$copy_backward@PAUTSL@Interpreter@@PAU12@@std@@YAPAUTSL@Interpreter@@PAU12@00@Z 004554a0 f i torq.obj
 0001:00054510       ??$_Allocate@UTSL@Interpreter@@@std@@YAPAUTSL@Interpreter@@IPAU12@@Z 00455510 f i torq.obj
 0001:00054560       ??$_Destroy@PAU_Node@?$_Tree_nod@V?$_Tset_traits@JU?$less@J@std@@V?$allocator@J@2@$0A@@std@@@std@@@std@@YAXPAPAU_Node@?$_Tree_nod@V?$_Tset_traits@JU?$less@J@std@@V?$allocator@J@2@$0A@@std@@@0@@Z 00455560 f i torq.obj
 0001:00054590       ??$_Destroy@PAU_Node@?$_Tree_nod@V?$_Tset_traits@V?$vector@HV?$allocator@H@std@@@std@@U?$less@V?$vector@HV?$allocator@H@std@@@std@@@2@V?$allocator@V?$vector@HV?$allocator@H@std@@@std@@@2@$0A@@std@@@std@@@std@@YAXPAPAU_Node@?$_Tree_nod@V?$_Tset_traits@V?$vector@HV?$allocator@H@std@@@std@@U?$less@V?$vector@HV?$allocator@H@std@@@std@@@2@V?$allocator@V?$vector@HV?$allocator@H@std@@@std@@@2@$0A@@std@@@0@@Z 00455590 f i torq.obj
 0001:000545c0       ??$_Destroy@U_Node@?$_Tree_nod@V?$_Tmap_traits@V?$vector@HV?$allocator@H@std@@@std@@UNodeFormat@Helper@text@@U?$less@V?$vector@HV?$allocator@H@std@@@std@@@2@V?$allocator@U?$pair@$$CBV?$vector@HV?$allocator@H@std@@@std@@UNodeFormat@Helper@text@@@std@@@2@$0A@@std@@@std@@@std@@YAXPAU_Node@?$_Tree_nod@V?$_Tmap_traits@V?$vector@HV?$allocator@H@std@@@std@@UNodeFormat@Helper@text@@U?$less@V?$vector@HV?$allocator@H@std@@@std@@@2@V?$allocator@U?$pair@$$CBV?$vector@HV?$allocator@H@std@@@std@@UNodeFormat@Helper@text@@@std@@@2@$0A@@std@@@0@@Z 004555c0 f i torq.obj
 0001:00054600       ??$_Destroy@PAU_Node@?$_Tree_nod@V?$_Tmap_traits@V?$vector@HV?$allocator@H@std@@@std@@UNodeFormat@Helper@text@@U?$less@V?$vector@HV?$allocator@H@std@@@std@@@2@V?$allocator@U?$pair@$$CBV?$vector@HV?$allocator@H@std@@@std@@UNodeFormat@Helper@text@@@std@@@2@$0A@@std@@@std@@@std@@YAXPAPAU_Node@?$_Tree_nod@V?$_Tmap_traits@V?$vector@HV?$allocator@H@std@@@std@@UNodeFormat@Helper@text@@U?$less@V?$vector@HV?$allocator@H@std@@@std@@@2@V?$allocator@U?$pair@$$CBV?$vector@HV?$allocator@H@std@@@std@@UNodeFormat@Helper@text@@@std@@@2@$0A@@std@@@0@@Z 00455600 f i torq.obj
 0001:00054630       ??$_Destroy@PAU_Node@?$_Tree_nod@V?$_Tmap_traits@JV?$vector@HV?$allocator@H@std@@@std@@U?$less@J@2@V?$allocator@U?$pair@$$CBJV?$vector@HV?$allocator@H@std@@@std@@@std@@@2@$0A@@std@@@std@@@std@@YAXPAPAU_Node@?$_Tree_nod@V?$_Tmap_traits@JV?$vector@HV?$allocator@H@std@@@std@@U?$less@J@2@V?$allocator@U?$pair@$$CBJV?$vector@HV?$allocator@H@std@@@std@@@std@@@2@$0A@@std@@@0@@Z 00455630 f i torq.obj
 0001:00054660       ??$_Destroy_range@IV?$allocator@I@std@@@std@@YAXPAI0AAV?$allocator@I@0@@Z 00455660 f i torq.obj
 0001:000546d0       ?_Ptr_cat@std@@YA?AU_Scalar_ptr_iterator_tag@1@PAI0@Z 004556d0 f i torq.obj
 0001:00054730       ??$_Uninitialized_fill_n@PAPBDIPBDV?$allocator@PBD@std@@@std@@YAXPAPBDIABQBDAAV?$allocator@PBD@0@@Z 00455730 f i torq.obj
 0001:000547a0       ??$hash_value@H@stdext@@YAIABH@Z 004557a0 f i torq.obj
 0001:000547d0       ??$_Destroy@PAU_Node@?$_List_nod@U?$pair@$$CBJUNodeFormat@Helper@text@@@std@@V?$allocator@U?$pair@$$CBJUNodeFormat@Helper@text@@@std@@@2@@std@@@std@@YAXPAPAU_Node@?$_List_nod@U?$pair@$$CBJUNodeFormat@Helper@text@@@std@@V?$allocator@U?$pair@$$CBJUNodeFormat@Helper@text@@@std@@@2@@0@@Z 004557d0 f i torq.obj
 0001:00054800       ??$copy@PAViterator@?$list@U?$pair@$$CBJUNodeFormat@Helper@text@@@std@@V?$allocator@U?$pair@$$CBJUNodeFormat@Helper@text@@@std@@@2@@std@@PAV123@@std@@YAPAViterator@?$list@U?$pair@$$CBJUNodeFormat@Helper@text@@@std@@V?$allocator@U?$pair@$$CBJUNodeFormat@Helper@text@@@std@@@2@@0@PAV120@00@Z 00455800 f i torq.obj
 0001:00054870       ??$_Destroy_range@Viterator@?$list@U?$pair@$$CBJUNodeFormat@Helper@text@@@std@@V?$allocator@U?$pair@$$CBJUNodeFormat@Helper@text@@@std@@@2@@std@@V?$allocator@Viterator@?$list@U?$pair@$$CBJUNodeFormat@Helper@text@@@std@@V?$allocator@U?$pair@$$CBJUNodeFormat@Helper@text@@@std@@@2@@std@@@3@@std@@YAXPAViterator@?$list@U?$pair@$$CBJUNodeFormat@Helper@text@@@std@@V?$allocator@U?$pair@$$CBJUNodeFormat@Helper@text@@@std@@@2@@0@0AAV?$allocator@Viterator@?$list@U?$pair@$$CBJUNodeFormat@Helper@text@@@std@@V?$allocator@U?$pair@$$CBJUNodeFormat@Helper@text@@@std@@@2@@std@@@0@@Z 00455870 f i torq.obj
 0001:000548e0       ??$_Ucopy@PAViterator@?$list@U?$pair@$$CBJUNodeFormat@Helper@text@@@std@@V?$allocator@U?$pair@$$CBJUNodeFormat@Helper@text@@@std@@@2@@std@@@?$vector@Viterator@?$list@U?$pair@$$CBJUNodeFormat@Helper@text@@@std@@V?$allocator@U?$pair@$$CBJUNodeFormat@Helper@text@@@std@@@2@@std@@V?$allocator@Viterator@?$list@U?$pair@$$CBJUNodeFormat@Helper@text@@@std@@V?$allocator@U?$pair@$$CBJUNodeFormat@Helper@text@@@std@@@2@@std@@@3@@std@@IAEPAViterator@?$list@U?$pair@$$CBJUNodeFormat@Helper@text@@@std@@V?$allocator@U?$pair@$$CBJUNodeFormat@Helper@text@@@std@@@2@@1@PAV231@00@Z 004558e0 f i torq.obj
 0001:00054940       ??$fill@PAViterator@?$list@U?$pair@$$CBJUNodeFormat@Helper@text@@@std@@V?$allocator@U?$pair@$$CBJUNodeFormat@Helper@text@@@std@@@2@@std@@V123@@std@@YAXPAViterator@?$list@U?$pair@$$CBJUNodeFormat@Helper@text@@@std@@V?$allocator@U?$pair@$$CBJUNodeFormat@Helper@text@@@std@@@2@@0@0ABV120@@Z 00455940 f i torq.obj
 0001:00054990       ??$copy_backward@PAViterator@?$list@U?$pair@$$CBJUNodeFormat@Helper@text@@@std@@V?$allocator@U?$pair@$$CBJUNodeFormat@Helper@text@@@std@@@2@@std@@PAV123@@std@@YAPAViterator@?$list@U?$pair@$$CBJUNodeFormat@Helper@text@@@std@@V?$allocator@U?$pair@$$CBJUNodeFormat@Helper@text@@@std@@@2@@0@PAV120@00@Z 00455990 f i torq.obj
 0001:00054a00       ??$_Uninitialized_fill_n@PAU?$pair@_NUNodeFormatI@Helper@text@@@std@@IU12@V?$allocator@U?$pair@_NUNodeFormatI@Helper@text@@@std@@@2@@std@@YAXPAU?$pair@_NUNodeFormatI@Helper@text@@@0@IABU10@AAV?$allocator@U?$pair@_NUNodeFormatI@Helper@text@@@std@@@0@@Z 00455a00 f i torq.obj
 0001:00054a70       ??$swap@D@std@@YAXAAD0@Z   00455a70 f i torq.obj
 0001:00054ab0       ??$?0U?$pair@$$CBV?$vector@HV?$allocator@H@std@@@std@@VTokenSequence@text@@@std@@@?$allocator@PAU_Node@?$_Tree_nod@V?$_Tmap_traits@V?$vector@HV?$allocator@H@std@@@std@@VTokenSequence@text@@U?$less@V?$vector@HV?$allocator@H@std@@@std@@@2@V?$allocator@U?$pair@$$CBV?$vector@HV?$allocator@H@std@@@std@@VTokenSequence@text@@@std@@@2@$0A@@std@@@std@@@std@@QAE@ABV?$allocator@U?$pair@$$CBV?$vector@HV?$allocator@H@std@@@std@@VTokenSequence@text@@@std@@@1@@Z 00455ab0 f i torq.obj
 0001:00054ae0       ??$?0U?$pair@$$CBV?$vector@HV?$allocator@H@std@@@std@@J@std@@@?$allocator@PAU_Node@?$_Tree_nod@V?$_Tmap_traits@V?$vector@HV?$allocator@H@std@@@std@@JU?$less@V?$vector@HV?$allocator@H@std@@@std@@@2@V?$allocator@U?$pair@$$CBV?$vector@HV?$allocator@H@std@@@std@@J@std@@@2@$0A@@std@@@std@@@std@@QAE@ABV?$allocator@U?$pair@$$CBV?$vector@HV?$allocator@H@std@@@std@@J@std@@@1@@Z 00455ae0 f i torq.obj
 0001:00054b10       ??$_Uninitialized_fill_n@PAUTSL@Interpreter@@IU12@V?$allocator@UTSL@Interpreter@@@std@@@std@@YAXPAUTSL@Interpreter@@IABU12@AAV?$allocator@UTSL@Interpreter@@@0@@Z 00455b10 f i torq.obj
 0001:00054b80       ??$?0J@?$allocator@PAU_Node@?$_Tree_nod@V?$_Tset_traits@JU?$less@J@std@@V?$allocator@J@2@$0A@@std@@@std@@@std@@QAE@ABV?$allocator@J@1@@Z 00455b80 f i torq.obj
 0001:00054bb0       ??$_Allocate@U_Node@?$_Tree_nod@V?$_Tset_traits@JU?$less@J@std@@V?$allocator@J@2@$0A@@std@@@std@@@std@@YAPAU_Node@?$_Tree_nod@V?$_Tset_traits@JU?$less@J@std@@V?$allocator@J@2@$0A@@std@@@0@IPAU120@@Z 00455bb0 f i torq.obj
 0001:00054c00       ??$?0V?$vector@HV?$allocator@H@std@@@std@@@?$allocator@PAU_Node@?$_Tree_nod@V?$_Tset_traits@V?$vector@HV?$allocator@H@std@@@std@@U?$less@V?$vector@HV?$allocator@H@std@@@std@@@2@V?$allocator@V?$vector@HV?$allocator@H@std@@@std@@@2@$0A@@std@@@std@@@std@@QAE@ABV?$allocator@V?$vector@HV?$allocator@H@std@@@std@@@1@@Z 00455c00 f i torq.obj
 0001:00054c30       ??$_Allocate@U_Node@?$_Tree_nod@V?$_Tset_traits@V?$vector@HV?$allocator@H@std@@@std@@U?$less@V?$vector@HV?$allocator@H@std@@@std@@@2@V?$allocator@V?$vector@HV?$allocator@H@std@@@std@@@2@$0A@@std@@@std@@@std@@YAPAU_Node@?$_Tree_nod@V?$_Tset_traits@V?$vector@HV?$allocator@H@std@@@std@@U?$less@V?$vector@HV?$allocator@H@std@@@std@@@2@V?$allocator@V?$vector@HV?$allocator@H@std@@@std@@@2@$0A@@std@@@0@IPAU120@@Z 00455c30 f i torq.obj
 0001:00054c80       ??$?0U?$pair@$$CBV?$vector@HV?$allocator@H@std@@@std@@UNodeFormat@Helper@text@@@std@@@?$allocator@PAU_Node@?$_Tree_nod@V?$_Tmap_traits@V?$vector@HV?$allocator@H@std@@@std@@UNodeFormat@Helper@text@@U?$less@V?$vector@HV?$allocator@H@std@@@std@@@2@V?$allocator@U?$pair@$$CBV?$vector@HV?$allocator@H@std@@@std@@UNodeFormat@Helper@text@@@std@@@2@$0A@@std@@@std@@@std@@QAE@ABV?$allocator@U?$pair@$$CBV?$vector@HV?$allocator@H@std@@@std@@UNodeFormat@Helper@text@@@std@@@1@@Z 00455c80 f i torq.obj
 0001:00054cb0       ??$?0U?$pair@$$CBJV?$vector@HV?$allocator@H@std@@@std@@@std@@@?$allocator@PAU_Node@?$_Tree_nod@V?$_Tmap_traits@JV?$vector@HV?$allocator@H@std@@@std@@U?$less@J@2@V?$allocator@U?$pair@$$CBJV?$vector@HV?$allocator@H@std@@@std@@@std@@@2@$0A@@std@@@std@@@std@@QAE@ABV?$allocator@U?$pair@$$CBJV?$vector@HV?$allocator@H@std@@@std@@@std@@@1@@Z 00455cb0 f i torq.obj
 0001:00054ce0       ??$?0U?$pair@$$CBJUNodeFormat@Helper@text@@@std@@@?$allocator@PAU_Node@?$_List_nod@U?$pair@$$CBJUNodeFormat@Helper@text@@@std@@V?$allocator@U?$pair@$$CBJUNodeFormat@Helper@text@@@std@@@2@@std@@@std@@QAE@ABV?$allocator@U?$pair@$$CBJUNodeFormat@Helper@text@@@std@@@1@@Z 00455ce0 f i torq.obj
 0001:00054d10       ??$_Allocate@U_Node@?$_List_nod@U?$pair@$$CBJUNodeFormat@Helper@text@@@std@@V?$allocator@U?$pair@$$CBJUNodeFormat@Helper@text@@@std@@@2@@std@@@std@@YAPAU_Node@?$_List_nod@U?$pair@$$CBJUNodeFormat@Helper@text@@@std@@V?$allocator@U?$pair@$$CBJUNodeFormat@Helper@text@@@std@@@2@@0@IPAU120@@Z 00455d10 f i torq.obj
 0001:00054d60       ??$_Destroy@U_Node@?$_List_nod@U?$pair@$$CBJUNodeFormat@Helper@text@@@std@@V?$allocator@U?$pair@$$CBJUNodeFormat@Helper@text@@@std@@@2@@std@@@std@@YAXPAU_Node@?$_List_nod@U?$pair@$$CBJUNodeFormat@Helper@text@@@std@@V?$allocator@U?$pair@$$CBJUNodeFormat@Helper@text@@@std@@@2@@0@@Z 00455d60 f i torq.obj
 0001:00054da0       ??$_Construct@PAU_Node@?$_List_nod@U?$pair@$$CBJUNodeFormat@Helper@text@@@std@@V?$allocator@U?$pair@$$CBJUNodeFormat@Helper@text@@@std@@@2@@std@@PAU123@@std@@YAXPAPAU_Node@?$_List_nod@U?$pair@$$CBJUNodeFormat@Helper@text@@@std@@V?$allocator@U?$pair@$$CBJUNodeFormat@Helper@text@@@std@@@2@@0@ABQAU120@@Z 00455da0 f i torq.obj
 0001:00054e20       ??$_Uninitialized_fill_n@PAViterator@?$list@U?$pair@$$CBJUNodeFormat@Helper@text@@@std@@V?$allocator@U?$pair@$$CBJUNodeFormat@Helper@text@@@std@@@2@@std@@IV123@V?$allocator@Viterator@?$list@U?$pair@$$CBJUNodeFormat@Helper@text@@@std@@V?$allocator@U?$pair@$$CBJUNodeFormat@Helper@text@@@std@@@2@@std@@@3@@std@@YAXPAViterator@?$list@U?$pair@$$CBJUNodeFormat@Helper@text@@@std@@V?$allocator@U?$pair@$$CBJUNodeFormat@Helper@text@@@std@@@2@@0@IABV120@AAV?$allocator@Viterator@?$list@U?$pair@$$CBJUNodeFormat@Helper@text@@@std@@V?$allocator@U?$pair@$$CBJUNodeFormat@Helper@text@@@std@@@2@@std@@@0@@Z 00455e20 f i torq.obj
 0001:00054e90       ??$_Allocate@Viterator@?$list@U?$pair@$$CBJUNodeFormat@Helper@text@@@std@@V?$allocator@U?$pair@$$CBJUNodeFormat@Helper@text@@@std@@@2@@std@@@std@@YAPAViterator@?$list@U?$pair@$$CBJUNodeFormat@Helper@text@@@std@@V?$allocator@U?$pair@$$CBJUNodeFormat@Helper@text@@@std@@@2@@0@IPAV120@@Z 00455e90 f i torq.obj
 0001:00054ee0       ??$?0U?$pair@$$CBV?$vector@HV?$allocator@H@std@@@std@@VTokenSequence@text@@@std@@@?$allocator@U_Node@?$_Tree_nod@V?$_Tmap_traits@V?$vector@HV?$allocator@H@std@@@std@@VTokenSequence@text@@U?$less@V?$vector@HV?$allocator@H@std@@@std@@@2@V?$allocator@U?$pair@$$CBV?$vector@HV?$allocator@H@std@@@std@@VTokenSequence@text@@@std@@@2@$0A@@std@@@std@@@std@@QAE@ABV?$allocator@U?$pair@$$CBV?$vector@HV?$allocator@H@std@@@std@@VTokenSequence@text@@@std@@@1@@Z 00455ee0 f i torq.obj
 0001:00054f10       ??$_Allocate@U_Node@?$_Tree_nod@V?$_Tmap_traits@V?$vector@HV?$allocator@H@std@@@std@@VTokenSequence@text@@U?$less@V?$vector@HV?$allocator@H@std@@@std@@@2@V?$allocator@U?$pair@$$CBV?$vector@HV?$allocator@H@std@@@std@@VTokenSequence@text@@@std@@@2@$0A@@std@@@std@@@std@@YAPAU_Node@?$_Tree_nod@V?$_Tmap_traits@V?$vector@HV?$allocator@H@std@@@std@@VTokenSequence@text@@U?$less@V?$vector@HV?$allocator@H@std@@@std@@@2@V?$allocator@U?$pair@$$CBV?$vector@HV?$allocator@H@std@@@std@@VTokenSequence@text@@@std@@@2@$0A@@std@@@0@IPAU120@@Z 00455f10 f i torq.obj
 0001:00054f60       ??$_Destroy@U_Node@?$_Tree_nod@V?$_Tmap_traits@V?$vector@HV?$allocator@H@std@@@std@@VTokenSequence@text@@U?$less@V?$vector@HV?$allocator@H@std@@@std@@@2@V?$allocator@U?$pair@$$CBV?$vector@HV?$allocator@H@std@@@std@@VTokenSequence@text@@@std@@@2@$0A@@std@@@std@@@std@@YAXPAU_Node@?$_Tree_nod@V?$_Tmap_traits@V?$vector@HV?$allocator@H@std@@@std@@VTokenSequence@text@@U?$less@V?$vector@HV?$allocator@H@std@@@std@@@2@V?$allocator@U?$pair@$$CBV?$vector@HV?$allocator@H@std@@@std@@VTokenSequence@text@@@std@@@2@$0A@@std@@@0@@Z 00455f60 f i torq.obj
 0001:00054fa0       ??$_Construct@PAU_Node@?$_Tree_nod@V?$_Tmap_traits@V?$vector@HV?$allocator@H@std@@@std@@VTokenSequence@text@@U?$less@V?$vector@HV?$allocator@H@std@@@std@@@2@V?$allocator@U?$pair@$$CBV?$vector@HV?$allocator@H@std@@@std@@VTokenSequence@text@@@std@@@2@$0A@@std@@@std@@PAU123@@std@@YAXPAPAU_Node@?$_Tree_nod@V?$_Tmap_traits@V?$vector@HV?$allocator@H@std@@@std@@VTokenSequence@text@@U?$less@V?$vector@HV?$allocator@H@std@@@std@@@2@V?$allocator@U?$pair@$$CBV?$vector@HV?$allocator@H@std@@@std@@VTokenSequence@text@@@std@@@2@$0A@@std@@@0@ABQAU120@@Z 00455fa0 f i torq.obj
 0001:00055020       ??$?0U?$pair@$$CBV?$vector@HV?$allocator@H@std@@@std@@J@std@@@?$allocator@U_Node@?$_Tree_nod@V?$_Tmap_traits@V?$vector@HV?$allocator@H@std@@@std@@JU?$less@V?$vector@HV?$allocator@H@std@@@std@@@2@V?$allocator@U?$pair@$$CBV?$vector@HV?$allocator@H@std@@@std@@J@std@@@2@$0A@@std@@@std@@@std@@QAE@ABV?$allocator@U?$pair@$$CBV?$vector@HV?$allocator@H@std@@@std@@J@std@@@1@@Z 00456020 f i torq.obj
 0001:00055050       ??$_Allocate@U_Node@?$_Tree_nod@V?$_Tmap_traits@V?$vector@HV?$allocator@H@std@@@std@@JU?$less@V?$vector@HV?$allocator@H@std@@@std@@@2@V?$allocator@U?$pair@$$CBV?$vector@HV?$allocator@H@std@@@std@@J@std@@@2@$0A@@std@@@std@@@std@@YAPAU_Node@?$_Tree_nod@V?$_Tmap_traits@V?$vector@HV?$allocator@H@std@@@std@@JU?$less@V?$vector@HV?$allocator@H@std@@@std@@@2@V?$allocator@U?$pair@$$CBV?$vector@HV?$allocator@H@std@@@std@@J@std@@@2@$0A@@std@@@0@IPAU120@@Z 00456050 f i torq.obj
 0001:000550a0       ??$_Destroy@U_Node@?$_Tree_nod@V?$_Tmap_traits@V?$vector@HV?$allocator@H@std@@@std@@JU?$less@V?$vector@HV?$allocator@H@std@@@std@@@2@V?$allocator@U?$pair@$$CBV?$vector@HV?$allocator@H@std@@@std@@J@std@@@2@$0A@@std@@@std@@@std@@YAXPAU_Node@?$_Tree_nod@V?$_Tmap_traits@V?$vector@HV?$allocator@H@std@@@std@@JU?$less@V?$vector@HV?$allocator@H@std@@@std@@@2@V?$allocator@U?$pair@$$CBV?$vector@HV?$allocator@H@std@@@std@@J@std@@@2@$0A@@std@@@0@@Z 004560a0 f i torq.obj
 0001:000550e0       ??$_Construct@PAU_Node@?$_Tree_nod@V?$_Tmap_traits@V?$vector@HV?$allocator@H@std@@@std@@JU?$less@V?$vector@HV?$allocator@H@std@@@std@@@2@V?$allocator@U?$pair@$$CBV?$vector@HV?$allocator@H@std@@@std@@J@std@@@2@$0A@@std@@@std@@PAU123@@std@@YAXPAPAU_Node@?$_Tree_nod@V?$_Tmap_traits@V?$vector@HV?$allocator@H@std@@@std@@JU?$less@V?$vector@HV?$allocator@H@std@@@std@@@2@V?$allocator@U?$pair@$$CBV?$vector@HV?$allocator@H@std@@@std@@J@std@@@2@$0A@@std@@@0@ABQAU120@@Z 004560e0 f i torq.obj
 0001:00055160       ??$?0J@?$allocator@U_Node@?$_Tree_nod@V?$_Tset_traits@JU?$less@J@std@@V?$allocator@J@2@$0A@@std@@@std@@@std@@QAE@ABV?$allocator@J@1@@Z 00456160 f i torq.obj
 0001:00055190       ??$_Destroy@U_Node@?$_Tree_nod@V?$_Tset_traits@JU?$less@J@std@@V?$allocator@J@2@$0A@@std@@@std@@@std@@YAXPAU_Node@?$_Tree_nod@V?$_Tset_traits@JU?$less@J@std@@V?$allocator@J@2@$0A@@std@@@0@@Z 00456190 f i torq.obj
 0001:000551c0       ??$_Construct@PAU_Node@?$_Tree_nod@V?$_Tset_traits@JU?$less@J@std@@V?$allocator@J@2@$0A@@std@@@std@@PAU123@@std@@YAXPAPAU_Node@?$_Tree_nod@V?$_Tset_traits@JU?$less@J@std@@V?$allocator@J@2@$0A@@std@@@0@ABQAU120@@Z 004561c0 f i torq.obj
 0001:00055240       ??$?0V?$vector@HV?$allocator@H@std@@@std@@@?$allocator@U_Node@?$_Tree_nod@V?$_Tset_traits@V?$vector@HV?$allocator@H@std@@@std@@U?$less@V?$vector@HV?$allocator@H@std@@@std@@@2@V?$allocator@V?$vector@HV?$allocator@H@std@@@std@@@2@$0A@@std@@@std@@@std@@QAE@ABV?$allocator@V?$vector@HV?$allocator@H@std@@@std@@@1@@Z 00456240 f i torq.obj
 0001:00055270       ??$_Destroy@U_Node@?$_Tree_nod@V?$_Tset_traits@V?$vector@HV?$allocator@H@std@@@std@@U?$less@V?$vector@HV?$allocator@H@std@@@std@@@2@V?$allocator@V?$vector@HV?$allocator@H@std@@@std@@@2@$0A@@std@@@std@@@std@@YAXPAU_Node@?$_Tree_nod@V?$_Tset_traits@V?$vector@HV?$allocator@H@std@@@std@@U?$less@V?$vector@HV?$allocator@H@std@@@std@@@2@V?$allocator@V?$vector@HV?$allocator@H@std@@@std@@@2@$0A@@std@@@0@@Z 00456270 f i torq.obj
 0001:000552b0       ??$_Construct@PAU_Node@?$_Tree_nod@V?$_Tset_traits@V?$vector@HV?$allocator@H@std@@@std@@U?$less@V?$vector@HV?$allocator@H@std@@@std@@@2@V?$allocator@V?$vector@HV?$allocator@H@std@@@std@@@2@$0A@@std@@@std@@PAU123@@std@@YAXPAPAU_Node@?$_Tree_nod@V?$_Tset_traits@V?$vector@HV?$allocator@H@std@@@std@@U?$less@V?$vector@HV?$allocator@H@std@@@std@@@2@V?$allocator@V?$vector@HV?$allocator@H@std@@@std@@@2@$0A@@std@@@0@ABQAU120@@Z 004562b0 f i torq.obj
 0001:00055330       ??$?0U?$pair@$$CBV?$vector@HV?$allocator@H@std@@@std@@UNodeFormat@Helper@text@@@std@@@?$allocator@U_Node@?$_Tree_nod@V?$_Tmap_traits@V?$vector@HV?$allocator@H@std@@@std@@UNodeFormat@Helper@text@@U?$less@V?$vector@HV?$allocator@H@std@@@std@@@2@V?$allocator@U?$pair@$$CBV?$vector@HV?$allocator@H@std@@@std@@UNodeFormat@Helper@text@@@std@@@2@$0A@@std@@@std@@@std@@QAE@ABV?$allocator@U?$pair@$$CBV?$vector@HV?$allocator@H@std@@@std@@UNodeFormat@Helper@text@@@std@@@1@@Z 00456330 f i torq.obj
 0001:00055360       ??$_Allocate@U_Node@?$_Tree_nod@V?$_Tmap_traits@V?$vector@HV?$allocator@H@std@@@std@@UNodeFormat@Helper@text@@U?$less@V?$vector@HV?$allocator@H@std@@@std@@@2@V?$allocator@U?$pair@$$CBV?$vector@HV?$allocator@H@std@@@std@@UNodeFormat@Helper@text@@@std@@@2@$0A@@std@@@std@@@std@@YAPAU_Node@?$_Tree_nod@V?$_Tmap_traits@V?$vector@HV?$allocator@H@std@@@std@@UNodeFormat@Helper@text@@U?$less@V?$vector@HV?$allocator@H@std@@@std@@@2@V?$allocator@U?$pair@$$CBV?$vector@HV?$allocator@H@std@@@std@@UNodeFormat@Helper@text@@@std@@@2@$0A@@std@@@0@IPAU120@@Z 00456360 f i torq.obj
 0001:000553b0       ??$_Construct@PAU_Node@?$_Tree_nod@V?$_Tmap_traits@V?$vector@HV?$allocator@H@std@@@std@@UNodeFormat@Helper@text@@U?$less@V?$vector@HV?$allocator@H@std@@@std@@@2@V?$allocator@U?$pair@$$CBV?$vector@HV?$allocator@H@std@@@std@@UNodeFormat@Helper@text@@@std@@@2@$0A@@std@@@std@@PAU123@@std@@YAXPAPAU_Node@?$_Tree_nod@V?$_Tmap_traits@V?$vector@HV?$allocator@H@std@@@std@@UNodeFormat@Helper@text@@U?$less@V?$vector@HV?$allocator@H@std@@@std@@@2@V?$allocator@U?$pair@$$CBV?$vector@HV?$allocator@H@std@@@std@@UNodeFormat@Helper@text@@@std@@@2@$0A@@std@@@0@ABQAU120@@Z 004563b0 f i torq.obj
 0001:00055430       ??$?0U?$pair@$$CBJV?$vector@HV?$allocator@H@std@@@std@@@std@@@?$allocator@U_Node@?$_Tree_nod@V?$_Tmap_traits@JV?$vector@HV?$allocator@H@std@@@std@@U?$less@J@2@V?$allocator@U?$pair@$$CBJV?$vector@HV?$allocator@H@std@@@std@@@std@@@2@$0A@@std@@@std@@@std@@QAE@ABV?$allocator@U?$pair@$$CBJV?$vector@HV?$allocator@H@std@@@std@@@std@@@1@@Z 00456430 f i torq.obj
 0001:00055460       ??$_Allocate@U_Node@?$_Tree_nod@V?$_Tmap_traits@JV?$vector@HV?$allocator@H@std@@@std@@U?$less@J@2@V?$allocator@U?$pair@$$CBJV?$vector@HV?$allocator@H@std@@@std@@@std@@@2@$0A@@std@@@std@@@std@@YAPAU_Node@?$_Tree_nod@V?$_Tmap_traits@JV?$vector@HV?$allocator@H@std@@@std@@U?$less@J@2@V?$allocator@U?$pair@$$CBJV?$vector@HV?$allocator@H@std@@@std@@@std@@@2@$0A@@std@@@0@IPAU120@@Z 00456460 f i torq.obj
 0001:000554b0       ??$_Destroy@U_Node@?$_Tree_nod@V?$_Tmap_traits@JV?$vector@HV?$allocator@H@std@@@std@@U?$less@J@2@V?$allocator@U?$pair@$$CBJV?$vector@HV?$allocator@H@std@@@std@@@std@@@2@$0A@@std@@@std@@@std@@YAXPAU_Node@?$_Tree_nod@V?$_Tmap_traits@JV?$vector@HV?$allocator@H@std@@@std@@U?$less@J@2@V?$allocator@U?$pair@$$CBJV?$vector@HV?$allocator@H@std@@@std@@@std@@@2@$0A@@std@@@0@@Z 004564b0 f i torq.obj
 0001:000554f0       ??$_Construct@PAU_Node@?$_Tree_nod@V?$_Tmap_traits@JV?$vector@HV?$allocator@H@std@@@std@@U?$less@J@2@V?$allocator@U?$pair@$$CBJV?$vector@HV?$allocator@H@std@@@std@@@std@@@2@$0A@@std@@@std@@PAU123@@std@@YAXPAPAU_Node@?$_Tree_nod@V?$_Tmap_traits@JV?$vector@HV?$allocator@H@std@@@std@@U?$less@J@2@V?$allocator@U?$pair@$$CBJV?$vector@HV?$allocator@H@std@@@std@@@std@@@2@$0A@@std@@@0@ABQAU120@@Z 004564f0 f i torq.obj
 0001:00055570       ??$?0U?$pair@$$CBJUNodeFormat@Helper@text@@@std@@@?$allocator@U_Node@?$_List_nod@U?$pair@$$CBJUNodeFormat@Helper@text@@@std@@V?$allocator@U?$pair@$$CBJUNodeFormat@Helper@text@@@std@@@2@@std@@@std@@QAE@ABV?$allocator@U?$pair@$$CBJUNodeFormat@Helper@text@@@std@@@1@@Z 00456570 f i torq.obj
 0001:000555a0       ??_Glocale@std@@QAEPAXI@Z  004565a0 f i torq.obj
 0001:00055600       ??_G_DebugHeapString@std@@QAEPAXI@Z 00456600 f i torq.obj
 0001:00055660       ??0Win32Exception@win32@@QAE@ABV01@@Z 00456660 f i torq.obj
 0001:000556c0       ??0runtime_error@std@@QAE@ABV01@@Z 004566c0 f i torq.obj
 0001:00055750       ??4?$pair@_NUNodeFormatI@Helper@text@@@std@@QAEAAU01@ABU01@@Z 00456750 f i torq.obj
 0001:000557b0       ??4TSL@Interpreter@@QAEAAU01@ABU01@@Z 004567b0 f i torq.obj
 0001:00055830       ??_G_Node@?$_Tree_nod@V?$_Tmap_traits@V?$vector@HV?$allocator@H@std@@@std@@UNodeFormat@Helper@text@@U?$less@V?$vector@HV?$allocator@H@std@@@std@@@2@V?$allocator@U?$pair@$$CBV?$vector@HV?$allocator@H@std@@@std@@UNodeFormat@Helper@text@@@std@@@2@$0A@@std@@@std@@QAEPAXI@Z 00456830 f i torq.obj
 0001:00055890       ??_G_Node@?$_List_nod@U?$pair@$$CBJUNodeFormat@Helper@text@@@std@@V?$allocator@U?$pair@$$CBJUNodeFormat@Helper@text@@@std@@@2@@std@@QAEPAXI@Z 00456890 f i torq.obj
 0001:000558f0       ??_G_Node@?$_Tree_nod@V?$_Tmap_traits@V?$vector@HV?$allocator@H@std@@@std@@VTokenSequence@text@@U?$less@V?$vector@HV?$allocator@H@std@@@std@@@2@V?$allocator@U?$pair@$$CBV?$vector@HV?$allocator@H@std@@@std@@VTokenSequence@text@@@std@@@2@$0A@@std@@@std@@QAEPAXI@Z 004568f0 f i torq.obj
 0001:00055950       ??_G_Node@?$_Tree_nod@V?$_Tmap_traits@V?$vector@HV?$allocator@H@std@@@std@@JU?$less@V?$vector@HV?$allocator@H@std@@@std@@@2@V?$allocator@U?$pair@$$CBV?$vector@HV?$allocator@H@std@@@std@@J@std@@@2@$0A@@std@@@std@@QAEPAXI@Z 00456950 f i torq.obj
 0001:000559b0       ??_G_Node@?$_Tree_nod@V?$_Tset_traits@V?$vector@HV?$allocator@H@std@@@std@@U?$less@V?$vector@HV?$allocator@H@std@@@std@@@2@V?$allocator@V?$vector@HV?$allocator@H@std@@@std@@@2@$0A@@std@@@std@@QAEPAXI@Z 004569b0 f i torq.obj
 0001:00055a10       ??_G_Node@?$_Tree_nod@V?$_Tmap_traits@JV?$vector@HV?$allocator@H@std@@@std@@U?$less@J@2@V?$allocator@U?$pair@$$CBJV?$vector@HV?$allocator@H@std@@@std@@@std@@@2@$0A@@std@@@std@@QAEPAXI@Z 00456a10 f i torq.obj
 0001:00055a70       ??1_DebugHeapString@std@@QAE@XZ 00456a70 f i torq.obj
 0001:00055ab0       ??1?$basic_string@DU?$char_traits@D@std@@V?$_DebugHeapAllocator@D@2@@std@@QAE@XZ 00456ab0 f i torq.obj
 0001:00055b00       ??1_Node@?$_Tree_nod@V?$_Tmap_traits@V?$vector@HV?$allocator@H@std@@@std@@UNodeFormat@Helper@text@@U?$less@V?$vector@HV?$allocator@H@std@@@std@@@2@V?$allocator@U?$pair@$$CBV?$vector@HV?$allocator@H@std@@@std@@UNodeFormat@Helper@text@@@std@@@2@$0A@@std@@@std@@QAE@XZ 00456b00 f i torq.obj
 0001:00055b50       ??1_Node@?$_List_nod@U?$pair@$$CBJUNodeFormat@Helper@text@@@std@@V?$allocator@U?$pair@$$CBJUNodeFormat@Helper@text@@@std@@@2@@std@@QAE@XZ 00456b50 f i torq.obj
 0001:00055ba0       ??1_Node@?$_Tree_nod@V?$_Tmap_traits@V?$vector@HV?$allocator@H@std@@@std@@VTokenSequence@text@@U?$less@V?$vector@HV?$allocator@H@std@@@std@@@2@V?$allocator@U?$pair@$$CBV?$vector@HV?$allocator@H@std@@@std@@VTokenSequence@text@@@std@@@2@$0A@@std@@@std@@QAE@XZ 00456ba0 f i torq.obj
 0001:00055bf0       ??1_Node@?$_Tree_nod@V?$_Tmap_traits@V?$vector@HV?$allocator@H@std@@@std@@JU?$less@V?$vector@HV?$allocator@H@std@@@std@@@2@V?$allocator@U?$pair@$$CBV?$vector@HV?$allocator@H@std@@@std@@J@std@@@2@$0A@@std@@@std@@QAE@XZ 00456bf0 f i torq.obj
 0001:00055c40       ??1_Node@?$_Tree_nod@V?$_Tset_traits@V?$vector@HV?$allocator@H@std@@@std@@U?$less@V?$vector@HV?$allocator@H@std@@@std@@@2@V?$allocator@V?$vector@HV?$allocator@H@std@@@std@@@2@$0A@@std@@@std@@QAE@XZ 00456c40 f i torq.obj
 0001:00055c90       ??1_Node@?$_Tree_nod@V?$_Tmap_traits@JV?$vector@HV?$allocator@H@std@@@std@@U?$less@J@2@V?$allocator@U?$pair@$$CBJV?$vector@HV?$allocator@H@std@@@std@@@std@@@2@$0A@@std@@@std@@QAE@XZ 00456c90 f i torq.obj
 0001:00055ce0       ?compare@?$basic_string@DU?$char_traits@D@std@@V?$allocator@D@2@@std@@QBEHPBD@Z 00456ce0 f i torq.obj
 0001:00055d40       ?allocate@?$allocator@D@std@@QAEPADIPBX@Z 00456d40 f i torq.obj
 0001:00055d90       ?pbase@?$basic_streambuf@DU?$char_traits@D@std@@@std@@IBEPADXZ 00456d90 f i torq.obj
 0001:00055dd0       ??0?$optional@Vlocale@std@@@boost@@QAE@XZ 00456dd0 f i torq.obj
 0001:00055e20       ??0?$vector@_NV?$allocator@_N@std@@@std@@QAE@XZ 00456e20 f i torq.obj
 0001:00055e70       ??0?$vector@U?$format_item@DU?$char_traits@D@std@@V?$allocator@D@2@@detail@io@boost@@V?$allocator@U?$format_item@DU?$char_traits@D@std@@V?$allocator@D@2@@detail@io@boost@@@std@@@std@@QAE@XZ 00456e70 f i torq.obj
 0001:00055ed0       ?size@?$vector@U?$format_item@DU?$char_traits@D@std@@V?$allocator@D@2@@detail@io@boost@@V?$allocator@U?$format_item@DU?$char_traits@D@std@@V?$allocator@D@2@@detail@io@boost@@@std@@@std@@QBEIXZ 00456ed0 f i torq.obj
 0001:00055f30       ??A?$vector@U?$format_item@DU?$char_traits@D@std@@V?$allocator@D@2@@detail@io@boost@@V?$allocator@U?$format_item@DU?$char_traits@D@std@@V?$allocator@D@2@@detail@io@boost@@@std@@@std@@QBEABU?$format_item@DU?$char_traits@D@std@@V?$allocator@D@2@@detail@io@boost@@I@Z 00456f30 f i torq.obj
 0001:00055fa0       ??0?$basic_altstringbuf@DU?$char_traits@D@std@@V?$allocator@D@2@@io@boost@@QAE@H@Z 00456fa0 f i torq.obj
 0001:00056040       ??Diterator@?$_Tree@V?$_Tset_traits@JU?$less@J@std@@V?$allocator@J@2@$0A@@std@@@std@@QBEAAJXZ 00457040 f i torq.obj
 0001:00056080       ?_Getcat@?$num_put@DV?$ostreambuf_iterator@DU?$char_traits@D@std@@@std@@@std@@SAIPAPBVfacet@locale@2@@Z 00457080 f i torq.obj
 0001:00056150       ?_Getcat@?$codecvt@DDH@std@@SAIPAPBVfacet@locale@2@@Z 00457150 f i torq.obj
 0001:00056220       ??0?$optional_base@Vlocale@std@@@optional_detail@boost@@IAE@XZ 00457220 f i torq.obj
 0001:00056260       ??0?$vector@IV?$allocator@I@std@@@std@@QAE@XZ 00457260 f i torq.obj
 0001:000562c0       ?begin@?$vector@U?$format_item@DU?$char_traits@D@std@@V?$allocator@D@2@@detail@io@boost@@V?$allocator@U?$format_item@DU?$char_traits@D@std@@V?$allocator@D@2@@detail@io@boost@@@std@@@std@@QBE?AVconst_iterator@12@XZ 004572c0 f i torq.obj
 0001:00056310       ?_Buy@?$vector@U?$format_item@DU?$char_traits@D@std@@V?$allocator@D@2@@detail@io@boost@@V?$allocator@U?$format_item@DU?$char_traits@D@std@@V?$allocator@D@2@@detail@io@boost@@@std@@@std@@IAE_NI@Z 00457310 f i torq.obj
 0001:000563c0       ??0?$_Vector_val@U?$format_item@DU?$char_traits@D@std@@V?$allocator@D@2@@detail@io@boost@@V?$allocator@U?$format_item@DU?$char_traits@D@std@@V?$allocator@D@2@@detail@io@boost@@@std@@@std@@IAE@V?$allocator@U?$format_item@DU?$char_traits@D@std@@V?$allocator@D@2@@detail@io@boost@@@1@@Z 004573c0 f i torq.obj
 0001:00056410       ??0?$allocator@U?$format_item@DU?$char_traits@D@std@@V?$allocator@D@2@@detail@io@boost@@@std@@QAE@XZ 00457410 f i torq.obj
 0001:00056440       ??0?$num_put@DV?$ostreambuf_iterator@DU?$char_traits@D@std@@@std@@@std@@QAE@I@Z 00457440 f i torq.obj
 0001:00056510       ?do_put@?$num_put@DV?$ostreambuf_iterator@DU?$char_traits@D@std@@@std@@@std@@MBE?AV?$ostreambuf_iterator@DU?$char_traits@D@std@@@2@V32@AAVios_base@2@D_N@Z 00457510 f i torq.obj
 0001:000567d0       ?do_put@?$num_put@DV?$ostreambuf_iterator@DU?$char_traits@D@std@@@std@@@std@@MBE?AV?$ostreambuf_iterator@DU?$char_traits@D@std@@@2@V32@AAVios_base@2@DJ@Z 004577d0 f i torq.obj
 0001:000568a0       ?do_put@?$num_put@DV?$ostreambuf_iterator@DU?$char_traits@D@std@@@std@@@std@@MBE?AV?$ostreambuf_iterator@DU?$char_traits@D@std@@@2@V32@AAVios_base@2@DK@Z 004578a0 f i torq.obj
 0001:00056970       ?do_put@?$num_put@DV?$ostreambuf_iterator@DU?$char_traits@D@std@@@std@@@std@@MBE?AV?$ostreambuf_iterator@DU?$char_traits@D@std@@@2@V32@AAVios_base@2@D_J@Z 00457970 f i torq.obj
 0001:00056a40       ?do_put@?$num_put@DV?$ostreambuf_iterator@DU?$char_traits@D@std@@@std@@@std@@MBE?AV?$ostreambuf_iterator@DU?$char_traits@D@std@@@2@V32@AAVios_base@2@D_K@Z 00457a40 f i torq.obj
 0001:00056b10       ?do_put@?$num_put@DV?$ostreambuf_iterator@DU?$char_traits@D@std@@@std@@@std@@MBE?AV?$ostreambuf_iterator@DU?$char_traits@D@std@@@2@V32@AAVios_base@2@DN@Z 00457b10 f i torq.obj
 0001:00056da0       ?precision@ios_base@std@@QBEHXZ 00457da0 f i torq.obj
 0001:00056dd0       ?do_put@?$num_put@DV?$ostreambuf_iterator@DU?$char_traits@D@std@@@std@@@std@@MBE?AV?$ostreambuf_iterator@DU?$char_traits@D@std@@@2@V32@AAVios_base@2@DO@Z 00457dd0 f i torq.obj
 0001:00057060       ?do_put@?$num_put@DV?$ostreambuf_iterator@DU?$char_traits@D@std@@@std@@@std@@MBE?AV?$ostreambuf_iterator@DU?$char_traits@D@std@@@2@V32@AAVios_base@2@DPBX@Z 00458060 f i torq.obj
 0001:00057100       ??_E?$num_put@DV?$ostreambuf_iterator@DU?$char_traits@D@std@@@std@@@std@@MAEPAXI@Z 00458100 f i torq.obj
 0001:00057100       ??_G?$num_put@DV?$ostreambuf_iterator@DU?$char_traits@D@std@@@std@@@std@@MAEPAXI@Z 00458100 f i torq.obj
 0001:00057160       ??1?$num_put@DV?$ostreambuf_iterator@DU?$char_traits@D@std@@@std@@@std@@MAE@XZ 00458160 f i torq.obj
 0001:000571b0       ?_Ffmt@?$num_put@DV?$ostreambuf_iterator@DU?$char_traits@D@std@@@std@@@std@@ABAPADPADDH@Z 004581b0 f i torq.obj
 0001:000572a0       ?_Fput@?$num_put@DV?$ostreambuf_iterator@DU?$char_traits@D@std@@@std@@@std@@ABA?AV?$ostreambuf_iterator@DU?$char_traits@D@std@@@2@V32@AAVios_base@2@DPBDIIII@Z 004582a0 f i torq.obj
 0001:00057a10       ?_Ifmt@?$num_put@DV?$ostreambuf_iterator@DU?$char_traits@D@std@@@std@@@std@@ABAPADPADPBDH@Z 00458a10 f i torq.obj
 0001:00057b40       ?_Iput@?$num_put@DV?$ostreambuf_iterator@DU?$char_traits@D@std@@@std@@@std@@ABA?AV?$ostreambuf_iterator@DU?$char_traits@D@std@@@2@V32@AAVios_base@2@DPADI@Z 00458b40 f i torq.obj
 0001:00057ed0       ?_Put@?$num_put@DV?$ostreambuf_iterator@DU?$char_traits@D@std@@@std@@@std@@ABA?AV?$ostreambuf_iterator@DU?$char_traits@D@std@@@2@V32@PBDI@Z 00458ed0 f i torq.obj
 0001:00057f50       ?_Rep@?$num_put@DV?$ostreambuf_iterator@DU?$char_traits@D@std@@@std@@@std@@ABA?AV?$ostreambuf_iterator@DU?$char_traits@D@std@@@2@V32@DI@Z 00458f50 f i torq.obj
 0001:00057fd0       ?falsename@?$numpunct@D@std@@QBE?AV?$basic_string@DU?$char_traits@D@std@@V?$allocator@D@2@@2@XZ 00458fd0 f i torq.obj
 0001:00058040       ?truename@?$numpunct@D@std@@QBE?AV?$basic_string@DU?$char_traits@D@std@@V?$allocator@D@2@@2@XZ 00459040 f i torq.obj
 0001:000580b0       ?insert@?$basic_string@DU?$char_traits@D@std@@V?$allocator@D@2@@std@@QAEAAV12@IID@Z 004590b0 f i torq.obj
 0001:000581a0       ?_Putc@?$num_put@DV?$ostreambuf_iterator@DU?$char_traits@D@std@@@std@@@std@@ABA?AV?$ostreambuf_iterator@DU?$char_traits@D@std@@@2@V32@PBDI@Z 004591a0 f i torq.obj
 0001:00058230       ?_Putgrouped@?$num_put@DV?$ostreambuf_iterator@DU?$char_traits@D@std@@@std@@@std@@ABA?AV?$ostreambuf_iterator@DU?$char_traits@D@std@@@2@V32@PBDID@Z 00459230 f i torq.obj
 0001:00058340       ??4?$ostreambuf_iterator@DU?$char_traits@D@std@@@std@@QAEAAV01@D@Z 00459340 f i torq.obj
 0001:000583d0       ??D?$ostreambuf_iterator@DU?$char_traits@D@std@@@std@@QAEAAV01@XZ 004593d0 f i torq.obj
 0001:00058400       ??E?$ostreambuf_iterator@DU?$char_traits@D@std@@@std@@QAEAAV01@XZ 00459400 f i torq.obj
 0001:00058430       ?decimal_point@?$numpunct@D@std@@QBEDXZ 00459430 f i torq.obj
 0001:00058480       ?thousands_sep@?$numpunct@D@std@@QBEDXZ 00459480 f i torq.obj
 0001:000584d0       ?grouping@?$numpunct@D@std@@QBE?AV?$basic_string@DU?$char_traits@D@std@@V?$allocator@D@2@@2@XZ 004594d0 f i torq.obj
 0001:00058540       ??$use_facet@V?$numpunct@D@std@@@std@@YAABV?$numpunct@D@0@ABVlocale@0@@Z 00459540 f i torq.obj
 0001:00058690       ??$_Maklocchr@D@std@@YADDPADABU_Cvtvec@@@Z 00459690 f i torq.obj
 0001:000586c0       ?_Getcat@?$numpunct@D@std@@SAIPAPBVfacet@locale@2@@Z 004596c0 f i torq.obj
 0001:00058790       ??0?$codecvt@DDH@std@@QAE@I@Z 00459790 f i torq.obj
 0001:00058860       ??0codecvt_base@std@@QAE@I@Z 00459860 f i torq.obj
 0001:000588c0       ??1codecvt_base@std@@UAE@XZ 004598c0 f i torq.obj
 0001:00058910       ?do_always_noconv@codecvt_base@std@@MBE_NXZ 00459910 f i torq.obj
 0001:00058940       ?do_max_length@codecvt_base@std@@MBEHXZ 00459940 f i torq.obj
 0001:00058970       ?do_encoding@codecvt_base@std@@MBEHXZ 00459970 f i torq.obj
 0001:000589a0       ??_Gcodecvt_base@std@@UAEPAXI@Z 004599a0 f i torq.obj
 0001:000589a0       ??_Ecodecvt_base@std@@UAEPAXI@Z 004599a0 f i torq.obj
 0001:00058a00       ?do_in@?$codecvt@DDH@std@@MBEHAAHPBD1AAPBDPAD3AAPAD@Z 00459a00 f i torq.obj
 0001:00058a50       ?do_out@?$codecvt@DDH@std@@MBEHAAHPBD1AAPBDPAD3AAPAD@Z 00459a50 f i torq.obj
 0001:00058aa0       ?do_unshift@?$codecvt@DDH@std@@MBEHAAHPAD1AAPAD@Z 00459aa0 f i torq.obj
 0001:00058ae0       ?do_length@?$codecvt@DDH@std@@MBEHABHPBD1I@Z 00459ae0 f i torq.obj
 0001:00058b40       ??_G?$codecvt@DDH@std@@MAEPAXI@Z 00459b40 f i torq.obj
 0001:00058b40       ??_E?$codecvt@DDH@std@@MAEPAXI@Z 00459b40 f i torq.obj
 0001:00058ba0       ??1?$codecvt@DDH@std@@MAE@XZ 00459ba0 f i torq.obj
 0001:00058bf0       ??0?$numpunct@D@std@@QAE@I@Z 00459bf0 f i torq.obj
 0001:00058cc0       ?do_decimal_point@?$numpunct@D@std@@MBEDXZ 00459cc0 f i torq.obj
 0001:00058cf0       ?do_thousands_sep@?$numpunct@D@std@@MBEDXZ 00459cf0 f i torq.obj
 0001:00058d20       ?do_grouping@?$numpunct@D@std@@MBE?AV?$basic_string@DU?$char_traits@D@std@@V?$allocator@D@2@@2@XZ 00459d20 f i torq.obj
 0001:00058d90       ?do_falsename@?$numpunct@D@std@@MBE?AV?$basic_string@DU?$char_traits@D@std@@V?$allocator@D@2@@2@XZ 00459d90 f i torq.obj
 0001:00058e00       ?do_truename@?$numpunct@D@std@@MBE?AV?$basic_string@DU?$char_traits@D@std@@V?$allocator@D@2@@2@XZ 00459e00 f i torq.obj
 0001:00058e70       ??_G?$numpunct@D@std@@MAEPAXI@Z 00459e70 f i torq.obj
 0001:00058e70       ??_E?$numpunct@D@std@@MAEPAXI@Z 00459e70 f i torq.obj
 0001:00058ed0       ??1?$numpunct@D@std@@MAE@XZ 00459ed0 f i torq.obj
 0001:00058f50       ?_Tidy@?$numpunct@D@std@@AAEXXZ 00459f50 f i torq.obj
 0001:00058fc0       ??Dconst_iterator@?$vector@U?$format_item@DU?$char_traits@D@std@@V?$allocator@D@2@@detail@io@boost@@V?$allocator@U?$format_item@DU?$char_traits@D@std@@V?$allocator@D@2@@detail@io@boost@@@std@@@std@@QBEABU?$format_item@DU?$char_traits@D@std@@V?$allocator@D@2@@detail@io@boost@@XZ 00459fc0 f i torq.obj
 0001:00058ff0       ??Hconst_iterator@?$vector@U?$format_item@DU?$char_traits@D@std@@V?$allocator@D@2@@detail@io@boost@@V?$allocator@U?$format_item@DU?$char_traits@D@std@@V?$allocator@D@2@@detail@io@boost@@@std@@@std@@QBE?AV012@H@Z 00459ff0 f i torq.obj
 0001:00059080       ?_Buy@?$vector@IV?$allocator@I@std@@@std@@IAE_NI@Z 0045a080 f i torq.obj
 0001:00059130       ??0?$_Vector_val@IV?$allocator@I@std@@@std@@IAE@V?$allocator@I@1@@Z 0045a130 f i torq.obj
 0001:00059180       ??0?$allocator@I@std@@QAE@XZ 0045a180 f i torq.obj
 0001:000591b0       ?max_size@?$vector@U?$format_item@DU?$char_traits@D@std@@V?$allocator@D@2@@detail@io@boost@@V?$allocator@U?$format_item@DU?$char_traits@D@std@@V?$allocator@D@2@@detail@io@boost@@@std@@@std@@QBEIXZ 0045a1b0 f i torq.obj
 0001:000591f0       ?_Xlen@?$vector@U?$format_item@DU?$char_traits@D@std@@V?$allocator@D@2@@detail@io@boost@@V?$allocator@U?$format_item@DU?$char_traits@D@std@@V?$allocator@D@2@@detail@io@boost@@@std@@@std@@IBEXXZ 0045a1f0 f i torq.obj
 0001:00059280       ??0?$allocator@U?$format_item@DU?$char_traits@D@std@@V?$allocator@D@2@@detail@io@boost@@@std@@QAE@ABV01@@Z 0045a280 f i torq.obj
 0001:000592b0       ?allocate@?$allocator@U?$format_item@DU?$char_traits@D@std@@V?$allocator@D@2@@detail@io@boost@@@std@@QAEPAU?$format_item@DU?$char_traits@D@std@@V?$allocator@D@2@@detail@io@boost@@I@Z 0045a2b0 f i torq.obj
 0001:00059300       ?_Init@?$num_put@DV?$ostreambuf_iterator@DU?$char_traits@D@std@@@std@@@std@@IAEXABV_Locinfo@2@@Z 0045a300 f i torq.obj
 0001:00059360       ?_Getcvt@_Locinfo@std@@QBE?AU_Cvtvec@@XZ 0045a360 f i torq.obj
 0001:000593d0       ?_Init@?$codecvt@DDH@std@@IAEXABV_Locinfo@2@@Z 0045a3d0 f i torq.obj
 0001:00059400       ?_Init@?$numpunct@D@std@@IAEXABV_Locinfo@2@@Z 0045a400 f i torq.obj
 0001:000595d0       ?_Getlconv@_Locinfo@std@@QBEPBUlconv@@XZ 0045a5d0 f i torq.obj
 0001:00059610       ?_Getfalse@_Locinfo@std@@QBEPBDXZ 0045a610 f i torq.obj
 0001:00059640       ?_Gettrue@_Locinfo@std@@QBEPBDXZ 0045a640 f i torq.obj
 0001:00059670       ??0const_iterator@?$vector@U?$format_item@DU?$char_traits@D@std@@V?$allocator@D@2@@detail@io@boost@@V?$allocator@U?$format_item@DU?$char_traits@D@std@@V?$allocator@D@2@@detail@io@boost@@@std@@@std@@QAE@PAU?$format_item@DU?$char_traits@D@std@@V?$allocator@D@2@@detail@io@boost@@@Z 0045a670 f i torq.obj
 0001:000596b0       ??Yconst_iterator@?$vector@U?$format_item@DU?$char_traits@D@std@@V?$allocator@D@2@@detail@io@boost@@V?$allocator@U?$format_item@DU?$char_traits@D@std@@V?$allocator@D@2@@detail@io@boost@@@std@@@std@@QAEAAV012@H@Z 0045a6b0 f i torq.obj
 0001:000596f0       ?max_size@?$vector@IV?$allocator@I@std@@@std@@QBEIXZ 0045a6f0 f i torq.obj
 0001:00059730       ?_Xlen@?$vector@IV?$allocator@I@std@@@std@@IBEXXZ 0045a730 f i torq.obj
 0001:000597c0       ??0?$allocator@I@std@@QAE@ABV01@@Z 0045a7c0 f i torq.obj
 0001:000597f0       ?allocate@?$allocator@I@std@@QAEPAII@Z 0045a7f0 f i torq.obj
 0001:00059840       ?max_size@?$allocator@U?$format_item@DU?$char_traits@D@std@@V?$allocator@D@2@@detail@io@boost@@@std@@QBEIXZ 0045a840 f i torq.obj
 0001:000598a0       ?max_size@?$allocator@I@std@@QBEIXZ 0045a8a0 f i torq.obj
 0001:00059900       ?parse@?$basic_format@DU?$char_traits@D@std@@V?$allocator@D@2@@boost@@QAEAAV12@ABV?$basic_string@DU?$char_traits@D@std@@V?$allocator@D@2@@std@@@Z 0045a900 f i torq.obj
 0001:00059e80       ??0bad_format_string@io@boost@@QAE@II@Z 0045ae80 f i torq.obj
 0001:00059ee0       ?what@bad_format_string@io@boost@@UBEPBDXZ 0045aee0 f i torq.obj
 0001:00059f10       ??_Ebad_format_string@io@boost@@UAEPAXI@Z 0045af10 f i torq.obj
 0001:00059f10       ??_Gbad_format_string@io@boost@@UAEPAXI@Z 0045af10 f i torq.obj
 0001:00059f70       ??1bad_format_string@io@boost@@UAE@XZ 0045af70 f i torq.obj
 0001:00059fb0       ??Gconst_iterator@?$basic_string@DU?$char_traits@D@std@@V?$allocator@D@2@@std@@QBEHABV012@@Z 0045afb0 f i torq.obj
 0001:00059ff0       ??$throw_exception@Vbad_format_string@io@boost@@@boost@@YAXABVbad_format_string@io@0@@Z 0045aff0 f i torq.obj
 0001:0005a050       ??0bad_format_string@io@boost@@QAE@ABV012@@Z 0045b050 f i torq.obj
 0001:0005a0c0       ??0format_error@io@boost@@QAE@ABV012@@Z 0045b0c0 f i torq.obj
 0001:0005a120       ?size@?$basic_format@DU?$char_traits@D@std@@V?$allocator@D@2@@boost@@QBEIXZ 0045b120 f i torq.obj
 0001:0005a210       ?exceptions@?$basic_format@DU?$char_traits@D@std@@V?$allocator@D@2@@boost@@QBEEXZ 0045b210 f i torq.obj
 0001:0005a240       ??$throw_exception@Vtoo_few_args@io@boost@@@boost@@YAXABVtoo_few_args@io@0@@Z 0045b240 f i torq.obj
 0001:0005a2a0       ??$feed@DU?$char_traits@D@std@@V?$allocator@D@2@ABI@detail@io@boost@@YAAAV?$basic_format@DU?$char_traits@D@std@@V?$allocator@D@2@@2@AAV32@ABI@Z 0045b2a0 f i torq.obj
 0001:0005a370       ??$feed@DU?$char_traits@D@std@@V?$allocator@D@2@ABH@detail@io@boost@@YAAAV?$basic_format@DU?$char_traits@D@std@@V?$allocator@D@2@@2@AAV32@ABH@Z 0045b370 f i torq.obj
 0001:0005a440       ??$_Iter_cat@Vconst_iterator@?$vector@HV?$allocator@H@std@@@std@@@std@@YA?AUrandom_access_iterator_tag@0@ABVconst_iterator@?$vector@HV?$allocator@H@std@@@0@@Z 0045b440 f i torq.obj
 0001:0005a4a0       ??$_Insert@Vconst_iterator@?$vector@HV?$allocator@H@std@@@std@@@?$vector@HV?$allocator@H@std@@@std@@QAEXViterator@01@Vconst_iterator@01@1Uforward_iterator_tag@1@@Z 0045b4a0 f i torq.obj
 0001:0005a870       ??$_Iter_cat@Viterator@?$vector@HV?$allocator@H@std@@@std@@@std@@YA?AUrandom_access_iterator_tag@0@ABViterator@?$vector@HV?$allocator@H@std@@@0@@Z 0045b870 f i torq.obj
 0001:0005a8d0       ??$_Insert@Viterator@?$vector@HV?$allocator@H@std@@@std@@@?$vector@HV?$allocator@H@std@@@std@@QAEXViterator@01@00Uforward_iterator_tag@1@@Z 0045b8d0 f i torq.obj
 0001:0005aca0       ??$feed@DU?$char_traits@D@std@@V?$allocator@D@2@ABJ@detail@io@boost@@YAAAV?$basic_format@DU?$char_traits@D@std@@V?$allocator@D@2@@2@AAV32@ABJ@Z 0045bca0 f i torq.obj
 0001:0005ad70       ??$feed@DU?$char_traits@D@std@@V?$allocator@D@2@ABV?$basic_string@DU?$char_traits@D@std@@V?$allocator@D@2@@2@@detail@io@boost@@YAAAV?$basic_format@DU?$char_traits@D@std@@V?$allocator@D@2@@2@AAV32@ABV?$basic_string@DU?$char_traits@D@std@@V?$allocator@D@2@@std@@@Z 0045bd70 f i torq.obj
 0001:0005ae40       ??$_Iter_cat@PAPAD@std@@YA?AUrandom_access_iterator_tag@0@ABQAPAD@Z 0045be40 f i torq.obj
 0001:0005aea0       ??$_Insert@PAPAD@?$vector@V?$basic_string@DU?$char_traits@D@std@@V?$allocator@D@2@@std@@V?$allocator@V?$basic_string@DU?$char_traits@D@std@@V?$allocator@D@2@@std@@@2@@std@@QAEXViterator@01@PAPAD1Uforward_iterator_tag@1@@Z 0045bea0 f i torq.obj
 0001:0005b270       ??$_Uninitialized_copy@Vconst_iterator@?$vector@V?$basic_string@DU?$char_traits@D@std@@V?$allocator@D@2@@std@@V?$allocator@V?$basic_string@DU?$char_traits@D@std@@V?$allocator@D@2@@std@@@2@@std@@PAV?$basic_string@DU?$char_traits@D@std@@V?$allocator@D@2@@3@V?$allocator@V?$basic_string@DU?$char_traits@D@std@@V?$allocator@D@2@@std@@@3@@std@@YAPAV?$basic_string@DU?$char_traits@D@std@@V?$allocator@D@2@@0@Vconst_iterator@?$vector@V?$basic_string@DU?$char_traits@D@std@@V?$allocator@D@2@@std@@V?$allocator@V?$basic_string@DU?$char_traits@D@std@@V?$allocator@D@2@@std@@@2@@0@0PAV10@AAV?$allocator@V?$basic_string@DU?$char_traits@D@std@@V?$allocator@D@2@@std@@@0@@Z 0045c270 f i torq.obj
 0001:0005b2e0       ??$_Uninitialized_copy@Viterator@?$vector@V?$basic_string@DU?$char_traits@D@std@@V?$allocator@D@2@@std@@V?$allocator@V?$basic_string@DU?$char_traits@D@std@@V?$allocator@D@2@@std@@@2@@std@@PAV?$basic_string@DU?$char_traits@D@std@@V?$allocator@D@2@@3@V?$allocator@V?$basic_string@DU?$char_traits@D@std@@V?$allocator@D@2@@std@@@3@@std@@YAPAV?$basic_string@DU?$char_traits@D@std@@V?$allocator@D@2@@0@Viterator@?$vector@V?$basic_string@DU?$char_traits@D@std@@V?$allocator@D@2@@std@@V?$allocator@V?$basic_string@DU?$char_traits@D@std@@V?$allocator@D@2@@std@@@2@@0@0PAV10@AAV?$allocator@V?$basic_string@DU?$char_traits@D@std@@V?$allocator@D@2@@std@@@0@@Z 0045c2e0 f i torq.obj
 0001:0005b350       ??$_Uninitialized_copy@Viterator@?$vector@HV?$allocator@H@std@@@std@@PAHV?$allocator@H@3@@std@@YAPAHViterator@?$vector@HV?$allocator@H@std@@@0@0PAHAAV?$allocator@H@0@@Z 0045c350 f i torq.obj
 0001:0005b3c0       ??$_Uninitialized_copy@Vconst_iterator@?$vector@UTOKEN@@V?$allocator@UTOKEN@@@std@@@std@@PAUTOKEN@@V?$allocator@UTOKEN@@@3@@std@@YAPAUTOKEN@@Vconst_iterator@?$vector@UTOKEN@@V?$allocator@UTOKEN@@@std@@@0@0PAU1@AAV?$allocator@UTOKEN@@@0@@Z 0045c3c0 f i torq.obj
 0001:0005b430       ??$_Ptr_cat@PAUTOKEN@@PAU1@@std@@YA?AU_Nonscalar_ptr_iterator_tag@0@AAPAUTOKEN@@0@Z 0045c430 f i torq.obj
 0001:0005b490       ??$_Copy_opt@PAUTOKEN@@PAU1@@std@@YAPAUTOKEN@@PAU1@00U_Nonscalar_ptr_iterator_tag@0@@Z 0045c490 f i torq.obj
 0001:0005b4f0       ??$_Uninitialized_copy@PAUTOKEN@@PAU1@V?$allocator@UTOKEN@@@std@@@std@@YAPAUTOKEN@@PAU1@00AAV?$allocator@UTOKEN@@@0@@Z 0045c4f0 f i torq.obj
 0001:0005b560       ??$_Uninitialized_copy@Vconst_iterator@?$vector@UTRACE_ITEM@@V?$allocator@UTRACE_ITEM@@@std@@@std@@PAUTRACE_ITEM@@V?$allocator@UTRACE_ITEM@@@3@@std@@YAPAUTRACE_ITEM@@Vconst_iterator@?$vector@UTRACE_ITEM@@V?$allocator@UTRACE_ITEM@@@std@@@0@0PAU1@AAV?$allocator@UTRACE_ITEM@@@0@@Z 0045c560 f i torq.obj
 0001:0005b5d0       ??$_Ptr_cat@PAUTRACE_ITEM@@PAU1@@std@@YA?AU_Nonscalar_ptr_iterator_tag@0@AAPAUTRACE_ITEM@@0@Z 0045c5d0 f i torq.obj
 0001:0005b630       ??$_Copy_opt@PAUTRACE_ITEM@@PAU1@@std@@YAPAUTRACE_ITEM@@PAU1@00U_Nonscalar_ptr_iterator_tag@0@@Z 0045c630 f i torq.obj
 0001:0005b690       ??$_Uninitialized_copy@PAUTRACE_ITEM@@PAU1@V?$allocator@UTRACE_ITEM@@@std@@@std@@YAPAUTRACE_ITEM@@PAU1@00AAV?$allocator@UTRACE_ITEM@@@0@@Z 0045c690 f i torq.obj
 0001:0005b700       ??$_Uninitialized_copy@Viterator@?$vector@UTRACE_ITEM@@V?$allocator@UTRACE_ITEM@@@std@@@std@@PAUTRACE_ITEM@@V?$allocator@UTRACE_ITEM@@@3@@std@@YAPAUTRACE_ITEM@@Viterator@?$vector@UTRACE_ITEM@@V?$allocator@UTRACE_ITEM@@@std@@@0@0PAU1@AAV?$allocator@UTRACE_ITEM@@@0@@Z 0045c700 f i torq.obj
 0001:0005b770       ??$_Uninitialized_copy@Vconst_iterator@?$vector@JV?$allocator@J@std@@@std@@PAJV?$allocator@J@3@@std@@YAPAJVconst_iterator@?$vector@JV?$allocator@J@std@@@0@0PAJAAV?$allocator@J@0@@Z 0045c770 f i torq.obj
 0001:0005b7e0       ??$_Copy_opt@PAJPAJ@std@@YAPAJPAJ00U_Scalar_ptr_iterator_tag@0@@Z 0045c7e0 f i torq.obj
 0001:0005b840       ??$_Uninitialized_copy@PAJPAJV?$allocator@J@std@@@std@@YAPAJPAJ00AAV?$allocator@J@0@@Z 0045c840 f i torq.obj
 0001:0005b8b0       ??$_Uninitialized_copy@Viterator@?$vector@PAUToken@text@@V?$allocator@PAUToken@text@@@std@@@std@@PAPAUToken@text@@V?$allocator@PAUToken@text@@@3@@std@@YAPAPAUToken@text@@Viterator@?$vector@PAUToken@text@@V?$allocator@PAUToken@text@@@std@@@0@0PAPAU12@AAV?$allocator@PAUToken@text@@@0@@Z 0045c8b0 f i torq.obj
 0001:0005b920       ??$_Uninitialized_copy@Vconst_iterator@?$vector@V?$vector@HV?$allocator@H@std@@@std@@V?$allocator@V?$vector@HV?$allocator@H@std@@@std@@@2@@std@@PAV?$vector@HV?$allocator@H@std@@@3@V?$allocator@V?$vector@HV?$allocator@H@std@@@std@@@3@@std@@YAPAV?$vector@HV?$allocator@H@std@@@0@Vconst_iterator@?$vector@V?$vector@HV?$allocator@H@std@@@std@@V?$allocator@V?$vector@HV?$allocator@H@std@@@std@@@2@@0@0PAV10@AAV?$allocator@V?$vector@HV?$allocator@H@std@@@std@@@0@@Z 0045c920 f i torq.obj
 0001:0005b990       ??$_Uninitialized_copy@Viterator@?$vector@UMATCH@Interpreter@@V?$allocator@UMATCH@Interpreter@@@std@@@std@@PAUMATCH@Interpreter@@V?$allocator@UMATCH@Interpreter@@@3@@std@@YAPAUMATCH@Interpreter@@Viterator@?$vector@UMATCH@Interpreter@@V?$allocator@UMATCH@Interpreter@@@std@@@0@0PAU12@AAV?$allocator@UMATCH@Interpreter@@@0@@Z 0045c990 f i torq.obj
 0001:0005ba00       ??$_Ptr_cat@PAV?$basic_string@DU?$char_traits@D@std@@V?$allocator@D@2@@std@@PAV12@@std@@YA?AU_Nonscalar_ptr_iterator_tag@0@AAPAV?$basic_string@DU?$char_traits@D@std@@V?$allocator@D@2@@0@0@Z 0045ca00 f i torq.obj
 0001:0005ba60       ??$_Destroy_range@V?$basic_string@DU?$char_traits@D@std@@V?$allocator@D@2@@std@@V?$allocator@V?$basic_string@DU?$char_traits@D@std@@V?$allocator@D@2@@std@@@2@@std@@YAXPAV?$basic_string@DU?$char_traits@D@std@@V?$allocator@D@2@@0@0AAV?$allocator@V?$basic_string@DU?$char_traits@D@std@@V?$allocator@D@2@@std@@@0@U_Nonscalar_ptr_iterator_tag@0@@Z 0045ca60 f i torq.obj
 0001:0005bac0       ??$_Uninit_fill_n@PAV?$basic_string@DU?$char_traits@D@std@@V?$allocator@D@2@@std@@IV12@V?$allocator@V?$basic_string@DU?$char_traits@D@std@@V?$allocator@D@2@@std@@@2@@std@@YAXPAV?$basic_string@DU?$char_traits@D@std@@V?$allocator@D@2@@0@IABV10@AAV?$allocator@V?$basic_string@DU?$char_traits@D@std@@V?$allocator@D@2@@std@@@0@U_Nonscalar_ptr_iterator_tag@0@@Z 0045cac0 f i torq.obj
 0001:0005bb90       ??$_Destroy_range@UTOKEN@@V?$allocator@UTOKEN@@@std@@@std@@YAXPAUTOKEN@@0AAV?$allocator@UTOKEN@@@0@U_Nonscalar_ptr_iterator_tag@0@@Z 0045cb90 f i torq.obj
 0001:0005bbf0       ??$_Uninit_fill_n@PAUTOKEN@@IU1@V?$allocator@UTOKEN@@@std@@@std@@YAXPAUTOKEN@@IABU1@AAV?$allocator@UTOKEN@@@0@U_Nonscalar_ptr_iterator_tag@0@@Z 0045cbf0 f i torq.obj
 0001:0005bcc0       ??$_Destroy_range@UTRACE_ITEM@@V?$allocator@UTRACE_ITEM@@@std@@@std@@YAXPAUTRACE_ITEM@@0AAV?$allocator@UTRACE_ITEM@@@0@U_Nonscalar_ptr_iterator_tag@0@@Z 0045ccc0 f i torq.obj
 0001:0005bd20       ??$_Uninit_fill_n@PAUTRACE_ITEM@@IU1@V?$allocator@UTRACE_ITEM@@@std@@@std@@YAXPAUTRACE_ITEM@@IABU1@AAV?$allocator@UTRACE_ITEM@@@0@U_Nonscalar_ptr_iterator_tag@0@@Z 0045cd20 f i torq.obj
 0001:0005bdf0       ??$_Destroy_range@JV?$allocator@J@std@@@std@@YAXPAJ0AAV?$allocator@J@0@U_Scalar_ptr_iterator_tag@0@@Z 0045cdf0 f i torq.obj
 0001:0005be20       ??$_Uninit_fill_n@JIJ@std@@YAXPAJIABJAAV?$allocator@J@0@U_Scalar_ptr_iterator_tag@0@@Z 0045ce20 f i torq.obj
 0001:0005be70       ??$_Uninitialized_copy@Vconst_iterator@?$vector@PAUToken@text@@V?$allocator@PAUToken@text@@@std@@@std@@PAPAUToken@text@@V?$allocator@PAUToken@text@@@3@@std@@YAPAPAUToken@text@@Vconst_iterator@?$vector@PAUToken@text@@V?$allocator@PAUToken@text@@@std@@@0@0PAPAU12@AAV?$allocator@PAUToken@text@@@0@@Z 0045ce70 f i torq.obj
 0001:0005bee0       ??$_Ptr_cat@PAV?$vector@HV?$allocator@H@std@@@std@@PAV12@@std@@YA?AU_Nonscalar_ptr_iterator_tag@0@AAPAV?$vector@HV?$allocator@H@std@@@0@0@Z 0045cee0 f i torq.obj
 0001:0005bf40       ??$_Uninitialized_copy@PAV?$vector@HV?$allocator@H@std@@@std@@PAV12@V?$allocator@V?$vector@HV?$allocator@H@std@@@std@@@2@@std@@YAPAV?$vector@HV?$allocator@H@std@@@0@PAV10@00AAV?$allocator@V?$vector@HV?$allocator@H@std@@@std@@@0@@Z 0045cf40 f i torq.obj
 0001:0005bfb0       ??$_Uninit_fill_n@PAV?$vector@HV?$allocator@H@std@@@std@@IV12@V?$allocator@V?$vector@HV?$allocator@H@std@@@std@@@2@@std@@YAXPAV?$vector@HV?$allocator@H@std@@@0@IABV10@AAV?$allocator@V?$vector@HV?$allocator@H@std@@@std@@@0@U_Nonscalar_ptr_iterator_tag@0@@Z 0045cfb0 f i torq.obj
 0001:0005c080       ??$_Ptr_cat@PAUMATCH@Interpreter@@PAU12@@std@@YA?AU_Nonscalar_ptr_iterator_tag@0@AAPAUMATCH@Interpreter@@0@Z 0045d080 f i torq.obj
 0001:0005c0e0       ??$_Destroy_range@UMATCH@Interpreter@@V?$allocator@UMATCH@Interpreter@@@std@@@std@@YAXPAUMATCH@Interpreter@@0AAV?$allocator@UMATCH@Interpreter@@@0@U_Nonscalar_ptr_iterator_tag@0@@Z 0045d0e0 f i torq.obj
 0001:0005c140       ??$_Uninit_fill_n@PAUMATCH@Interpreter@@IU12@V?$allocator@UMATCH@Interpreter@@@std@@@std@@YAXPAUMATCH@Interpreter@@IABU12@AAV?$allocator@UMATCH@Interpreter@@@0@U_Nonscalar_ptr_iterator_tag@0@@Z 0045d140 f i torq.obj
 0001:0005c210       ??$lexicographical_compare@Vconst_iterator@?$vector@HV?$allocator@H@std@@@std@@V123@@std@@YA_NVconst_iterator@?$vector@HV?$allocator@H@std@@@0@000@Z 0045d210 f i torq.obj
 0001:0005c300       ??$_Uninitialized_copy@PAV?$basic_string@DU?$char_traits@D@std@@V?$allocator@D@2@@std@@PAV12@V?$allocator@V?$basic_string@DU?$char_traits@D@std@@V?$allocator@D@2@@std@@@2@@std@@YAPAV?$basic_string@DU?$char_traits@D@std@@V?$allocator@D@2@@0@PAV10@00AAV?$allocator@V?$basic_string@DU?$char_traits@D@std@@V?$allocator@D@2@@std@@@0@@Z 0045d300 f i torq.obj
 0001:0005c370       ??$_Copy_backward_opt@PAV?$basic_string@DU?$char_traits@D@std@@V?$allocator@D@2@@std@@PAV12@@std@@YAPAV?$basic_string@DU?$char_traits@D@std@@V?$allocator@D@2@@0@PAV10@00U_Nonscalar_ptr_iterator_tag@0@@Z 0045d370 f i torq.obj
 0001:0005c3d0       ??$_Ptr_cat@$$CBD@std@@YA?AU_Scalar_ptr_iterator_tag@0@PAPBD0@Z 0045d3d0 f i torq.obj
 0001:0005c430       ??$_Copy_opt@PAPBDPAPBD@std@@YAPAPBDPAPBD00U_Scalar_ptr_iterator_tag@0@@Z 0045d430 f i torq.obj
 0001:0005c490       ??$_Destroy_range@PBDV?$allocator@PBD@std@@@std@@YAXPAPBD0AAV?$allocator@PBD@0@U_Scalar_ptr_iterator_tag@0@@Z 0045d490 f i torq.obj
 0001:0005c4c0       ??$_Uninitialized_copy@PAPBDPAPBDV?$allocator@PBD@std@@@std@@YAPAPBDPAPBD00AAV?$allocator@PBD@0@@Z 0045d4c0 f i torq.obj
 0001:0005c530       ??$_Copy_backward_opt@PAPBDPAPBD@std@@YAPAPBDPAPBD00U_Scalar_ptr_iterator_tag@0@@Z 0045d530 f i torq.obj
 0001:0005c590       ??$_Copy_opt@PADPAD@std@@YAPADPAD00U_Scalar_ptr_iterator_tag@0@@Z 0045d590 f i torq.obj
 0001:0005c5f0       ??$_Destroy_range@DV?$allocator@D@std@@@std@@YAXPAD0AAV?$allocator@D@0@U_Scalar_ptr_iterator_tag@0@@Z 0045d5f0 f i torq.obj
 0001:0005c620       ??$_Uninitialized_copy@PADPADV?$allocator@D@std@@@std@@YAPADPAD00AAV?$allocator@D@0@@Z 0045d620 f i torq.obj
 0001:0005c690       ??$_Copy_backward_opt@PADPAD@std@@YAPADPAD00U_Scalar_ptr_iterator_tag@0@@Z 0045d690 f i torq.obj
 0001:0005c6f0       ??$_Uninit_fill_n@DID@std@@YAXPADIABDAAV?$allocator@D@0@U_Scalar_ptr_iterator_tag@0@@Z 0045d6f0 f i torq.obj
 0001:0005c740       ??$_Ptr_cat@PAU?$format_item@DU?$char_traits@D@std@@V?$allocator@D@2@@detail@io@boost@@PAU1234@@std@@YA?AU_Nonscalar_ptr_iterator_tag@0@AAPAU?$format_item@DU?$char_traits@D@std@@V?$allocator@D@2@@detail@io@boost@@0@Z 0045d740 f i torq.obj
 0001:0005c7a0       ??$_Destroy_range@U?$format_item@DU?$char_traits@D@std@@V?$allocator@D@2@@detail@io@boost@@V?$allocator@U?$format_item@DU?$char_traits@D@std@@V?$allocator@D@2@@detail@io@boost@@@std@@@std@@YAXPAU?$format_item@DU?$char_traits@D@std@@V?$allocator@D@2@@detail@io@boost@@0AAV?$allocator@U?$format_item@DU?$char_traits@D@std@@V?$allocator@D@2@@detail@io@boost@@@0@U_Nonscalar_ptr_iterator_tag@0@@Z 0045d7a0 f i torq.obj
 0001:0005c800       ??$_Copy_backward_opt@PAUTOKEN@@PAU1@@std@@YAPAUTOKEN@@PAU1@00U_Nonscalar_ptr_iterator_tag@0@@Z 0045d800 f i torq.obj
 0001:0005c860       ??$_Copy_backward_opt@PAUTRACE_ITEM@@PAU1@@std@@YAPAUTRACE_ITEM@@PAU1@00U_Nonscalar_ptr_iterator_tag@0@@Z 0045d860 f i torq.obj
 0001:0005c8c0       ??$_Copy_backward_opt@PAJPAJ@std@@YAPAJPAJ00U_Scalar_ptr_iterator_tag@0@@Z 0045d8c0 f i torq.obj
 0001:0005c920       ??$_Iter_cat@Viterator@?$list@U?$pair@$$CBJUNodeFormat@Helper@text@@@std@@V?$allocator@U?$pair@$$CBJUNodeFormat@Helper@text@@@std@@@2@@std@@@std@@YA?AUbidirectional_iterator_tag@0@ABViterator@?$list@U?$pair@$$CBJUNodeFormat@Helper@text@@@std@@V?$allocator@U?$pair@$$CBJUNodeFormat@Helper@text@@@std@@@2@@0@@Z 0045d920 f i torq.obj
 0001:0005c980       ??$_Insert@Viterator@?$list@U?$pair@$$CBJUNodeFormat@Helper@text@@@std@@V?$allocator@U?$pair@$$CBJUNodeFormat@Helper@text@@@std@@@2@@std@@@?$list@U?$pair@$$CBJUNodeFormat@Helper@text@@@std@@V?$allocator@U?$pair@$$CBJUNodeFormat@Helper@text@@@std@@@2@@std@@QAEXViterator@01@00Uforward_iterator_tag@1@@Z 0045d980 f i torq.obj
 0001:0005cad0       ??$_Ptr_cat@PAU?$pair@_NUNodeFormatI@Helper@text@@@std@@PAU12@@std@@YA?AU_Nonscalar_ptr_iterator_tag@0@AAPAU?$pair@_NUNodeFormatI@Helper@text@@@0@0@Z 0045dad0 f i torq.obj
 0001:0005cb30       ??$_Copy_opt@PAU?$pair@_NUNodeFormatI@Helper@text@@@std@@PAU12@@std@@YAPAU?$pair@_NUNodeFormatI@Helper@text@@@0@PAU10@00U_Nonscalar_ptr_iterator_tag@0@@Z 0045db30 f i torq.obj
 0001:0005cb90       ??$_Destroy_range@U?$pair@_NUNodeFormatI@Helper@text@@@std@@V?$allocator@U?$pair@_NUNodeFormatI@Helper@text@@@std@@@2@@std@@YAXPAU?$pair@_NUNodeFormatI@Helper@text@@@0@0AAV?$allocator@U?$pair@_NUNodeFormatI@Helper@text@@@std@@@0@U_Nonscalar_ptr_iterator_tag@0@@Z 0045db90 f i torq.obj
 0001:0005cbf0       ??$_Uninitialized_copy@PAU?$pair@_NUNodeFormatI@Helper@text@@@std@@PAU12@V?$allocator@U?$pair@_NUNodeFormatI@Helper@text@@@std@@@2@@std@@YAPAU?$pair@_NUNodeFormatI@Helper@text@@@0@PAU10@00AAV?$allocator@U?$pair@_NUNodeFormatI@Helper@text@@@std@@@0@@Z 0045dbf0 f i torq.obj
 0001:0005cc60       ??$_Copy_backward_opt@PAU?$pair@_NUNodeFormatI@Helper@text@@@std@@PAU12@@std@@YAPAU?$pair@_NUNodeFormatI@Helper@text@@@0@PAU10@00U_Nonscalar_ptr_iterator_tag@0@@Z 0045dc60 f i torq.obj
 0001:0005ccc0       ??$_Destroy_range@V?$vector@HV?$allocator@H@std@@@std@@V?$allocator@V?$vector@HV?$allocator@H@std@@@std@@@2@@std@@YAXPAV?$vector@HV?$allocator@H@std@@@0@0AAV?$allocator@V?$vector@HV?$allocator@H@std@@@std@@@0@U_Nonscalar_ptr_iterator_tag@0@@Z 0045dcc0 f i torq.obj
 0001:0005cd20       ??$_Copy_backward_opt@PAV?$vector@HV?$allocator@H@std@@@std@@PAV12@@std@@YAPAV?$vector@HV?$allocator@H@std@@@0@PAV10@00U_Nonscalar_ptr_iterator_tag@0@@Z 0045dd20 f i torq.obj
 0001:0005cd80       ??$_Destroy_range@EV?$allocator@E@std@@@std@@YAXPAE0AAV?$allocator@E@0@U_Scalar_ptr_iterator_tag@0@@Z 0045dd80 f i torq.obj
 0001:0005cdb0       ??$_Copy_opt@PAUMATCH@Interpreter@@PAU12@@std@@YAPAUMATCH@Interpreter@@PAU12@00U_Nonscalar_ptr_iterator_tag@0@@Z 0045ddb0 f i torq.obj
 0001:0005ce00       ??$_Uninitialized_copy@PAUMATCH@Interpreter@@PAU12@V?$allocator@UMATCH@Interpreter@@@std@@@std@@YAPAUMATCH@Interpreter@@PAU12@00AAV?$allocator@UMATCH@Interpreter@@@0@@Z 0045de00 f i torq.obj
 0001:0005ce70       ??$_Copy_backward_opt@PAUMATCH@Interpreter@@PAU12@@std@@YAPAUMATCH@Interpreter@@PAU12@00U_Nonscalar_ptr_iterator_tag@0@@Z 0045de70 f i torq.obj
 0001:0005cec0       ??$_Ptr_cat@PAUTSL@Interpreter@@PAU12@@std@@YA?AU_Nonscalar_ptr_iterator_tag@0@AAPAUTSL@Interpreter@@0@Z 0045dec0 f i torq.obj
 0001:0005cf20       ??$_Copy_opt@PAUTSL@Interpreter@@PAU12@@std@@YAPAUTSL@Interpreter@@PAU12@00U_Nonscalar_ptr_iterator_tag@0@@Z 0045df20 f i torq.obj
 0001:0005cf80       ??$_Destroy_range@UTSL@Interpreter@@V?$allocator@UTSL@Interpreter@@@std@@@std@@YAXPAUTSL@Interpreter@@0AAV?$allocator@UTSL@Interpreter@@@0@U_Nonscalar_ptr_iterator_tag@0@@Z 0045df80 f i torq.obj
 0001:0005cfe0       ??$_Uninitialized_copy@PAUTSL@Interpreter@@PAU12@V?$allocator@UTSL@Interpreter@@@std@@@std@@YAPAUTSL@Interpreter@@PAU12@00AAV?$allocator@UTSL@Interpreter@@@0@@Z 0045dfe0 f i torq.obj
 0001:0005d050       ??$_Copy_backward_opt@PAUTSL@Interpreter@@PAU12@@std@@YAPAUTSL@Interpreter@@PAU12@00U_Nonscalar_ptr_iterator_tag@0@@Z 0045e050 f i torq.obj
 0001:0005d0b0       ??$_Destroy_range@IV?$allocator@I@std@@@std@@YAXPAI0AAV?$allocator@I@0@U_Scalar_ptr_iterator_tag@0@@Z 0045e0b0 f i torq.obj
 0001:0005d0e0       ??$_Uninit_fill_n@PBDIPBD@std@@YAXPAPBDIABQBDAAV?$allocator@PBD@0@U_Scalar_ptr_iterator_tag@0@@Z 0045e0e0 f i torq.obj
 0001:0005d130       ??$_Ptr_cat@PAViterator@?$list@U?$pair@$$CBJUNodeFormat@Helper@text@@@std@@V?$allocator@U?$pair@$$CBJUNodeFormat@Helper@text@@@std@@@2@@std@@PAV123@@std@@YA?AU_Nonscalar_ptr_iterator_tag@0@AAPAViterator@?$list@U?$pair@$$CBJUNodeFormat@Helper@text@@@std@@V?$allocator@U?$pair@$$CBJUNodeFormat@Helper@text@@@std@@@2@@0@0@Z 0045e130 f i torq.obj
 0001:0005d190       ??$_Copy_opt@PAViterator@?$list@U?$pair@$$CBJUNodeFormat@Helper@text@@@std@@V?$allocator@U?$pair@$$CBJUNodeFormat@Helper@text@@@std@@@2@@std@@PAV123@@std@@YAPAViterator@?$list@U?$pair@$$CBJUNodeFormat@Helper@text@@@std@@V?$allocator@U?$pair@$$CBJUNodeFormat@Helper@text@@@std@@@2@@0@PAV120@00U_Nonscalar_ptr_iterator_tag@0@@Z 0045e190 f i torq.obj
 0001:0005d1e0       ??$_Destroy_range@Viterator@?$list@U?$pair@$$CBJUNodeFormat@Helper@text@@@std@@V?$allocator@U?$pair@$$CBJUNodeFormat@Helper@text@@@std@@@2@@std@@V?$allocator@Viterator@?$list@U?$pair@$$CBJUNodeFormat@Helper@text@@@std@@V?$allocator@U?$pair@$$CBJUNodeFormat@Helper@text@@@std@@@2@@std@@@3@@std@@YAXPAViterator@?$list@U?$pair@$$CBJUNodeFormat@Helper@text@@@std@@V?$allocator@U?$pair@$$CBJUNodeFormat@Helper@text@@@std@@@2@@0@0AAV?$allocator@Viterator@?$list@U?$pair@$$CBJUNodeFormat@Helper@text@@@std@@V?$allocator@U?$pair@$$CBJUNodeFormat@Helper@text@@@std@@@2@@std@@@0@U_Nonscalar_ptr_iterator_tag@0@@Z 0045e1e0 f i torq.obj
 0001:0005d240       ??$_Uninitialized_copy@PAViterator@?$list@U?$pair@$$CBJUNodeFormat@Helper@text@@@std@@V?$allocator@U?$pair@$$CBJUNodeFormat@Helper@text@@@std@@@2@@std@@PAV123@V?$allocator@Viterator@?$list@U?$pair@$$CBJUNodeFormat@Helper@text@@@std@@V?$allocator@U?$pair@$$CBJUNodeFormat@Helper@text@@@std@@@2@@std@@@3@@std@@YAPAViterator@?$list@U?$pair@$$CBJUNodeFormat@Helper@text@@@std@@V?$allocator@U?$pair@$$CBJUNodeFormat@Helper@text@@@std@@@2@@0@PAV120@00AAV?$allocator@Viterator@?$list@U?$pair@$$CBJUNodeFormat@Helper@text@@@std@@V?$allocator@U?$pair@$$CBJUNodeFormat@Helper@text@@@std@@@2@@std@@@0@@Z 0045e240 f i torq.obj
 0001:0005d2b0       ??$_Copy_backward_opt@PAViterator@?$list@U?$pair@$$CBJUNodeFormat@Helper@text@@@std@@V?$allocator@U?$pair@$$CBJUNodeFormat@Helper@text@@@std@@@2@@std@@PAV123@@std@@YAPAViterator@?$list@U?$pair@$$CBJUNodeFormat@Helper@text@@@std@@V?$allocator@U?$pair@$$CBJUNodeFormat@Helper@text@@@std@@@2@@0@PAV120@00U_Nonscalar_ptr_iterator_tag@0@@Z 0045e2b0 f i torq.obj
 0001:0005d300       ??$_Uninit_fill_n@PAU?$pair@_NUNodeFormatI@Helper@text@@@std@@IU12@V?$allocator@U?$pair@_NUNodeFormatI@Helper@text@@@std@@@2@@std@@YAXPAU?$pair@_NUNodeFormatI@Helper@text@@@0@IABU10@AAV?$allocator@U?$pair@_NUNodeFormatI@Helper@text@@@std@@@0@U_Nonscalar_ptr_iterator_tag@0@@Z 0045e300 f i torq.obj
 0001:0005d3d0       ??$_Uninit_fill_n@PAUTSL@Interpreter@@IU12@V?$allocator@UTSL@Interpreter@@@std@@@std@@YAXPAUTSL@Interpreter@@IABU12@AAV?$allocator@UTSL@Interpreter@@@0@U_Nonscalar_ptr_iterator_tag@0@@Z 0045e3d0 f i torq.obj
 0001:0005d4a0       ??$_Uninit_fill_n@PAViterator@?$list@U?$pair@$$CBJUNodeFormat@Helper@text@@@std@@V?$allocator@U?$pair@$$CBJUNodeFormat@Helper@text@@@std@@@2@@std@@IV123@V?$allocator@Viterator@?$list@U?$pair@$$CBJUNodeFormat@Helper@text@@@std@@V?$allocator@U?$pair@$$CBJUNodeFormat@Helper@text@@@std@@@2@@std@@@3@@std@@YAXPAViterator@?$list@U?$pair@$$CBJUNodeFormat@Helper@text@@@std@@V?$allocator@U?$pair@$$CBJUNodeFormat@Helper@text@@@std@@@2@@0@IABV120@AAV?$allocator@Viterator@?$list@U?$pair@$$CBJUNodeFormat@Helper@text@@@std@@V?$allocator@U?$pair@$$CBJUNodeFormat@Helper@text@@@std@@@2@@std@@@0@U_Nonscalar_ptr_iterator_tag@0@@Z 0045e4a0 f i torq.obj
 0001:0005d570       ??$_Allocate@U?$format_item@DU?$char_traits@D@std@@V?$allocator@D@2@@detail@io@boost@@@std@@YAPAU?$format_item@DU?$char_traits@D@std@@V?$allocator@D@2@@detail@io@boost@@IPAU1234@@Z 0045e570 f i torq.obj
 0001:0005d5c0       ??$_Maklocstr@D@std@@YAPADPBDPADABU_Cvtvec@@@Z 0045e5c0 f i torq.obj
 0001:0005d670       ??$_Allocate@I@std@@YAPAIIPAI@Z 0045e670 f i torq.obj
 0001:0005d6c0       ??0too_few_args@io@boost@@QAE@ABV012@@Z 0045e6c0 f i torq.obj
 0001:0005d730       ?begin@?$basic_string@DU?$char_traits@D@std@@V?$allocator@D@2@@std@@QBE?AVconst_iterator@12@XZ 0045e730 f i torq.obj
 0001:0005d780       ?end@?$basic_string@DU?$char_traits@D@std@@V?$allocator@D@2@@std@@QBE?AVconst_iterator@12@XZ 0045e780 f i torq.obj
 0001:0005d7e0       ?size@?$vector@_NV?$allocator@_N@std@@@std@@QBEIXZ 0045e7e0 f i torq.obj
 0001:0005d810       ??A?$vector@_NV?$allocator@_N@std@@@std@@QAE?AVreference@01@I@Z 0045e810 f i torq.obj
 0001:0005d880       ?construct@?$allocator@V?$basic_string@DU?$char_traits@D@std@@V?$allocator@D@2@@std@@@std@@QAEXPAV?$basic_string@DU?$char_traits@D@std@@V?$allocator@D@2@@2@ABV32@@Z 0045e880 f i torq.obj
 0001:0005d8d0       ?destroy@?$allocator@V?$basic_string@DU?$char_traits@D@std@@V?$allocator@D@2@@std@@@std@@QAEXPAV?$basic_string@DU?$char_traits@D@std@@V?$allocator@D@2@@2@@Z 0045e8d0 f i torq.obj
 0001:0005d920       ??0const_iterator@?$basic_string@DU?$char_traits@D@std@@V?$allocator@D@2@@std@@QAE@XZ 0045e920 f i torq.obj
 0001:0005d960       ??Hconst_iterator@?$basic_string@DU?$char_traits@D@std@@V?$allocator@D@2@@std@@QBE?AV012@H@Z 0045e960 f i torq.obj
 0001:0005d9f0       ?resize@?$vector@U?$format_item@DU?$char_traits@D@std@@V?$allocator@D@2@@detail@io@boost@@V?$allocator@U?$format_item@DU?$char_traits@D@std@@V?$allocator@D@2@@detail@io@boost@@@std@@@std@@QAEXIU?$format_item@DU?$char_traits@D@std@@V?$allocator@D@2@@detail@io@boost@@@Z 0045e9f0 f i torq.obj
 0001:0005daf0       ??1?$format_item@DU?$char_traits@D@std@@V?$allocator@D@2@@detail@io@boost@@QAE@XZ 0045eaf0 f i torq.obj
 0001:0005db80       ??1?$stream_format_state@DU?$char_traits@D@std@@@detail@io@boost@@QAE@XZ 0045eb80 f i torq.obj
 0001:0005dbd0       ??A?$vector@U?$format_item@DU?$char_traits@D@std@@V?$allocator@D@2@@detail@io@boost@@V?$allocator@U?$format_item@DU?$char_traits@D@std@@V?$allocator@D@2@@detail@io@boost@@@std@@@std@@QAEAAU?$format_item@DU?$char_traits@D@std@@V?$allocator@D@2@@detail@io@boost@@I@Z 0045ebd0 f i torq.obj
 0001:0005dc40       ?destroy@?$allocator@U?$format_item@DU?$char_traits@D@std@@V?$allocator@D@2@@detail@io@boost@@@std@@QAEXPAU?$format_item@DU?$char_traits@D@std@@V?$allocator@D@2@@detail@io@boost@@@Z 0045ec40 f i torq.obj
 0001:0005dc90       ?construct@?$allocator@UTOKEN@@@std@@QAEXPAUTOKEN@@ABU3@@Z 0045ec90 f i torq.obj
 0001:0005dce0       ?destroy@?$allocator@UTOKEN@@@std@@QAEXPAUTOKEN@@@Z 0045ece0 f i torq.obj
 0001:0005dd30       ?construct@?$allocator@UTRACE_ITEM@@@std@@QAEXPAUTRACE_ITEM@@ABU3@@Z 0045ed30 f i torq.obj
 0001:0005dd80       ?destroy@?$allocator@UTRACE_ITEM@@@std@@QAEXPAUTRACE_ITEM@@@Z 0045ed80 f i torq.obj
 0001:0005ddd0       ?construct@?$allocator@Viterator@?$list@U?$pair@$$CBJUNodeFormat@Helper@text@@@std@@V?$allocator@U?$pair@$$CBJUNodeFormat@Helper@text@@@std@@@2@@std@@@std@@QAEXPAViterator@?$list@U?$pair@$$CBJUNodeFormat@Helper@text@@@std@@V?$allocator@U?$pair@$$CBJUNodeFormat@Helper@text@@@std@@@2@@2@ABV342@@Z 0045edd0 f i torq.obj
 0001:0005de20       ?destroy@?$allocator@Viterator@?$list@U?$pair@$$CBJUNodeFormat@Helper@text@@@std@@V?$allocator@U?$pair@$$CBJUNodeFormat@Helper@text@@@std@@@2@@std@@@std@@QAEXPAViterator@?$list@U?$pair@$$CBJUNodeFormat@Helper@text@@@std@@V?$allocator@U?$pair@$$CBJUNodeFormat@Helper@text@@@std@@@2@@2@@Z 0045ee20 f i torq.obj
 0001:0005de70       ?construct@?$allocator@U?$pair@_NUNodeFormatI@Helper@text@@@std@@@std@@QAEXPAU?$pair@_NUNodeFormatI@Helper@text@@@2@ABU32@@Z 0045ee70 f i torq.obj
 0001:0005dec0       ?destroy@?$allocator@U?$pair@_NUNodeFormatI@Helper@text@@@std@@@std@@QAEXPAU?$pair@_NUNodeFormatI@Helper@text@@@2@@Z 0045eec0 f i torq.obj
 0001:0005df10       ?construct@?$allocator@V?$vector@HV?$allocator@H@std@@@std@@@std@@QAEXPAV?$vector@HV?$allocator@H@std@@@2@ABV32@@Z 0045ef10 f i torq.obj
 0001:0005df60       ?destroy@?$allocator@V?$vector@HV?$allocator@H@std@@@std@@@std@@QAEXPAV?$vector@HV?$allocator@H@std@@@2@@Z 0045ef60 f i torq.obj
 0001:0005dfb0       ?construct@?$allocator@UMATCH@Interpreter@@@std@@QAEXPAUMATCH@Interpreter@@ABU34@@Z 0045efb0 f i torq.obj
 0001:0005e000       ?destroy@?$allocator@UMATCH@Interpreter@@@std@@QAEXPAUMATCH@Interpreter@@@Z 0045f000 f i torq.obj
 0001:0005e050       ?construct@?$allocator@UTSL@Interpreter@@@std@@QAEXPAUTSL@Interpreter@@ABU34@@Z 0045f050 f i torq.obj
 0001:0005e0a0       ?destroy@?$allocator@UTSL@Interpreter@@@std@@QAEXPAUTSL@Interpreter@@@Z 0045f0a0 f i torq.obj
 0001:0005e0f0       ??0?$format_item@DU?$char_traits@D@std@@V?$allocator@D@2@@detail@io@boost@@QAE@D@Z 0045f0f0 f i torq.obj
 0001:0005e1b0       ??Breference@?$vector@_NV?$allocator@_N@std@@@std@@QBE_NXZ 0045f1b0 f i torq.obj
 0001:0005e210       ?begin@?$vector@_NV?$allocator@_N@std@@@std@@QAE?AViterator@12@XZ 0045f210 f i torq.obj
 0001:0005e270       ??Yconst_iterator@?$basic_string@DU?$char_traits@D@std@@V?$allocator@D@2@@std@@QAEAAV012@H@Z 0045f270 f i torq.obj
 0001:0005e2b0       ?begin@?$vector@U?$format_item@DU?$char_traits@D@std@@V?$allocator@D@2@@detail@io@boost@@V?$allocator@U?$format_item@DU?$char_traits@D@std@@V?$allocator@D@2@@detail@io@boost@@@std@@@std@@QAE?AViterator@12@XZ 0045f2b0 f i torq.obj
 0001:0005e300       ?end@?$vector@U?$format_item@DU?$char_traits@D@std@@V?$allocator@D@2@@detail@io@boost@@V?$allocator@U?$format_item@DU?$char_traits@D@std@@V?$allocator@D@2@@detail@io@boost@@@std@@@std@@QAE?AViterator@12@XZ 0045f300 f i torq.obj
 0001:0005e350       ?erase@?$vector@U?$format_item@DU?$char_traits@D@std@@V?$allocator@D@2@@detail@io@boost@@V?$allocator@U?$format_item@DU?$char_traits@D@std@@V?$allocator@D@2@@detail@io@boost@@@std@@@std@@QAE?AViterator@12@V312@0@Z 0045f350 f i torq.obj
 0001:0005e3e0       ?_Insert_n@?$vector@U?$format_item@DU?$char_traits@D@std@@V?$allocator@D@2@@detail@io@boost@@V?$allocator@U?$format_item@DU?$char_traits@D@std@@V?$allocator@D@2@@detail@io@boost@@@std@@@std@@IAEXViterator@12@IABU?$format_item@DU?$char_traits@D@std@@V?$allocator@D@2@@detail@io@boost@@@Z 0045f3e0 f i torq.obj
 0001:0005e800       ?max_streamsize@?$format_item@DU?$char_traits@D@std@@V?$allocator@D@2@@detail@io@boost@@SAHXZ 0045f800 f i torq.obj
 0001:0005e840       ?max@?$numeric_limits@H@std@@SAHXZ 0045f840 f i torq.obj
 0001:0005e870       ??0?$stream_format_state@DU?$char_traits@D@std@@@detail@io@boost@@QAE@D@Z 0045f870 f i torq.obj
 0001:0005e8f0       ?_Getptr@reference@?$vector@_NV?$allocator@_N@std@@@std@@QBEPAIXZ 0045f8f0 f i torq.obj
 0001:0005e920       ?_Mask@reference@?$vector@_NV?$allocator@_N@std@@@std@@IBEIXZ 0045f920 f i torq.obj
 0001:0005e960       ??Diterator@?$vector@_NV?$allocator@_N@std@@@std@@QBE?AVreference@12@XZ 0045f960 f i torq.obj
 0001:0005e9b0       ??Hiterator@?$vector@_NV?$allocator@_N@std@@@std@@QBE?AV012@H@Z 0045f9b0 f i torq.obj
 0001:0005ea40       ??Diterator@?$vector@U?$format_item@DU?$char_traits@D@std@@V?$allocator@D@2@@detail@io@boost@@V?$allocator@U?$format_item@DU?$char_traits@D@std@@V?$allocator@D@2@@detail@io@boost@@@std@@@std@@QBEAAU?$format_item@DU?$char_traits@D@std@@V?$allocator@D@2@@detail@io@boost@@XZ 0045fa40 f i torq.obj
 0001:0005ea80       ??Hiterator@?$vector@U?$format_item@DU?$char_traits@D@std@@V?$allocator@D@2@@detail@io@boost@@V?$allocator@U?$format_item@DU?$char_traits@D@std@@V?$allocator@D@2@@detail@io@boost@@@std@@@std@@QBE?AV012@H@Z 0045fa80 f i torq.obj
 0001:0005eb10       ??0?$format_item@DU?$char_traits@D@std@@V?$allocator@D@2@@detail@io@boost@@QAE@ABU0123@@Z 0045fb10 f i torq.obj
 0001:0005ebe0       ??0?$stream_format_state@DU?$char_traits@D@std@@@detail@io@boost@@QAE@ABU0123@@Z 0045fbe0 f i torq.obj
 0001:0005ec80       ??0?$optional@Vlocale@std@@@boost@@QAE@ABV01@@Z 0045fc80 f i torq.obj
 0001:0005ecd0       ?begin@?$vector@IV?$allocator@I@std@@@std@@QAE?AViterator@12@XZ 0045fcd0 f i torq.obj
 0001:0005ed20       ?capacity@?$vector@U?$format_item@DU?$char_traits@D@std@@V?$allocator@D@2@@detail@io@boost@@V?$allocator@U?$format_item@DU?$char_traits@D@std@@V?$allocator@D@2@@detail@io@boost@@@std@@@std@@QBEIXZ 0045fd20 f i torq.obj
 0001:0005ed80       ?_Ufill@?$vector@U?$format_item@DU?$char_traits@D@std@@V?$allocator@D@2@@detail@io@boost@@V?$allocator@U?$format_item@DU?$char_traits@D@std@@V?$allocator@D@2@@detail@io@boost@@@std@@@std@@IAEPAU?$format_item@DU?$char_traits@D@std@@V?$allocator@D@2@@detail@io@boost@@PAU3456@IABU3456@@Z 0045fd80 f i torq.obj
 0001:0005ede0       ??9const_iterator@?$vector@U?$format_item@DU?$char_traits@D@std@@V?$allocator@D@2@@detail@io@boost@@V?$allocator@U?$format_item@DU?$char_traits@D@std@@V?$allocator@D@2@@detail@io@boost@@@std@@@std@@QBE_NABV012@@Z 0045fde0 f i torq.obj
 0001:0005ee30       ??0reference@?$vector@_NV?$allocator@_N@std@@@std@@QAE@ABV_Vb_iter_base@12@@Z 0045fe30 f i torq.obj
 0001:0005ee70       ??0iterator@?$vector@_NV?$allocator@_N@std@@@std@@QAE@PAI@Z 0045fe70 f i torq.obj
 0001:0005eec0       ??Yiterator@?$vector@_NV?$allocator@_N@std@@@std@@QAEAAV012@H@Z 0045fec0 f i torq.obj
 0001:0005ef10       ??0iterator@?$vector@U?$format_item@DU?$char_traits@D@std@@V?$allocator@D@2@@detail@io@boost@@V?$allocator@U?$format_item@DU?$char_traits@D@std@@V?$allocator@D@2@@detail@io@boost@@@std@@@std@@QAE@PAU?$format_item@DU?$char_traits@D@std@@V?$allocator@D@2@@detail@io@boost@@@Z 0045ff10 f i torq.obj
 0001:0005ef60       ??Yiterator@?$vector@U?$format_item@DU?$char_traits@D@std@@V?$allocator@D@2@@detail@io@boost@@V?$allocator@U?$format_item@DU?$char_traits@D@std@@V?$allocator@D@2@@detail@io@boost@@@std@@@std@@QAEAAV012@H@Z 0045ff60 f i torq.obj
 0001:0005efa0       ??0?$optional_base@Vlocale@std@@@optional_detail@boost@@IAE@ABV012@@Z 0045ffa0 f i torq.obj
 0001:0005f010       ??8const_iterator@?$vector@U?$format_item@DU?$char_traits@D@std@@V?$allocator@D@2@@detail@io@boost@@V?$allocator@U?$format_item@DU?$char_traits@D@std@@V?$allocator@D@2@@detail@io@boost@@@std@@@std@@QBE_NABV012@@Z 00460010 f i torq.obj
 0001:0005f050       ??0const_iterator@?$vector@_NV?$allocator@_N@std@@@std@@QAE@PBI@Z 00460050 f i torq.obj
 0001:0005f0a0       ??Yconst_iterator@?$vector@_NV?$allocator@_N@std@@@std@@QAEAAV012@H@Z 004600a0 f i torq.obj
 0001:0005f110       ??0iterator@?$vector@IV?$allocator@I@std@@@std@@QAE@PAI@Z 00460110 f i torq.obj
 0001:0005f160       ?is_initialized@?$optional_base@Vlocale@std@@@optional_detail@boost@@QBE_NXZ 00460160 f i torq.obj
 0001:0005f190       ?construct@?$optional_base@Vlocale@std@@@optional_detail@boost@@IAEXABVlocale@std@@@Z 00460190 f i torq.obj
 0001:0005f220       ?get_impl@?$optional_base@Vlocale@std@@@optional_detail@boost@@IBEABVlocale@std@@XZ 00460220 f i torq.obj
 0001:0005f270       ??0_Vb_iter_base@?$vector@_NV?$allocator@_N@std@@@std@@QAE@PAI@Z 00460270 f i torq.obj
 0001:0005f2c0       ??0const_iterator@?$vector@IV?$allocator@I@std@@@std@@QAE@PAI@Z 004602c0 f i torq.obj
 0001:0005f300       ?get_object@?$optional_base@Vlocale@std@@@optional_detail@boost@@ABEPBVlocale@std@@XZ 00460300 f i torq.obj
 0001:0005f350       ?dereference@?$optional_base@Vlocale@std@@@optional_detail@boost@@ABEABVlocale@std@@PBV45@U?$bool_@$0A@@mpl@3@@Z 00460350 f i torq.obj
 0001:0005f380       ?address@?$aligned_storage@Vlocale@std@@@optional_detail@boost@@QBEPBXXZ 00460380 f i torq.obj
 0001:0005f3b0       ?getloc@?$basic_format@DU?$char_traits@D@std@@V?$allocator@D@2@@boost@@QBE?AVlocale@std@@XZ 004603b0 f i torq.obj
 0001:0005f4a0       ?clear@?$basic_format@DU?$char_traits@D@std@@V?$allocator@D@2@@boost@@QAEAAV12@XZ 004604a0 f i torq.obj
 0001:0005f600       ?make_or_reuse_data@?$basic_format@DU?$char_traits@D@std@@V?$allocator@D@2@@boost@@QAEXI@Z 00460600 f i torq.obj
 0001:0005f780       ??$const_or_not@V?$ctype@D@std@@@detail@io@boost@@YAABV?$ctype@D@std@@ABV34@@Z 00460780 f i torq.obj
 0001:0005f7b0       ??$upper_bound_from_fstring@V?$basic_string@DU?$char_traits@D@std@@V?$allocator@D@2@@std@@V?$ctype@D@2@@detail@io@boost@@YAHABV?$basic_string@DU?$char_traits@D@std@@V?$allocator@D@2@@std@@DABV?$ctype@D@4@E@Z 004607b0 f i torq.obj
 0001:0005f980       ??$append_string@V?$basic_string@DU?$char_traits@D@std@@V?$allocator@D@2@@std@@@detail@io@boost@@YAXAAV?$basic_string@DU?$char_traits@D@std@@V?$allocator@D@2@@std@@ABV34@II@Z 00460980 f i torq.obj
 0001:0005fa10       ??$parse_printf_directive@DU?$char_traits@D@std@@V?$allocator@D@2@Vconst_iterator@?$basic_string@DU?$char_traits@D@std@@V?$allocator@D@2@@2@V?$ctype@D@2@@detail@io@boost@@YA_NAAVconst_iterator@?$basic_string@DU?$char_traits@D@std@@V?$allocator@D@2@@std@@ABV345@PAU?$format_item@DU?$char_traits@D@std@@V?$allocator@D@2@@012@ABV?$ctype@D@5@IE@Z 00460a10 f i torq.obj
 0001:000604a0       ?maybe_throw_exception@detail@io@boost@@YAXEII@Z 004614a0 f i torq.obj
 0001:00060550       ?compute_states@?$format_item@DU?$char_traits@D@std@@V?$allocator@D@2@@detail@io@boost@@QAEXXZ 00461550 f i torq.obj
 0001:00060630       ??$max@I@std@@YAABIABI0@Z  00461630 f i torq.obj
 0001:00060690       ??$distribute@DU?$char_traits@D@std@@V?$allocator@D@2@ABI@detail@io@boost@@YAXAAV?$basic_format@DU?$char_traits@D@std@@V?$allocator@D@2@@2@ABI@Z 00461690 f i torq.obj
 0001:000607d0       ??0too_many_args@io@boost@@QAE@II@Z 004617d0 f i torq.obj
 0001:00060830       ?what@too_many_args@io@boost@@UBEPBDXZ 00461830 f i torq.obj
 0001:00060860       ??_Gtoo_many_args@io@boost@@UAEPAXI@Z 00461860 f i torq.obj
 0001:00060860       ??_Etoo_many_args@io@boost@@UAEPAXI@Z 00461860 f i torq.obj
 0001:000608c0       ??1too_many_args@io@boost@@UAE@XZ 004618c0 f i torq.obj
 0001:00060900       ??$distribute@DU?$char_traits@D@std@@V?$allocator@D@2@ABH@detail@io@boost@@YAXAAV?$basic_format@DU?$char_traits@D@std@@V?$allocator@D@2@@2@ABH@Z 00461900 f i torq.obj
 0001:00060a40       ??$_Distance@Vconst_iterator@?$vector@HV?$allocator@H@std@@@std@@I@std@@YAXVconst_iterator@?$vector@HV?$allocator@H@std@@@0@0AAI@Z 00461a40 f i torq.obj
 0001:00060aa0       ??$advance@Vconst_iterator@?$vector@HV?$allocator@H@std@@@std@@H@std@@YAXAAVconst_iterator@?$vector@HV?$allocator@H@std@@@0@H@Z 00461aa0 f i torq.obj
 0001:00060b00       ??$copy@Vconst_iterator@?$vector@HV?$allocator@H@std@@@std@@PAH@std@@YAPAHVconst_iterator@?$vector@HV?$allocator@H@std@@@0@0PAH@Z 00461b00 f i torq.obj
 0001:00060b70       ??$_Distance@Viterator@?$vector@HV?$allocator@H@std@@@std@@I@std@@YAXViterator@?$vector@HV?$allocator@H@std@@@0@0AAI@Z 00461b70 f i torq.obj
 0001:00060bd0       ??$advance@Viterator@?$vector@HV?$allocator@H@std@@@std@@H@std@@YAXAAViterator@?$vector@HV?$allocator@H@std@@@0@H@Z 00461bd0 f i torq.obj
 0001:00060c30       ??$copy@Viterator@?$vector@HV?$allocator@H@std@@@std@@PAH@std@@YAPAHViterator@?$vector@HV?$allocator@H@std@@@0@0PAH@Z 00461c30 f i torq.obj
 0001:00060ca0       ??$distribute@DU?$char_traits@D@std@@V?$allocator@D@2@ABJ@detail@io@boost@@YAXAAV?$basic_format@DU?$char_traits@D@std@@V?$allocator@D@2@@2@ABJ@Z 00461ca0 f i torq.obj
 0001:00060de0       ??$distribute@DU?$char_traits@D@std@@V?$allocator@D@2@ABV?$basic_string@DU?$char_traits@D@std@@V?$allocator@D@2@@2@@detail@io@boost@@YAXAAV?$basic_format@DU?$char_traits@D@std@@V?$allocator@D@2@@2@ABV?$basic_string@DU?$char_traits@D@std@@V?$allocator@D@2@@std@@@Z 00461de0 f i torq.obj
 0001:00060f20       ??$_Distance@PAPADI@std@@YAXPAPAD0AAI@Z 00461f20 f i torq.obj
 0001:00060f80       ??$_Ucopy@PAPAD@?$vector@V?$basic_string@DU?$char_traits@D@std@@V?$allocator@D@2@@std@@V?$allocator@V?$basic_string@DU?$char_traits@D@std@@V?$allocator@D@2@@std@@@2@@std@@IAEPAV?$basic_string@DU?$char_traits@D@std@@V?$allocator@D@2@@1@PAPAD0PAV21@@Z 00461f80 f i torq.obj
 0001:00060fe0       ??$advance@PAPADH@std@@YAXAAPAPADH@Z 00461fe0 f i torq.obj
 0001:00061040       ??$copy@PAPADPAV?$basic_string@DU?$char_traits@D@std@@V?$allocator@D@2@@std@@@std@@YAPAV?$basic_string@DU?$char_traits@D@std@@V?$allocator@D@2@@0@PAPAD0PAV10@@Z 00462040 f i torq.obj
 0001:000610b0       ??$_Ptr_cat@Vconst_iterator@?$vector@V?$basic_string@DU?$char_traits@D@std@@V?$allocator@D@2@@std@@V?$allocator@V?$basic_string@DU?$char_traits@D@std@@V?$allocator@D@2@@std@@@2@@std@@PAV?$basic_string@DU?$char_traits@D@std@@V?$allocator@D@2@@3@@std@@YA?AU_Nonscalar_ptr_iterator_tag@0@AAVconst_iterator@?$vector@V?$basic_string@DU?$char_traits@D@std@@V?$allocator@D@2@@std@@V?$allocator@V?$basic_string@DU?$char_traits@D@std@@V?$allocator@D@2@@std@@@2@@0@AAPAV?$basic_string@DU?$char_traits@D@std@@V?$allocator@D@2@@0@@Z 004620b0 f i torq.obj
 0001:00061110       ??$_Uninit_copy@Vconst_iterator@?$vector@V?$basic_string@DU?$char_traits@D@std@@V?$allocator@D@2@@std@@V?$allocator@V?$basic_string@DU?$char_traits@D@std@@V?$allocator@D@2@@std@@@2@@std@@PAV?$basic_string@DU?$char_traits@D@std@@V?$allocator@D@2@@3@V?$allocator@V?$basic_string@DU?$char_traits@D@std@@V?$allocator@D@2@@std@@@3@@std@@YAPAV?$basic_string@DU?$char_traits@D@std@@V?$allocator@D@2@@0@Vconst_iterator@?$vector@V?$basic_string@DU?$char_traits@D@std@@V?$allocator@D@2@@std@@V?$allocator@V?$basic_string@DU?$char_traits@D@std@@V?$allocator@D@2@@std@@@2@@0@0PAV10@AAV?$allocator@V?$basic_string@DU?$char_traits@D@std@@V?$allocator@D@2@@std@@@0@U_Nonscalar_ptr_iterator_tag@0@@Z 00462110 f i torq.obj
 0001:00061200       ??$_Ptr_cat@Viterator@?$vector@V?$basic_string@DU?$char_traits@D@std@@V?$allocator@D@2@@std@@V?$allocator@V?$basic_string@DU?$char_traits@D@std@@V?$allocator@D@2@@std@@@2@@std@@PAV?$basic_string@DU?$char_traits@D@std@@V?$allocator@D@2@@3@@std@@YA?AU_Nonscalar_ptr_iterator_tag@0@AAViterator@?$vector@V?$basic_string@DU?$char_traits@D@std@@V?$allocator@D@2@@std@@V?$allocator@V?$basic_string@DU?$char_traits@D@std@@V?$allocator@D@2@@std@@@2@@0@AAPAV?$basic_string@DU?$char_traits@D@std@@V?$allocator@D@2@@0@@Z 00462200 f i torq.obj
 0001:00061260       ??$_Uninit_copy@Viterator@?$vector@V?$basic_string@DU?$char_traits@D@std@@V?$allocator@D@2@@std@@V?$allocator@V?$basic_string@DU?$char_traits@D@std@@V?$allocator@D@2@@std@@@2@@std@@PAV?$basic_string@DU?$char_traits@D@std@@V?$allocator@D@2@@3@V?$allocator@V?$basic_string@DU?$char_traits@D@std@@V?$allocator@D@2@@std@@@3@@std@@YAPAV?$basic_string@DU?$char_traits@D@std@@V?$allocator@D@2@@0@Viterator@?$vector@V?$basic_string@DU?$char_traits@D@std@@V?$allocator@D@2@@std@@V?$allocator@V?$basic_string@DU?$char_traits@D@std@@V?$allocator@D@2@@std@@@2@@0@0PAV10@AAV?$allocator@V?$basic_string@DU?$char_traits@D@std@@V?$allocator@D@2@@std@@@0@U_Nonscalar_ptr_iterator_tag@0@@Z 00462260 f i torq.obj
 0001:00061350       ??$_Ptr_cat@Viterator@?$vector@HV?$allocator@H@std@@@std@@PAH@std@@YA?AU_Nonscalar_ptr_iterator_tag@0@AAViterator@?$vector@HV?$allocator@H@std@@@0@AAPAH@Z 00462350 f i torq.obj
 0001:000613b0       ??$_Uninit_copy@Viterator@?$vector@HV?$allocator@H@std@@@std@@PAHV?$allocator@H@3@@std@@YAPAHViterator@?$vector@HV?$allocator@H@std@@@0@0PAHAAV?$allocator@H@0@U_Nonscalar_ptr_iterator_tag@0@@Z 004623b0 f i torq.obj
 0001:000614a0       ??$_Ptr_cat@Vconst_iterator@?$vector@UTOKEN@@V?$allocator@UTOKEN@@@std@@@std@@PAUTOKEN@@@std@@YA?AU_Nonscalar_ptr_iterator_tag@0@AAVconst_iterator@?$vector@UTOKEN@@V?$allocator@UTOKEN@@@std@@@0@AAPAUTOKEN@@@Z 004624a0 f i torq.obj
 0001:00061500       ??$_Uninit_copy@Vconst_iterator@?$vector@UTOKEN@@V?$allocator@UTOKEN@@@std@@@std@@PAUTOKEN@@V?$allocator@UTOKEN@@@3@@std@@YAPAUTOKEN@@Vconst_iterator@?$vector@UTOKEN@@V?$allocator@UTOKEN@@@std@@@0@0PAU1@AAV?$allocator@UTOKEN@@@0@U_Nonscalar_ptr_iterator_tag@0@@Z 00462500 f i torq.obj
 0001:000615f0       ??$_Uninit_copy@PAUTOKEN@@PAU1@V?$allocator@UTOKEN@@@std@@@std@@YAPAUTOKEN@@PAU1@00AAV?$allocator@UTOKEN@@@0@U_Nonscalar_ptr_iterator_tag@0@@Z 004625f0 f i torq.obj
 0001:000616c0       ??$_Ptr_cat@Vconst_iterator@?$vector@UTRACE_ITEM@@V?$allocator@UTRACE_ITEM@@@std@@@std@@PAUTRACE_ITEM@@@std@@YA?AU_Nonscalar_ptr_iterator_tag@0@AAVconst_iterator@?$vector@UTRACE_ITEM@@V?$allocator@UTRACE_ITEM@@@std@@@0@AAPAUTRACE_ITEM@@@Z 004626c0 f i torq.obj
 0001:00061720       ??$_Uninit_copy@Vconst_iterator@?$vector@UTRACE_ITEM@@V?$allocator@UTRACE_ITEM@@@std@@@std@@PAUTRACE_ITEM@@V?$allocator@UTRACE_ITEM@@@3@@std@@YAPAUTRACE_ITEM@@Vconst_iterator@?$vector@UTRACE_ITEM@@V?$allocator@UTRACE_ITEM@@@std@@@0@0PAU1@AAV?$allocator@UTRACE_ITEM@@@0@U_Nonscalar_ptr_iterator_tag@0@@Z 00462720 f i torq.obj
 0001:00061810       ??$_Uninit_copy@PAUTRACE_ITEM@@PAU1@V?$allocator@UTRACE_ITEM@@@std@@@std@@YAPAUTRACE_ITEM@@PAU1@00AAV?$allocator@UTRACE_ITEM@@@0@U_Nonscalar_ptr_iterator_tag@0@@Z 00462810 f i torq.obj
 0001:000618e0       ??$_Ptr_cat@Viterator@?$vector@UTRACE_ITEM@@V?$allocator@UTRACE_ITEM@@@std@@@std@@PAUTRACE_ITEM@@@std@@YA?AU_Nonscalar_ptr_iterator_tag@0@AAViterator@?$vector@UTRACE_ITEM@@V?$allocator@UTRACE_ITEM@@@std@@@0@AAPAUTRACE_ITEM@@@Z 004628e0 f i torq.obj
 0001:00061940       ??$_Uninit_copy@Viterator@?$vector@UTRACE_ITEM@@V?$allocator@UTRACE_ITEM@@@std@@@std@@PAUTRACE_ITEM@@V?$allocator@UTRACE_ITEM@@@3@@std@@YAPAUTRACE_ITEM@@Viterator@?$vector@UTRACE_ITEM@@V?$allocator@UTRACE_ITEM@@@std@@@0@0PAU1@AAV?$allocator@UTRACE_ITEM@@@0@U_Nonscalar_ptr_iterator_tag@0@@Z 00462940 f i torq.obj
 0001:00061a30       ??$_Ptr_cat@Vconst_iterator@?$vector@JV?$allocator@J@std@@@std@@PAJ@std@@YA?AU_Nonscalar_ptr_iterator_tag@0@AAVconst_iterator@?$vector@JV?$allocator@J@std@@@0@AAPAJ@Z 00462a30 f i torq.obj
 0001:00061a90       ??$_Uninit_copy@Vconst_iterator@?$vector@JV?$allocator@J@std@@@std@@PAJV?$allocator@J@3@@std@@YAPAJVconst_iterator@?$vector@JV?$allocator@J@std@@@0@0PAJAAV?$allocator@J@0@U_Nonscalar_ptr_iterator_tag@0@@Z 00462a90 f i torq.obj
 0001:00061b80       ??$_Uninit_copy@JJ@std@@YAPAJPAJ00AAV?$allocator@J@0@U_Scalar_ptr_iterator_tag@0@@Z 00462b80 f i torq.obj
 0001:00061be0       ??$_Ptr_cat@Viterator@?$vector@PAUToken@text@@V?$allocator@PAUToken@text@@@std@@@std@@PAPAUToken@text@@@std@@YA?AU_Nonscalar_ptr_iterator_tag@0@AAViterator@?$vector@PAUToken@text@@V?$allocator@PAUToken@text@@@std@@@0@AAPAPAUToken@text@@@Z 00462be0 f i torq.obj
 0001:00061c40       ??$_Uninit_copy@Viterator@?$vector@PAUToken@text@@V?$allocator@PAUToken@text@@@std@@@std@@PAPAUToken@text@@V?$allocator@PAUToken@text@@@3@@std@@YAPAPAUToken@text@@Viterator@?$vector@PAUToken@text@@V?$allocator@PAUToken@text@@@std@@@0@0PAPAU12@AAV?$allocator@PAUToken@text@@@0@U_Nonscalar_ptr_iterator_tag@0@@Z 00462c40 f i torq.obj
 0001:00061d30       ??$_Ptr_cat@Vconst_iterator@?$vector@V?$vector@HV?$allocator@H@std@@@std@@V?$allocator@V?$vector@HV?$allocator@H@std@@@std@@@2@@std@@PAV?$vector@HV?$allocator@H@std@@@3@@std@@YA?AU_Nonscalar_ptr_iterator_tag@0@AAVconst_iterator@?$vector@V?$vector@HV?$allocator@H@std@@@std@@V?$allocator@V?$vector@HV?$allocator@H@std@@@std@@@2@@0@AAPAV?$vector@HV?$allocator@H@std@@@0@@Z 00462d30 f i torq.obj
 0001:00061d90       ??$_Uninit_copy@Vconst_iterator@?$vector@V?$vector@HV?$allocator@H@std@@@std@@V?$allocator@V?$vector@HV?$allocator@H@std@@@std@@@2@@std@@PAV?$vector@HV?$allocator@H@std@@@3@V?$allocator@V?$vector@HV?$allocator@H@std@@@std@@@3@@std@@YAPAV?$vector@HV?$allocator@H@std@@@0@Vconst_iterator@?$vector@V?$vector@HV?$allocator@H@std@@@std@@V?$allocator@V?$vector@HV?$allocator@H@std@@@std@@@2@@0@0PAV10@AAV?$allocator@V?$vector@HV?$allocator@H@std@@@std@@@0@U_Nonscalar_ptr_iterator_tag@0@@Z 00462d90 f i torq.obj
 0001:00061e80       ??9const_iterator@?$vector@V?$vector@HV?$allocator@H@std@@@std@@V?$allocator@V?$vector@HV?$allocator@H@std@@@std@@@2@@std@@QBE_NABV012@@Z 00462e80 f i torq.obj
 0001:00061ed0       ??8const_iterator@?$vector@V?$vector@HV?$allocator@H@std@@@std@@V?$allocator@V?$vector@HV?$allocator@H@std@@@std@@@2@@std@@QBE_NABV012@@Z 00462ed0 f i torq.obj
 0001:00061f10       ??$_Ptr_cat@Viterator@?$vector@UMATCH@Interpreter@@V?$allocator@UMATCH@Interpreter@@@std@@@std@@PAUMATCH@Interpreter@@@std@@YA?AU_Nonscalar_ptr_iterator_tag@0@AAViterator@?$vector@UMATCH@Interpreter@@V?$allocator@UMATCH@Interpreter@@@std@@@0@AAPAUMATCH@Interpreter@@@Z 00462f10 f i torq.obj
 0001:00061f70       ??$_Uninit_copy@Viterator@?$vector@UMATCH@Interpreter@@V?$allocator@UMATCH@Interpreter@@@std@@@std@@PAUMATCH@Interpreter@@V?$allocator@UMATCH@Interpreter@@@3@@std@@YAPAUMATCH@Interpreter@@Viterator@?$vector@UMATCH@Interpreter@@V?$allocator@UMATCH@Interpreter@@@std@@@0@0PAU12@AAV?$allocator@UMATCH@Interpreter@@@0@U_Nonscalar_ptr_iterator_tag@0@@Z 00462f70 f i torq.obj
 0001:00062060       ??$fill_n@PAJIJ@std@@YAXPAJIABJ@Z 00463060 f i torq.obj
 0001:000620b0       ??$_Ptr_cat@Vconst_iterator@?$vector@PAUToken@text@@V?$allocator@PAUToken@text@@@std@@@std@@PAPAUToken@text@@@std@@YA?AU_Nonscalar_ptr_iterator_tag@0@AAVconst_iterator@?$vector@PAUToken@text@@V?$allocator@PAUToken@text@@@std@@@0@AAPAPAUToken@text@@@Z 004630b0 f i torq.obj
 0001:00062110       ??$_Uninit_copy@Vconst_iterator@?$vector@PAUToken@text@@V?$allocator@PAUToken@text@@@std@@@std@@PAPAUToken@text@@V?$allocator@PAUToken@text@@@3@@std@@YAPAPAUToken@text@@Vconst_iterator@?$vector@PAUToken@text@@V?$allocator@PAUToken@text@@@std@@@0@0PAPAU12@AAV?$allocator@PAUToken@text@@@0@U_Nonscalar_ptr_iterator_tag@0@@Z 00463110 f i torq.obj
 0001:00062200       ??$_Uninit_copy@PAV?$vector@HV?$allocator@H@std@@@std@@PAV12@V?$allocator@V?$vector@HV?$allocator@H@std@@@std@@@2@@std@@YAPAV?$vector@HV?$allocator@H@std@@@0@PAV10@00AAV?$allocator@V?$vector@HV?$allocator@H@std@@@std@@@0@U_Nonscalar_ptr_iterator_tag@0@@Z 00463200 f i torq.obj
 0001:000622d0       ??$_Uninit_copy@PAV?$basic_string@DU?$char_traits@D@std@@V?$allocator@D@2@@std@@PAV12@V?$allocator@V?$basic_string@DU?$char_traits@D@std@@V?$allocator@D@2@@std@@@2@@std@@YAPAV?$basic_string@DU?$char_traits@D@std@@V?$allocator@D@2@@0@PAV10@00AAV?$allocator@V?$basic_string@DU?$char_traits@D@std@@V?$allocator@D@2@@std@@@0@U_Nonscalar_ptr_iterator_tag@0@@Z 004632d0 f i torq.obj
 0001:000623a0       ??$_Uninit_copy@PBDPBD@std@@YAPAPBDPAPBD00AAV?$allocator@PBD@0@U_Scalar_ptr_iterator_tag@0@@Z 004633a0 f i torq.obj
 0001:00062400       ??$_Uninit_copy@DD@std@@YAPADPAD00AAV?$allocator@D@0@U_Scalar_ptr_iterator_tag@0@@Z 00463400 f i torq.obj
 0001:00062460       ??$fill_n@PADID@std@@YAXPADIABD@Z 00463460 f i torq.obj
 0001:000624b0       ??$_Uninit_copy@PAU?$pair@_NUNodeFormatI@Helper@text@@@std@@PAU12@V?$allocator@U?$pair@_NUNodeFormatI@Helper@text@@@std@@@2@@std@@YAPAU?$pair@_NUNodeFormatI@Helper@text@@@0@PAU10@00AAV?$allocator@U?$pair@_NUNodeFormatI@Helper@text@@@std@@@0@U_Nonscalar_ptr_iterator_tag@0@@Z 004634b0 f i torq.obj
 0001:00062580       ??$_Uninit_copy@PAUMATCH@Interpreter@@PAU12@V?$allocator@UMATCH@Interpreter@@@std@@@std@@YAPAUMATCH@Interpreter@@PAU12@00AAV?$allocator@UMATCH@Interpreter@@@0@U_Nonscalar_ptr_iterator_tag@0@@Z 00463580 f i torq.obj
 0001:00062650       ??$_Uninit_copy@PAUTSL@Interpreter@@PAU12@V?$allocator@UTSL@Interpreter@@@std@@@std@@YAPAUTSL@Interpreter@@PAU12@00AAV?$allocator@UTSL@Interpreter@@@0@U_Nonscalar_ptr_iterator_tag@0@@Z 00463650 f i torq.obj
 0001:00062720       ??$fill_n@PAPBDIPBD@std@@YAXPAPBDIABQBD@Z 00463720 f i torq.obj
 0001:00062770       ??$_Uninit_copy@PAViterator@?$list@U?$pair@$$CBJUNodeFormat@Helper@text@@@std@@V?$allocator@U?$pair@$$CBJUNodeFormat@Helper@text@@@std@@@2@@std@@PAV123@V?$allocator@Viterator@?$list@U?$pair@$$CBJUNodeFormat@Helper@text@@@std@@V?$allocator@U?$pair@$$CBJUNodeFormat@Helper@text@@@std@@@2@@std@@@3@@std@@YAPAViterator@?$list@U?$pair@$$CBJUNodeFormat@Helper@text@@@std@@V?$allocator@U?$pair@$$CBJUNodeFormat@Helper@text@@@std@@@2@@0@PAV120@00AAV?$allocator@Viterator@?$list@U?$pair@$$CBJUNodeFormat@Helper@text@@@std@@V?$allocator@U?$pair@$$CBJUNodeFormat@Helper@text@@@std@@@2@@std@@@0@U_Nonscalar_ptr_iterator_tag@0@@Z 00463770 f i torq.obj
 0001:00062840       ?reset@?$stream_format_state@DU?$char_traits@D@std@@@detail@io@boost@@QAEXD@Z 00463840 f i torq.obj
 0001:000628b0       ??$_Construct@V?$basic_string@DU?$char_traits@D@std@@V?$allocator@D@2@@std@@V12@@std@@YAXPAV?$basic_string@DU?$char_traits@D@std@@V?$allocator@D@2@@0@ABV10@@Z 004638b0 f i torq.obj
 0001:00062960       ??$_Destroy@V?$basic_string@DU?$char_traits@D@std@@V?$allocator@D@2@@std@@@std@@YAXPAV?$basic_string@DU?$char_traits@D@std@@V?$allocator@D@2@@0@@Z 00463960 f i torq.obj
 0001:000629a0       ??$_Destroy@U?$format_item@DU?$char_traits@D@std@@V?$allocator@D@2@@detail@io@boost@@@std@@YAXPAU?$format_item@DU?$char_traits@D@std@@V?$allocator@D@2@@detail@io@boost@@@Z 004639a0 f i torq.obj
 0001:000629e0       ??$_Construct@UTOKEN@@U1@@std@@YAXPAUTOKEN@@ABU1@@Z 004639e0 f i torq.obj
 0001:00062a90       ??$_Destroy@UTOKEN@@@std@@YAXPAUTOKEN@@@Z 00463a90 f i torq.obj
 0001:00062ac0       ??$_Construct@UTRACE_ITEM@@U1@@std@@YAXPAUTRACE_ITEM@@ABU1@@Z 00463ac0 f i torq.obj
 0001:00062b70       ??$_Destroy@UTRACE_ITEM@@@std@@YAXPAUTRACE_ITEM@@@Z 00463b70 f i torq.obj
 0001:00062ba0       ??$_Construct@Viterator@?$list@U?$pair@$$CBJUNodeFormat@Helper@text@@@std@@V?$allocator@U?$pair@$$CBJUNodeFormat@Helper@text@@@std@@@2@@std@@V123@@std@@YAXPAViterator@?$list@U?$pair@$$CBJUNodeFormat@Helper@text@@@std@@V?$allocator@U?$pair@$$CBJUNodeFormat@Helper@text@@@std@@@2@@0@ABV120@@Z 00463ba0 f i torq.obj
 0001:00062c20       ??$_Destroy@Viterator@?$list@U?$pair@$$CBJUNodeFormat@Helper@text@@@std@@V?$allocator@U?$pair@$$CBJUNodeFormat@Helper@text@@@std@@@2@@std@@@std@@YAXPAViterator@?$list@U?$pair@$$CBJUNodeFormat@Helper@text@@@std@@V?$allocator@U?$pair@$$CBJUNodeFormat@Helper@text@@@std@@@2@@0@@Z 00463c20 f i torq.obj
 0001:00062c50       ??$_Construct@U?$pair@_NUNodeFormatI@Helper@text@@@std@@U12@@std@@YAXPAU?$pair@_NUNodeFormatI@Helper@text@@@0@ABU10@@Z 00463c50 f i torq.obj
 0001:00062d00       ??$_Destroy@U?$pair@_NUNodeFormatI@Helper@text@@@std@@@std@@YAXPAU?$pair@_NUNodeFormatI@Helper@text@@@0@@Z 00463d00 f i torq.obj
 0001:00062d40       ??$_Construct@V?$vector@HV?$allocator@H@std@@@std@@V12@@std@@YAXPAV?$vector@HV?$allocator@H@std@@@0@ABV10@@Z 00463d40 f i torq.obj
 0001:00062df0       ??$_Destroy@V?$vector@HV?$allocator@H@std@@@std@@@std@@YAXPAV?$vector@HV?$allocator@H@std@@@0@@Z 00463df0 f i torq.obj
 0001:00062e30       ??$_Construct@UMATCH@Interpreter@@U12@@std@@YAXPAUMATCH@Interpreter@@ABU12@@Z 00463e30 f i torq.obj
 0001:00062eb0       ??$_Destroy@UMATCH@Interpreter@@@std@@YAXPAUMATCH@Interpreter@@@Z 00463eb0 f i torq.obj
 0001:00062ee0       ??$_Construct@UTSL@Interpreter@@U12@@std@@YAXPAUTSL@Interpreter@@ABU12@@Z 00463ee0 f i torq.obj
 0001:00062f90       ??$_Destroy@UTSL@Interpreter@@@std@@YAXPAUTSL@Interpreter@@@Z 00463f90 f i torq.obj
 0001:00062fd0       ??$copy@PAU?$format_item@DU?$char_traits@D@std@@V?$allocator@D@2@@detail@io@boost@@PAU1234@@std@@YAPAU?$format_item@DU?$char_traits@D@std@@V?$allocator@D@2@@detail@io@boost@@PAU1234@00@Z 00463fd0 f i torq.obj
 0001:00063040       ??$_Ucopy@PAU?$format_item@DU?$char_traits@D@std@@V?$allocator@D@2@@detail@io@boost@@@?$vector@U?$format_item@DU?$char_traits@D@std@@V?$allocator@D@2@@detail@io@boost@@V?$allocator@U?$format_item@DU?$char_traits@D@std@@V?$allocator@D@2@@detail@io@boost@@@std@@@std@@IAEPAU?$format_item@DU?$char_traits@D@std@@V?$allocator@D@2@@detail@io@boost@@PAU2345@00@Z 00464040 f i torq.obj
 0001:000630a0       ??$fill@PAU?$format_item@DU?$char_traits@D@std@@V?$allocator@D@2@@detail@io@boost@@U1234@@std@@YAXPAU?$format_item@DU?$char_traits@D@std@@V?$allocator@D@2@@detail@io@boost@@0ABU1234@@Z 004640a0 f i torq.obj
 0001:00063100       ??$copy_backward@PAU?$format_item@DU?$char_traits@D@std@@V?$allocator@D@2@@detail@io@boost@@PAU1234@@std@@YAPAU?$format_item@DU?$char_traits@D@std@@V?$allocator@D@2@@detail@io@boost@@PAU1234@00@Z 00464100 f i torq.obj
 0001:00063170       ??$_Uninitialized_fill_n@PAU?$format_item@DU?$char_traits@D@std@@V?$allocator@D@2@@detail@io@boost@@IU1234@V?$allocator@U?$format_item@DU?$char_traits@D@std@@V?$allocator@D@2@@detail@io@boost@@@std@@@std@@YAXPAU?$format_item@DU?$char_traits@D@std@@V?$allocator@D@2@@detail@io@boost@@IABU1234@AAV?$allocator@U?$format_item@DU?$char_traits@D@std@@V?$allocator@D@2@@detail@io@boost@@@0@@Z 00464170 f i torq.obj
 0001:000631e0       ??_G?$basic_string@DU?$char_traits@D@std@@V?$allocator@D@2@@std@@QAEPAXI@Z 004641e0 f i torq.obj
 0001:00063240       ??_G?$format_item@DU?$char_traits@D@std@@V?$allocator@D@2@@detail@io@boost@@QAEPAXI@Z 00464240 f i torq.obj
 0001:000632a0       ??_G?$pair@_NUNodeFormatI@Helper@text@@@std@@QAEPAXI@Z 004642a0 f i torq.obj
 0001:00063300       ??_G?$vector@HV?$allocator@H@std@@@std@@QAEPAXI@Z 00464300 f i torq.obj
 0001:00063360       ??_GTSL@Interpreter@@QAEPAXI@Z 00464360 f i torq.obj
 0001:000633c0       ??4?$format_item@DU?$char_traits@D@std@@V?$allocator@D@2@@detail@io@boost@@QAEAAU0123@ABU0123@@Z 004643c0 f i torq.obj
 0001:00063460       ??4?$stream_format_state@DU?$char_traits@D@std@@@detail@io@boost@@QAEAAU0123@ABU0123@@Z 00464460 f i torq.obj
 0001:00063500       ?append@?$basic_string@DU?$char_traits@D@std@@V?$allocator@D@2@@std@@QAEAAV12@Vconst_iterator@12@0@Z 00464500 f i torq.obj
 0001:00063570       ?end@?$basic_string@DU?$char_traits@D@std@@V?$allocator@D@2@@std@@QAE?AViterator@12@XZ 00464570 f i torq.obj
 0001:000635d0       ?resize@?$basic_string@DU?$char_traits@D@std@@V?$allocator@D@2@@std@@QAEXI@Z 004645d0 f i torq.obj
 0001:00063620       ??4?$optional@Vlocale@std@@@boost@@QAEAAV01@ABV01@@Z 00464620 f i torq.obj
 0001:00063670       ?get@?$optional@Vlocale@std@@@boost@@QBEABVlocale@std@@XZ 00464670 f i torq.obj
 0001:000636e0       ??B?$optional@Vlocale@std@@@boost@@QBEP8?$optional_base@Vlocale@std@@@optional_detail@1@BE_NXZXZ 004646e0 f i torq.obj
 0001:00063720       ?resize@?$vector@_NV?$allocator@_N@std@@@std@@QAEXI_N@Z 00464720 f i torq.obj
 0001:00063800       ??Econst_iterator@?$basic_string@DU?$char_traits@D@std@@V?$allocator@D@2@@std@@QAEAAV012@XZ 00464800 f i torq.obj
 0001:00063840       ??9const_iterator@?$basic_string@DU?$char_traits@D@std@@V?$allocator@D@2@@std@@QBE_NABV012@@Z 00464840 f i torq.obj
 0001:00063890       ??Pconst_iterator@?$basic_string@DU?$char_traits@D@std@@V?$allocator@D@2@@std@@QBE_NABV012@@Z 00464890 f i torq.obj
 0001:000638e0       ?assign@?$vector@U?$format_item@DU?$char_traits@D@std@@V?$allocator@D@2@@detail@io@boost@@V?$allocator@U?$format_item@DU?$char_traits@D@std@@V?$allocator@D@2@@detail@io@boost@@@std@@@std@@QAEXIABU?$format_item@DU?$char_traits@D@std@@V?$allocator@D@2@@detail@io@boost@@@Z 004648e0 f i torq.obj
 0001:00063930       ??Eiterator@?$vector@HV?$allocator@H@std@@@std@@QAEAAV012@XZ 00464930 f i torq.obj
 0001:00063970       ?construct@?$allocator@J@std@@QAEXPAJABJ@Z 00464970 f i torq.obj
 0001:000639c0       ?destroy@?$allocator@J@std@@QAEXPAJ@Z 004649c0 f i torq.obj
 0001:00063a10       ?construct@?$allocator@PAUToken@text@@@std@@QAEXPAPAUToken@text@@ABQAU34@@Z 00464a10 f i torq.obj
 0001:00063a60       ?destroy@?$allocator@PAUToken@text@@@std@@QAEXPAPAUToken@text@@@Z 00464a60 f i torq.obj
 0001:00063ab0       ??Eiterator@?$vector@V?$basic_string@DU?$char_traits@D@std@@V?$allocator@D@2@@std@@V?$allocator@V?$basic_string@DU?$char_traits@D@std@@V?$allocator@D@2@@std@@@2@@std@@QAEAAV012@XZ 00464ab0 f i torq.obj
 0001:00063af0       ??Econst_iterator@?$vector@V?$basic_string@DU?$char_traits@D@std@@V?$allocator@D@2@@std@@V?$allocator@V?$basic_string@DU?$char_traits@D@std@@V?$allocator@D@2@@std@@@2@@std@@QAEAAV012@XZ 00464af0 f i torq.obj
 0001:00063b30       ??9const_iterator@?$vector@V?$basic_string@DU?$char_traits@D@std@@V?$allocator@D@2@@std@@V?$allocator@V?$basic_string@DU?$char_traits@D@std@@V?$allocator@D@2@@std@@@2@@std@@QBE_NABV012@@Z 00464b30 f i torq.obj
 0001:00063b80       ??Econst_iterator@?$vector@UTOKEN@@V?$allocator@UTOKEN@@@std@@@std@@QAEAAV012@XZ 00464b80 f i torq.obj
 0001:00063bc0       ??9const_iterator@?$vector@UTOKEN@@V?$allocator@UTOKEN@@@std@@@std@@QBE_NABV012@@Z 00464bc0 f i torq.obj
 0001:00063c10       ??Econst_iterator@?$vector@UTRACE_ITEM@@V?$allocator@UTRACE_ITEM@@@std@@@std@@QAEAAV012@XZ 00464c10 f i torq.obj
 0001:00063c50       ??9const_iterator@?$vector@UTRACE_ITEM@@V?$allocator@UTRACE_ITEM@@@std@@@std@@QBE_NABV012@@Z 00464c50 f i torq.obj
 0001:00063ca0       ??Eiterator@?$vector@UTRACE_ITEM@@V?$allocator@UTRACE_ITEM@@@std@@@std@@QAEAAV012@XZ 00464ca0 f i torq.obj
 0001:00063ce0       ??Econst_iterator@?$vector@JV?$allocator@J@std@@@std@@QAEAAV012@XZ 00464ce0 f i torq.obj
 0001:00063d20       ??Eiterator@?$vector@PAUToken@text@@V?$allocator@PAUToken@text@@@std@@@std@@QAEAAV012@XZ 00464d20 f i torq.obj
 0001:00063d60       ??Econst_iterator@?$vector@PAUToken@text@@V?$allocator@PAUToken@text@@@std@@@std@@QAEAAV012@XZ 00464d60 f i torq.obj
 0001:00063da0       ??Econst_iterator@?$vector@V?$vector@HV?$allocator@H@std@@@std@@V?$allocator@V?$vector@HV?$allocator@H@std@@@std@@@2@@std@@QAEAAV012@XZ 00464da0 f i torq.obj
 0001:00063de0       ??Eiterator@?$vector@UMATCH@Interpreter@@V?$allocator@UMATCH@Interpreter@@@std@@@std@@QAEAAV012@XZ 00464de0 f i torq.obj
 0001:00063e20       ?replace@?$basic_string@DU?$char_traits@D@std@@V?$allocator@D@2@@std@@QAEAAV12@Viterator@12@0Vconst_iterator@12@1@Z 00464e20 f i torq.obj
 0001:00063f60       ?_Pdif@?$basic_string@DU?$char_traits@D@std@@V?$allocator@D@2@@std@@KAIVconst_iterator@12@0@Z 00464f60 f i torq.obj
 0001:00063fc0       ?resize@?$basic_string@DU?$char_traits@D@std@@V?$allocator@D@2@@std@@QAEXID@Z 00464fc0 f i torq.obj
 0001:00064030       ?assign@?$optional_base@Vlocale@std@@@optional_detail@boost@@IAEXABV123@@Z 00465030 f i torq.obj
 0001:000640d0       ?safe_bool@?$optional_base@Vlocale@std@@@optional_detail@boost@@IBEP8123@BE_NXZXZ 004650d0 f i torq.obj
 0001:00064110       ?end@?$vector@_NV?$allocator@_N@std@@@std@@QAE?AViterator@12@XZ 00465110 f i torq.obj
 0001:000641b0       ?erase@?$vector@_NV?$allocator@_N@std@@@std@@QAE?AViterator@12@V312@0@Z 004651b0 f i torq.obj
 0001:000642e0       ?_Insert_n@?$vector@_NV?$allocator@_N@std@@@std@@IAEXViterator@12@I_N@Z 004652e0 f i torq.obj
 0001:00064390       ??8const_iterator@?$basic_string@DU?$char_traits@D@std@@V?$allocator@D@2@@std@@QBE_NABV012@@Z 00465390 f i torq.obj
 0001:000643d0       ??Mconst_iterator@?$basic_string@DU?$char_traits@D@std@@V?$allocator@D@2@@std@@QBE_NABV012@@Z 004653d0 f i torq.obj
 0001:00064410       ?_Assign_n@?$vector@U?$format_item@DU?$char_traits@D@std@@V?$allocator@D@2@@detail@io@boost@@V?$allocator@U?$format_item@DU?$char_traits@D@std@@V?$allocator@D@2@@detail@io@boost@@@std@@@std@@IAEXIABU?$format_item@DU?$char_traits@D@std@@V?$allocator@D@2@@detail@io@boost@@@Z 00465410 f i torq.obj
 0001:00064510       ??8const_iterator@?$vector@V?$basic_string@DU?$char_traits@D@std@@V?$allocator@D@2@@std@@V?$allocator@V?$basic_string@DU?$char_traits@D@std@@V?$allocator@D@2@@std@@@2@@std@@QBE_NABV012@@Z 00465510 f i torq.obj
 0001:00064550       ??8const_iterator@?$vector@UTOKEN@@V?$allocator@UTOKEN@@@std@@@std@@QBE_NABV012@@Z 00465550 f i torq.obj
 0001:00064590       ??8const_iterator@?$vector@UTRACE_ITEM@@V?$allocator@UTRACE_ITEM@@@std@@@std@@QBE_NABV012@@Z 00465590 f i torq.obj
 0001:000645d0       ?replace@?$basic_string@DU?$char_traits@D@std@@V?$allocator@D@2@@std@@QAEAAV12@IIPBDI@Z 004655d0 f i torq.obj
 0001:00064760       ?assign_value@?$optional_base@Vlocale@std@@@optional_detail@boost@@IAEXABVlocale@std@@U?$bool_@$0A@@mpl@3@@Z 00465760 f i torq.obj
 0001:000647b0       ??4locale@std@@QAEAAV01@ABV01@@Z 004657b0 f i torq.obj
 0001:00064820       ?_Insert_x@?$vector@_NV?$allocator@_N@std@@@std@@IAEIViterator@12@I@Z 00465820 f i torq.obj
 0001:000649a0       ?_Trim@?$vector@_NV?$allocator@_N@std@@@std@@IAEXI@Z 004659a0 f i torq.obj
 0001:00064ab0       ?insert@?$vector@U?$format_item@DU?$char_traits@D@std@@V?$allocator@D@2@@detail@io@boost@@V?$allocator@U?$format_item@DU?$char_traits@D@std@@V?$allocator@D@2@@detail@io@boost@@@std@@@std@@QAEXViterator@12@IABU?$format_item@DU?$char_traits@D@std@@V?$allocator@D@2@@detail@io@boost@@@Z 00465ab0 f i torq.obj
 0001:00064b00       ??Giterator@?$vector@_NV?$allocator@_N@std@@@std@@QBEHVconst_iterator@12@@Z 00465b00 f i torq.obj
 0001:00064b50       ?replace@?$basic_string@DU?$char_traits@D@std@@V?$allocator@D@2@@std@@QAEAAV12@IIABV12@II@Z 00465b50 f i torq.obj
 0001:00064e30       ?get_impl@?$optional_base@Vlocale@std@@@optional_detail@boost@@IAEAAVlocale@std@@XZ 00465e30 f i torq.obj
 0001:00064e80       ?max_size@?$vector@_NV?$allocator@_N@std@@@std@@QBEIXZ 00465e80 f i torq.obj
 0001:00064ef0       ?_Nw@?$vector@_NV?$allocator@_N@std@@@std@@KAII@Z 00465ef0 f i torq.obj
 0001:00064f20       ?_Xlen@?$vector@_NV?$allocator@_N@std@@@std@@IBEXXZ 00465f20 f i torq.obj
 0001:00064fb0       ?end@?$vector@IV?$allocator@I@std@@@std@@QAE?AViterator@12@XZ 00465fb0 f i torq.obj
 0001:00065000       ?resize@?$vector@IV?$allocator@I@std@@@std@@QAEXII@Z 00466000 f i torq.obj
 0001:000650d0       ?size@?$vector@IV?$allocator@I@std@@@std@@QBEIXZ 004660d0 f i torq.obj
 0001:00065130       ??A?$vector@IV?$allocator@I@std@@@std@@QAEAAII@Z 00466130 f i torq.obj
 0001:000651a0       ?erase@?$vector@IV?$allocator@I@std@@@std@@QAE?AViterator@12@V312@0@Z 004661a0 f i torq.obj
 0001:00065230       ??Gconst_iterator@?$vector@_NV?$allocator@_N@std@@@std@@QBEHV012@@Z 00466230 f i torq.obj
 0001:00065280       ??Hiterator@?$vector@IV?$allocator@I@std@@@std@@QBE?AV012@H@Z 00466280 f i torq.obj
 0001:00065310       ?dereference@?$optional_base@Vlocale@std@@@optional_detail@boost@@AAEAAVlocale@std@@PAV45@U?$bool_@$0A@@mpl@3@@Z 00466310 f i torq.obj
 0001:00065340       ?_Insert_n@?$vector@IV?$allocator@I@std@@@std@@IAEXViterator@12@IABI@Z 00466340 f i torq.obj
 0001:000656c0       ??Diterator@?$vector@IV?$allocator@I@std@@@std@@QBEAAIXZ 004666c0 f i torq.obj
 0001:00065700       ??Yiterator@?$vector@IV?$allocator@I@std@@@std@@QAEAAV012@H@Z 00466700 f i torq.obj
 0001:00065740       ??9const_iterator@?$vector@IV?$allocator@I@std@@@std@@QBE_NABV012@@Z 00466740 f i torq.obj
 0001:00065790       ?capacity@?$vector@IV?$allocator@I@std@@@std@@QBEIXZ 00466790 f i torq.obj
 0001:000657f0       ?_Ufill@?$vector@IV?$allocator@I@std@@@std@@IAEPAIPAIIABI@Z 004667f0 f i torq.obj
 0001:00065850       ??Dconst_iterator@?$vector@IV?$allocator@I@std@@@std@@QBEABIXZ 00466850 f i torq.obj
 0001:00065880       ??8const_iterator@?$vector@IV?$allocator@I@std@@@std@@QBE_NABV012@@Z 00466880 f i torq.obj
 0001:000658c0       ?reset@?$format_item@DU?$char_traits@D@std@@V?$allocator@D@2@@detail@io@boost@@QAEXD@Z 004668c0 f i torq.obj
 0001:00065940       ??$wrap_scan_notdigit@Vconst_iterator@?$basic_string@DU?$char_traits@D@std@@V?$allocator@D@2@@std@@V?$ctype@D@3@@detail@io@boost@@YA?AVconst_iterator@?$basic_string@DU?$char_traits@D@std@@V?$allocator@D@2@@std@@ABV?$ctype@D@5@V345@1@Z 00466940 f i torq.obj
 0001:000659c0       ??$wrap_isdigit@DV?$ctype@D@std@@@detail@io@boost@@YA_NABV?$ctype@D@std@@D@Z 004669c0 f i torq.obj
 0001:00065a00       ??$str2int@HVconst_iterator@?$basic_string@DU?$char_traits@D@std@@V?$allocator@D@2@@std@@V?$ctype@D@3@@detail@io@boost@@YA?AVconst_iterator@?$basic_string@DU?$char_traits@D@std@@V?$allocator@D@2@@std@@ABV345@0AAHABV?$ctype@D@5@@Z 00466a00 f i torq.obj
 0001:00065b00       ??$wrap_narrow@DV?$ctype@D@std@@@detail@io@boost@@YADABV?$ctype@D@std@@DD@Z 00466b00 f i torq.obj
 0001:00065b50       ?narrow@?$ctype@D@std@@QBEDDD@Z 00466b50 f i torq.obj
 0001:00065bb0       ??$skip_asterisk@Vconst_iterator@?$basic_string@DU?$char_traits@D@std@@V?$allocator@D@2@@std@@V?$ctype@D@3@@detail@io@boost@@YA?AVconst_iterator@?$basic_string@DU?$char_traits@D@std@@V?$allocator@D@2@@std@@V345@0ABV?$ctype@D@5@@Z 00466bb0 f i torq.obj
 0001:00065c60       ??$throw_exception@Vtoo_many_args@io@boost@@@boost@@YAXABVtoo_many_args@io@0@@Z 00466c60 f i torq.obj
 0001:00065cc0       ??$get_pointer@Vlocale@std@@@boost@@YAPAVlocale@std@@AAV?$optional@Vlocale@std@@@0@@Z 00466cc0 f i torq.obj
 0001:00065d00       ??$put@DU?$char_traits@D@std@@V?$allocator@D@2@ABI@detail@io@boost@@YAXABIABU?$format_item@DU?$char_traits@D@std@@V?$allocator@D@2@@012@AAV?$basic_string@DU?$char_traits@D@std@@V?$allocator@D@2@@std@@AAV?$basic_altstringbuf@DU?$char_traits@D@std@@V?$allocator@D@2@@12@PAVlocale@5@@Z 00466d00 f i torq.obj
 0001:000664b0       ??$put@DU?$char_traits@D@std@@V?$allocator@D@2@ABH@detail@io@boost@@YAXABHABU?$format_item@DU?$char_traits@D@std@@V?$allocator@D@2@@012@AAV?$basic_string@DU?$char_traits@D@std@@V?$allocator@D@2@@std@@AAV?$basic_altstringbuf@DU?$char_traits@D@std@@V?$allocator@D@2@@12@PAVlocale@5@@Z 004674b0 f i torq.obj
 0001:00066c60       ??$_Distance2@Vconst_iterator@?$vector@HV?$allocator@H@std@@@std@@I@std@@YAXVconst_iterator@?$vector@HV?$allocator@H@std@@@0@0AAIUrandom_access_iterator_tag@0@@Z 00467c60 f i torq.obj
 0001:00066cb0       ??$_Advance@Vconst_iterator@?$vector@HV?$allocator@H@std@@@std@@H@std@@YAXAAVconst_iterator@?$vector@HV?$allocator@H@std@@@0@HUrandom_access_iterator_tag@0@@Z 00467cb0 f i torq.obj
 0001:00066cf0       ??$_Copy_opt@Vconst_iterator@?$vector@HV?$allocator@H@std@@@std@@PAH@std@@YAPAHVconst_iterator@?$vector@HV?$allocator@H@std@@@0@0PAHU_Nonscalar_ptr_iterator_tag@0@@Z 00467cf0 f i torq.obj
 0001:00066d60       ??$_Distance2@Viterator@?$vector@HV?$allocator@H@std@@@std@@I@std@@YAXViterator@?$vector@HV?$allocator@H@std@@@0@0AAIUrandom_access_iterator_tag@0@@Z 00467d60 f i torq.obj
